
APPGS3MDM32A01.elf:     file format elf32-littlearm

Sections:
Idx Name          Size      VMA       LMA       File off  Algn
  0 .initdata     0000002c  102db040  102db040  00003040  2**2
                  CONTENTS, ALLOC, LOAD, READONLY, DATA
  1 text          0000a580  102db070  102db070  00003070  2**3
                  CONTENTS, ALLOC, LOAD, READONLY, CODE
  2 .text.Ql_GPIO_Init 00000078  102e55f0  102e55f0  0000d5f0  2**2
                  CONTENTS, ALLOC, LOAD, READONLY, CODE
  3 .text.Ql_GPIO_SetLevel 00000068  102e5668  102e5668  0000d668  2**2
                  CONTENTS, ALLOC, LOAD, READONLY, CODE
  4 .text.Ql_GPIO_GetLevel 00000060  102e56d0  102e56d0  0000d6d0  2**2
                  CONTENTS, ALLOC, LOAD, READONLY, CODE
  5 .text.Ql_MEM_Alloc 00000078  102e5730  102e5730  0000d730  2**2
                  CONTENTS, ALLOC, LOAD, READONLY, CODE
  6 .text.Ql_MEM_Free 00000074  102e57a8  102e57a8  0000d7a8  2**2
                  CONTENTS, ALLOC, LOAD, READONLY, CODE
  7 .text.ql_InitVFunc 00000104  102e581c  102e581c  0000d81c  2**2
                  CONTENTS, ALLOC, LOAD, READONLY, CODE
  8 .text.ocpu_main 000000f0  102e5920  102e5920  0000d920  2**2
                  CONTENTS, ALLOC, LOAD, READONLY, CODE
  9 .text.proc_reserved2 00000070  102e5a10  102e5a10  0000da10  2**2
                  CONTENTS, ALLOC, LOAD, READONLY, CODE
 10 .text.ril_StopATTimer 00000034  102e5a80  102e5a80  0000da80  2**2
                  CONTENTS, ALLOC, LOAD, READONLY, CODE
 11 .text.Callback_OnATTimer 0000004c  102e5ab4  102e5ab4  0000dab4  2**2
                  CONTENTS, ALLOC, LOAD, READONLY, CODE
 12 .text.CallBack_SerialPort_Hdlr 00000384  102e5b00  102e5b00  0000db00  2**2
                  CONTENTS, ALLOC, LOAD, READONLY, CODE
 13 .text.proc_reserved1 00000200  102e5e84  102e5e84  0000de84  2**2
                  CONTENTS, ALLOC, LOAD, READONLY, CODE
 14 .text.Ql_RIL_Initialize 000000d4  102e6084  102e6084  0000e084  2**2
                  CONTENTS, ALLOC, LOAD, READONLY, CODE
 15 .text.Ql_RIL_SendATCmd 00000260  102e6158  102e6158  0000e158  2**2
                  CONTENTS, ALLOC, LOAD, READONLY, CODE
 16 .text.Ql_RIL_WriteDataToCore 00000024  102e63b8  102e63b8  0000e3b8  2**2
                  CONTENTS, ALLOC, LOAD, READONLY, CODE
 17 .text.Ql_atof 00000098  102e63dc  102e63dc  0000e3dc  2**2
                  CONTENTS, ALLOC, LOAD, READONLY, CODE
 18 .text.Ql_strcpy 000000a0  102e6474  102e6474  0000e474  2**2
                  CONTENTS, ALLOC, LOAD, READONLY, CODE
 19 .text.Ql_strncpy 00000088  102e6514  102e6514  0000e514  2**2
                  CONTENTS, ALLOC, LOAD, READONLY, CODE
 20 .text.Ql_strncat 00000088  102e659c  102e659c  0000e59c  2**2
                  CONTENTS, ALLOC, LOAD, READONLY, CODE
 21 .text.Ql_strlen 00000078  102e6624  102e6624  0000e624  2**2
                  CONTENTS, ALLOC, LOAD, READONLY, CODE
 22 .text.Ql_strcmp 00000068  102e669c  102e669c  0000e69c  2**2
                  CONTENTS, ALLOC, LOAD, READONLY, CODE
 23 .text.Ql_strncmp 00000070  102e6704  102e6704  0000e704  2**2
                  CONTENTS, ALLOC, LOAD, READONLY, CODE
 24 .text.Ql_memset 00000088  102e6774  102e6774  0000e774  2**2
                  CONTENTS, ALLOC, LOAD, READONLY, CODE
 25 .text.Ql_memcpy 00000088  102e67fc  102e67fc  0000e7fc  2**2
                  CONTENTS, ALLOC, LOAD, READONLY, CODE
 26 .text.Ql_strstr 00000080  102e6884  102e6884  0000e884  2**2
                  CONTENTS, ALLOC, LOAD, READONLY, CODE
 27 .text.Ql_toupper 00000008  102e6904  102e6904  0000e904  2**2
                  CONTENTS, ALLOC, LOAD, READONLY, CODE
 28 .text.Ql_atoi 00000084  102e690c  102e690c  0000e90c  2**2
                  CONTENTS, ALLOC, LOAD, READONLY, CODE
 29 .text.Ql_Sleep 00000074  102e6990  102e6990  0000e990  2**2
                  CONTENTS, ALLOC, LOAD, READONLY, CODE
 30 .text.Ql_Reset 00000074  102e6a04  102e6a04  0000ea04  2**2
                  CONTENTS, ALLOC, LOAD, READONLY, CODE
 31 .text.Ql_GetSDKVer 00000064  102e6a78  102e6a78  0000ea78  2**2
                  CONTENTS, ALLOC, LOAD, READONLY, CODE
 32 .text.Ql_OS_GetMessage 00000060  102e6adc  102e6adc  0000eadc  2**2
                  CONTENTS, ALLOC, LOAD, READONLY, CODE
 33 .text.Ql_OS_SendMessage 00000078  102e6b3c  102e6b3c  0000eb3c  2**2
                  CONTENTS, ALLOC, LOAD, READONLY, CODE
 34 .text.Ql_OS_CreateMutex 00000054  102e6bb4  102e6bb4  0000ebb4  2**2
                  CONTENTS, ALLOC, LOAD, READONLY, CODE
 35 .text.Ql_OS_TakeMutex 00000054  102e6c08  102e6c08  0000ec08  2**2
                  CONTENTS, ALLOC, LOAD, READONLY, CODE
 36 .text.Ql_OS_GiveMutex 00000054  102e6c5c  102e6c5c  0000ec5c  2**2
                  CONTENTS, ALLOC, LOAD, READONLY, CODE
 37 .text.Ql_OS_CreateEvent 00000054  102e6cb0  102e6cb0  0000ecb0  2**2
                  CONTENTS, ALLOC, LOAD, READONLY, CODE
 38 .text.Ql_OS_WaitEvent 00000068  102e6d04  102e6d04  0000ed04  2**2
                  CONTENTS, ALLOC, LOAD, READONLY, CODE
 39 .text.Ql_OS_SetEvent 00000068  102e6d6c  102e6d6c  0000ed6c  2**2
                  CONTENTS, ALLOC, LOAD, READONLY, CODE
 40 .text.Ql_Timer_Register 00000070  102e6dd4  102e6dd4  0000edd4  2**2
                  CONTENTS, ALLOC, LOAD, READONLY, CODE
 41 .text.Ql_Timer_Start 00000070  102e6e44  102e6e44  0000ee44  2**2
                  CONTENTS, ALLOC, LOAD, READONLY, CODE
 42 .text.Ql_Timer_Stop 00000060  102e6eb4  102e6eb4  0000eeb4  2**2
                  CONTENTS, ALLOC, LOAD, READONLY, CODE
 43 .text.Ql_UART_Register 00000070  102e6f14  102e6f14  0000ef14  2**2
                  CONTENTS, ALLOC, LOAD, READONLY, CODE
 44 .text.Ql_UART_Open 00000070  102e6f84  102e6f84  0000ef84  2**2
                  CONTENTS, ALLOC, LOAD, READONLY, CODE
 45 .text.Ql_UART_Write 00000070  102e6ff4  102e6ff4  0000eff4  2**2
                  CONTENTS, ALLOC, LOAD, READONLY, CODE
 46 .text.Ql_UART_Read 00000070  102e7064  102e7064  0000f064  2**2
                  CONTENTS, ALLOC, LOAD, READONLY, CODE
 47 .text.Ql_UART_GetPinStatus 00000068  102e70d4  102e70d4  0000f0d4  2**2
                  CONTENTS, ALLOC, LOAD, READONLY, CODE
 48 .text.Ql_UART_SendEscap 00000060  102e713c  102e713c  0000f13c  2**2
                  CONTENTS, ALLOC, LOAD, READONLY, CODE
 49 .text.Ql_WTD_Start 000000b4  102e719c  102e719c  0000f19c  2**2
                  CONTENTS, ALLOC, LOAD, READONLY, CODE
 50 .text.Ql_WTD_Feed 0000005c  102e7250  102e7250  0000f250  2**2
                  CONTENTS, ALLOC, LOAD, READONLY, CODE
 51 .rodata       00000c64  102e72ac  102e72ac  0000f2ac  2**2
                  CONTENTS, ALLOC, LOAD, READONLY, DATA
 52 .rodata.str1.4 00001628  102e7f10  102e7f10  0000ff10  2**2
                  CONTENTS, ALLOC, LOAD, READONLY, DATA
 53 .rodata.str1.1 00000492  102e9538  102e9538  00011538  2**0
                  CONTENTS, ALLOC, LOAD, READONLY, DATA
 54 .data         00001940  f03d2000  102e99d0  00012000  2**3
                  CONTENTS, ALLOC, LOAD, DATA
 55 .bss          00002df0  f03d3940  102eb310  00013940  2**3
                  ALLOC
 56 .comment      00000030  00000000  00000000  00013940  2**0
                  CONTENTS, READONLY
 57 .ARM.attributes 00000029  00000000  00000000  00013970  2**0
                  CONTENTS, READONLY
 58 .debug_frame  00000084  00000000  00000000  0001399c  2**2
                  CONTENTS, READONLY, DEBUGGING

Disassembly of section text:

102db070 <ATResponse_Handler>:
102db070:	e92d4070 	push	{r4, r5, r6, lr}
102db074:	e59f30c4 	ldr	r3, [pc, #196]	; 102db140 <ATResponse_Handler+0xd0>
102db078:	e1a05001 	mov	r5, r1
102db07c:	e59f10c0 	ldr	r1, [pc, #192]	; 102db144 <ATResponse_Handler+0xd4>
102db080:	e1a04000 	mov	r4, r0
102db084:	e12fff33 	blx	r3
102db088:	e3500000 	cmp	r0, #0
102db08c:	0a00000b 	beq	102db0c0 <ATResponse_Handler+0x50>
102db090:	e59f30b0 	ldr	r3, [pc, #176]	; 102db148 <ATResponse_Handler+0xd8>
102db094:	e5932000 	ldr	r2, [r3]
102db098:	e3520000 	cmp	r2, #0
102db09c:	0a000007 	beq	102db0c0 <ATResponse_Handler+0x50>
102db0a0:	e5933004 	ldr	r3, [r3, #4]
102db0a4:	e3530000 	cmp	r3, #0
102db0a8:	0a000004 	beq	102db0c0 <ATResponse_Handler+0x50>
102db0ac:	e59f1098 	ldr	r1, [pc, #152]	; 102db14c <ATResponse_Handler+0xdc>
102db0b0:	e1a00004 	mov	r0, r4
102db0b4:	e591c000 	ldr	ip, [r1]
102db0b8:	e59f1090 	ldr	r1, [pc, #144]	; 102db150 <ATResponse_Handler+0xe0>
102db0bc:	e12fff3c 	blx	ip
102db0c0:	e1a00004 	mov	r0, r4
102db0c4:	e1a01005 	mov	r1, r5
102db0c8:	e59f2084 	ldr	r2, [pc, #132]	; 102db154 <ATResponse_Handler+0xe4>
102db0cc:	e59f6084 	ldr	r6, [pc, #132]	; 102db158 <ATResponse_Handler+0xe8>
102db0d0:	e12fff36 	blx	r6
102db0d4:	e3500000 	cmp	r0, #0
102db0d8:	0a000001 	beq	102db0e4 <ATResponse_Handler+0x74>
102db0dc:	e3a00000 	mov	r0, #0
102db0e0:	e8bd8070 	pop	{r4, r5, r6, pc}
102db0e4:	e1a00004 	mov	r0, r4
102db0e8:	e1a01005 	mov	r1, r5
102db0ec:	e59f2068 	ldr	r2, [pc, #104]	; 102db15c <ATResponse_Handler+0xec>
102db0f0:	e12fff36 	blx	r6
102db0f4:	e3500000 	cmp	r0, #0
102db0f8:	1a00000e 	bne	102db138 <ATResponse_Handler+0xc8>
102db0fc:	e1a00004 	mov	r0, r4
102db100:	e1a01005 	mov	r1, r5
102db104:	e59f2054 	ldr	r2, [pc, #84]	; 102db160 <ATResponse_Handler+0xf0>
102db108:	e59f6054 	ldr	r6, [pc, #84]	; 102db164 <ATResponse_Handler+0xf4>
102db10c:	e12fff36 	blx	r6
102db110:	e3500000 	cmp	r0, #0
102db114:	1a000007 	bne	102db138 <ATResponse_Handler+0xc8>
102db118:	e1a00004 	mov	r0, r4
102db11c:	e1a01005 	mov	r1, r5
102db120:	e59f2040 	ldr	r2, [pc, #64]	; 102db168 <ATResponse_Handler+0xf8>
102db124:	e12fff36 	blx	r6
102db128:	e3500000 	cmp	r0, #0
102db12c:	1a000001 	bne	102db138 <ATResponse_Handler+0xc8>
102db130:	e3a00001 	mov	r0, #1
102db134:	e8bd8070 	pop	{r4, r5, r6, pc}
102db138:	e3e00000 	mvn	r0, #0
102db13c:	e8bd8070 	pop	{r4, r5, r6, pc}
102db140:	102e6884 	.word	0x102e6884
102db144:	102e7f10 	.word	0x102e7f10
102db148:	f03d3940 	.word	0xf03d3940
102db14c:	f03d672c 	.word	0xf03d672c
102db150:	102e7f1c 	.word	0x102e7f1c
102db154:	102e87c4 	.word	0x102e87c4
102db158:	102e1e90 	.word	0x102e1e90
102db15c:	102e7f30 	.word	0x102e7f30
102db160:	102e7f38 	.word	0x102e7f38
102db164:	102e1e04 	.word	0x102e1e04
102db168:	102e7f44 	.word	0x102e7f44

102db16c <RIL_ToneDet_Open>:
102db16c:	e59f3064 	ldr	r3, [pc, #100]	; 102db1d8 <RIL_ToneDet_Open+0x6c>
102db170:	e52de004 	push	{lr}		; (str lr, [sp, #-4]!)
102db174:	e24dd0d4 	sub	sp, sp, #212	; 0xd4
102db178:	e3a020c8 	mov	r2, #200	; 0xc8
102db17c:	e5830008 	str	r0, [r3, #8]
102db180:	e3a01000 	mov	r1, #0
102db184:	e28d0008 	add	r0, sp, #8
102db188:	e59f304c 	ldr	r3, [pc, #76]	; 102db1dc <RIL_ToneDet_Open+0x70>
102db18c:	e12fff33 	blx	r3
102db190:	e59f3048 	ldr	r3, [pc, #72]	; 102db1e0 <RIL_ToneDet_Open+0x74>
102db194:	e59f1048 	ldr	r1, [pc, #72]	; 102db1e4 <RIL_ToneDet_Open+0x78>
102db198:	e5933000 	ldr	r3, [r3]
102db19c:	e28d0008 	add	r0, sp, #8
102db1a0:	e12fff33 	blx	r3
102db1a4:	e28d0008 	add	r0, sp, #8
102db1a8:	e59f3038 	ldr	r3, [pc, #56]	; 102db1e8 <RIL_ToneDet_Open+0x7c>
102db1ac:	e12fff33 	blx	r3
102db1b0:	e3a02000 	mov	r2, #0
102db1b4:	e3a03f4b 	mov	r3, #300	; 0x12c
102db1b8:	e58d3000 	str	r3, [sp]
102db1bc:	e59fc028 	ldr	ip, [pc, #40]	; 102db1ec <RIL_ToneDet_Open+0x80>
102db1c0:	e1a03002 	mov	r3, r2
102db1c4:	e1a01000 	mov	r1, r0
102db1c8:	e28d0008 	add	r0, sp, #8
102db1cc:	e12fff3c 	blx	ip
102db1d0:	e28dd0d4 	add	sp, sp, #212	; 0xd4
102db1d4:	e8bd8000 	ldmfd	sp!, {pc}
102db1d8:	f03d3940 	.word	0xf03d3940
102db1dc:	102e6774 	.word	0x102e6774
102db1e0:	f03d6720 	.word	0xf03d6720
102db1e4:	102e7f50 	.word	0x102e7f50
102db1e8:	102e6624 	.word	0x102e6624
102db1ec:	102e6158 	.word	0x102e6158

102db1f0 <RIL_ToneDet_Close>:
102db1f0:	e52de004 	push	{lr}		; (str lr, [sp, #-4]!)
102db1f4:	e24dd0d4 	sub	sp, sp, #212	; 0xd4
102db1f8:	e3a020c8 	mov	r2, #200	; 0xc8
102db1fc:	e3a01000 	mov	r1, #0
102db200:	e28d0008 	add	r0, sp, #8
102db204:	e59f3048 	ldr	r3, [pc, #72]	; 102db254 <RIL_ToneDet_Close+0x64>
102db208:	e12fff33 	blx	r3
102db20c:	e59f3044 	ldr	r3, [pc, #68]	; 102db258 <RIL_ToneDet_Close+0x68>
102db210:	e59f1044 	ldr	r1, [pc, #68]	; 102db25c <RIL_ToneDet_Close+0x6c>
102db214:	e5933000 	ldr	r3, [r3]
102db218:	e28d0008 	add	r0, sp, #8
102db21c:	e12fff33 	blx	r3
102db220:	e28d0008 	add	r0, sp, #8
102db224:	e59f3034 	ldr	r3, [pc, #52]	; 102db260 <RIL_ToneDet_Close+0x70>
102db228:	e12fff33 	blx	r3
102db22c:	e3a02000 	mov	r2, #0
102db230:	e3a03f4b 	mov	r3, #300	; 0x12c
102db234:	e58d3000 	str	r3, [sp]
102db238:	e59fc024 	ldr	ip, [pc, #36]	; 102db264 <RIL_ToneDet_Close+0x74>
102db23c:	e1a03002 	mov	r3, r2
102db240:	e1a01000 	mov	r1, r0
102db244:	e28d0008 	add	r0, sp, #8
102db248:	e12fff3c 	blx	ip
102db24c:	e28dd0d4 	add	sp, sp, #212	; 0xd4
102db250:	e8bd8000 	ldmfd	sp!, {pc}
102db254:	102e6774 	.word	0x102e6774
102db258:	f03d6720 	.word	0xf03d6720
102db25c:	102e7f60 	.word	0x102e7f60
102db260:	102e6624 	.word	0x102e6624
102db264:	102e6158 	.word	0x102e6158

102db268 <RIL_ToneDet_Set>:
102db268:	e92d40f0 	push	{r4, r5, r6, r7, lr}
102db26c:	e1a04000 	mov	r4, r0
102db270:	e2400002 	sub	r0, r0, #2
102db274:	e3500002 	cmp	r0, #2
102db278:	e24dd0d4 	sub	sp, sp, #212	; 0xd4
102db27c:	e1a07001 	mov	r7, r1
102db280:	e1a06002 	mov	r6, r2
102db284:	e1a05003 	mov	r5, r3
102db288:	8a00001a 	bhi	102db2f8 <RIL_ToneDet_Set+0x90>
102db28c:	e3a01000 	mov	r1, #0
102db290:	e3a020c8 	mov	r2, #200	; 0xc8
102db294:	e59f3064 	ldr	r3, [pc, #100]	; 102db300 <RIL_ToneDet_Set+0x98>
102db298:	e28d0008 	add	r0, sp, #8
102db29c:	e12fff33 	blx	r3
102db2a0:	e59f005c 	ldr	r0, [pc, #92]	; 102db304 <RIL_ToneDet_Set+0x9c>
102db2a4:	e59f105c 	ldr	r1, [pc, #92]	; 102db308 <RIL_ToneDet_Set+0xa0>
102db2a8:	e1a02004 	mov	r2, r4
102db2ac:	e1a03007 	mov	r3, r7
102db2b0:	e58d6000 	str	r6, [sp]
102db2b4:	e58d5004 	str	r5, [sp, #4]
102db2b8:	e590c000 	ldr	ip, [r0]
102db2bc:	e28d0008 	add	r0, sp, #8
102db2c0:	e12fff3c 	blx	ip
102db2c4:	e59f3040 	ldr	r3, [pc, #64]	; 102db30c <RIL_ToneDet_Set+0xa4>
102db2c8:	e28d0008 	add	r0, sp, #8
102db2cc:	e12fff33 	blx	r3
102db2d0:	e3a03f4b 	mov	r3, #300	; 0x12c
102db2d4:	e3a02000 	mov	r2, #0
102db2d8:	e58d3000 	str	r3, [sp]
102db2dc:	e59fc02c 	ldr	ip, [pc, #44]	; 102db310 <RIL_ToneDet_Set+0xa8>
102db2e0:	e1a03002 	mov	r3, r2
102db2e4:	e1a01000 	mov	r1, r0
102db2e8:	e28d0008 	add	r0, sp, #8
102db2ec:	e12fff3c 	blx	ip
102db2f0:	e28dd0d4 	add	sp, sp, #212	; 0xd4
102db2f4:	e8bd80f0 	pop	{r4, r5, r6, r7, pc}
102db2f8:	e3e00003 	mvn	r0, #3
102db2fc:	eafffffb 	b	102db2f0 <RIL_ToneDet_Set+0x88>
102db300:	102e6774 	.word	0x102e6774
102db304:	f03d6720 	.word	0xf03d6720
102db308:	102e7f70 	.word	0x102e7f70
102db30c:	102e6624 	.word	0x102e6624
102db310:	102e6158 	.word	0x102e6158

102db314 <RIL_ToneDet_Get>:
102db314:	e2403001 	sub	r3, r0, #1
102db318:	e3530004 	cmp	r3, #4
102db31c:	e92d4070 	push	{r4, r5, r6, lr}
102db320:	e1a0c002 	mov	ip, r2
102db324:	e24dd0d0 	sub	sp, sp, #208	; 0xd0
102db328:	e1a05000 	mov	r5, r0
102db32c:	e1a04001 	mov	r4, r1
102db330:	8a00001e 	bhi	102db3b0 <RIL_ToneDet_Get+0x9c>
102db334:	e3510000 	cmp	r1, #0
102db338:	13520000 	cmpne	r2, #0
102db33c:	13a06000 	movne	r6, #0
102db340:	03a06001 	moveq	r6, #1
102db344:	0a000019 	beq	102db3b0 <RIL_ToneDet_Get+0x9c>
102db348:	e59f3068 	ldr	r3, [pc, #104]	; 102db3b8 <RIL_ToneDet_Get+0xa4>
102db34c:	e1a01006 	mov	r1, r6
102db350:	e8831010 	stm	r3, {r4, ip}
102db354:	e3a020c8 	mov	r2, #200	; 0xc8
102db358:	e59f305c 	ldr	r3, [pc, #92]	; 102db3bc <RIL_ToneDet_Get+0xa8>
102db35c:	e28d0008 	add	r0, sp, #8
102db360:	e12fff33 	blx	r3
102db364:	e59f3054 	ldr	r3, [pc, #84]	; 102db3c0 <RIL_ToneDet_Get+0xac>
102db368:	e59f1054 	ldr	r1, [pc, #84]	; 102db3c4 <RIL_ToneDet_Get+0xb0>
102db36c:	e1a02005 	mov	r2, r5
102db370:	e5933000 	ldr	r3, [r3]
102db374:	e28d0008 	add	r0, sp, #8
102db378:	e12fff33 	blx	r3
102db37c:	e59f3044 	ldr	r3, [pc, #68]	; 102db3c8 <RIL_ToneDet_Get+0xb4>
102db380:	e28d0008 	add	r0, sp, #8
102db384:	e12fff33 	blx	r3
102db388:	e3a03f4b 	mov	r3, #300	; 0x12c
102db38c:	e58d3000 	str	r3, [sp]
102db390:	e59f2034 	ldr	r2, [pc, #52]	; 102db3cc <RIL_ToneDet_Get+0xb8>
102db394:	e1a03006 	mov	r3, r6
102db398:	e59fc030 	ldr	ip, [pc, #48]	; 102db3d0 <RIL_ToneDet_Get+0xbc>
102db39c:	e1a01000 	mov	r1, r0
102db3a0:	e28d0008 	add	r0, sp, #8
102db3a4:	e12fff3c 	blx	ip
102db3a8:	e28dd0d0 	add	sp, sp, #208	; 0xd0
102db3ac:	e8bd8070 	pop	{r4, r5, r6, pc}
102db3b0:	e3e00003 	mvn	r0, #3
102db3b4:	eafffffb 	b	102db3a8 <RIL_ToneDet_Get+0x94>
102db3b8:	f03d3940 	.word	0xf03d3940
102db3bc:	102e6774 	.word	0x102e6774
102db3c0:	f03d6720 	.word	0xf03d6720
102db3c4:	102e7f8c 	.word	0x102e7f8c
102db3c8:	102e6624 	.word	0x102e6624
102db3cc:	102db070 	.word	0x102db070
102db3d0:	102e6158 	.word	0x102e6158

102db3d4 <OnURCHandler_QToneDet>:
102db3d4:	e92d45f0 	push	{r4, r5, r6, r7, r8, sl, lr}
102db3d8:	e59f40c4 	ldr	r4, [pc, #196]	; 102db4a4 <OnURCHandler_QToneDet+0xd0>
102db3dc:	e24dd024 	sub	sp, sp, #36	; 0x24
102db3e0:	e5943008 	ldr	r3, [r4, #8]
102db3e4:	e1a05000 	mov	r5, r0
102db3e8:	e3530000 	cmp	r3, #0
102db3ec:	0a000009 	beq	102db418 <OnURCHandler_QToneDet+0x44>
102db3f0:	e59f10b0 	ldr	r1, [pc, #176]	; 102db4a8 <OnURCHandler_QToneDet+0xd4>
102db3f4:	e59f30b0 	ldr	r3, [pc, #176]	; 102db4ac <OnURCHandler_QToneDet+0xd8>
102db3f8:	e1a0000d 	mov	r0, sp
102db3fc:	e12fff33 	blx	r3
102db400:	e1a00005 	mov	r0, r5
102db404:	e1a0100d 	mov	r1, sp
102db408:	e59f30a0 	ldr	r3, [pc, #160]	; 102db4b0 <OnURCHandler_QToneDet+0xdc>
102db40c:	e12fff33 	blx	r3
102db410:	e3500000 	cmp	r0, #0
102db414:	1a000001 	bne	102db420 <OnURCHandler_QToneDet+0x4c>
102db418:	e28dd024 	add	sp, sp, #36	; 0x24
102db41c:	e8bd85f0 	pop	{r4, r5, r6, r7, r8, sl, pc}
102db420:	e59fa08c 	ldr	sl, [pc, #140]	; 102db4b4 <OnURCHandler_QToneDet+0xe0>
102db424:	e1a0200d 	mov	r2, sp
102db428:	e59a3000 	ldr	r3, [sl]
102db42c:	e59f1084 	ldr	r1, [pc, #132]	; 102db4b8 <OnURCHandler_QToneDet+0xe4>
102db430:	e1a00005 	mov	r0, r5
102db434:	e12fff33 	blx	r3
102db438:	e59f807c 	ldr	r8, [pc, #124]	; 102db4bc <OnURCHandler_QToneDet+0xe8>
102db43c:	e1a0000d 	mov	r0, sp
102db440:	e12fff38 	blx	r8
102db444:	e59f7074 	ldr	r7, [pc, #116]	; 102db4c0 <OnURCHandler_QToneDet+0xec>
102db448:	e12fff37 	blx	r7
102db44c:	e2403030 	sub	r3, r0, #48	; 0x30
102db450:	e3530016 	cmp	r3, #22
102db454:	e1a06000 	mov	r6, r0
102db458:	8affffee 	bhi	102db418 <OnURCHandler_QToneDet+0x44>
102db45c:	e2403045 	sub	r3, r0, #69	; 0x45
102db460:	e3530001 	cmp	r3, #1
102db464:	83e01000 	mvnhi	r1, #0
102db468:	9a000003 	bls	102db47c <OnURCHandler_QToneDet+0xa8>
102db46c:	e5943008 	ldr	r3, [r4, #8]
102db470:	e1a00006 	mov	r0, r6
102db474:	e12fff33 	blx	r3
102db478:	eaffffe6 	b	102db418 <OnURCHandler_QToneDet+0x44>
102db47c:	e1a0200d 	mov	r2, sp
102db480:	e59a3000 	ldr	r3, [sl]
102db484:	e59f1038 	ldr	r1, [pc, #56]	; 102db4c4 <OnURCHandler_QToneDet+0xf0>
102db488:	e1a00005 	mov	r0, r5
102db48c:	e12fff33 	blx	r3
102db490:	e1a0000d 	mov	r0, sp
102db494:	e12fff38 	blx	r8
102db498:	e12fff37 	blx	r7
102db49c:	e1a01000 	mov	r1, r0
102db4a0:	eafffff1 	b	102db46c <OnURCHandler_QToneDet+0x98>
102db4a4:	f03d3940 	.word	0xf03d3940
102db4a8:	102e72ac 	.word	0x102e72ac
102db4ac:	102e6474 	.word	0x102e6474
102db4b0:	102e1cc4 	.word	0x102e1cc4
102db4b4:	f03d672c 	.word	0xf03d672c
102db4b8:	102e7fa0 	.word	0x102e7fa0
102db4bc:	102e63dc 	.word	0x102e63dc
102db4c0:	102e54e0 	.word	0x102e54e0
102db4c4:	102e7fb0 	.word	0x102e7fb0

102db4c8 <RIL_WDTMF_Send>:
102db4c8:	e3500007 	cmp	r0, #7
102db4cc:	93510007 	cmpls	r1, #7
102db4d0:	e92d40f0 	push	{r4, r5, r6, r7, lr}
102db4d4:	e1a05000 	mov	r5, r0
102db4d8:	e24dd0d4 	sub	sp, sp, #212	; 0xd4
102db4dc:	e1a04001 	mov	r4, r1
102db4e0:	93a06000 	movls	r6, #0
102db4e4:	83a06001 	movhi	r6, #1
102db4e8:	e1a07002 	mov	r7, r2
102db4ec:	8a00001c 	bhi	102db564 <RIL_WDTMF_Send+0x9c>
102db4f0:	e3520000 	cmp	r2, #0
102db4f4:	0a00001a 	beq	102db564 <RIL_WDTMF_Send+0x9c>
102db4f8:	e59fc06c 	ldr	ip, [pc, #108]	; 102db56c <RIL_WDTMF_Send+0xa4>
102db4fc:	e1a01006 	mov	r1, r6
102db500:	e58c300c 	str	r3, [ip, #12]
102db504:	e3a020c8 	mov	r2, #200	; 0xc8
102db508:	e59f3060 	ldr	r3, [pc, #96]	; 102db570 <RIL_WDTMF_Send+0xa8>
102db50c:	e28d0008 	add	r0, sp, #8
102db510:	e12fff33 	blx	r3
102db514:	e59f0058 	ldr	r0, [pc, #88]	; 102db574 <RIL_WDTMF_Send+0xac>
102db518:	e59f1058 	ldr	r1, [pc, #88]	; 102db578 <RIL_WDTMF_Send+0xb0>
102db51c:	e1a02005 	mov	r2, r5
102db520:	e1a03004 	mov	r3, r4
102db524:	e58d7000 	str	r7, [sp]
102db528:	e590c000 	ldr	ip, [r0]
102db52c:	e28d0008 	add	r0, sp, #8
102db530:	e12fff3c 	blx	ip
102db534:	e59f3040 	ldr	r3, [pc, #64]	; 102db57c <RIL_WDTMF_Send+0xb4>
102db538:	e28d0008 	add	r0, sp, #8
102db53c:	e12fff33 	blx	r3
102db540:	e1a02006 	mov	r2, r6
102db544:	e58d6000 	str	r6, [sp]
102db548:	e1a03006 	mov	r3, r6
102db54c:	e59fc02c 	ldr	ip, [pc, #44]	; 102db580 <RIL_WDTMF_Send+0xb8>
102db550:	e1a01000 	mov	r1, r0
102db554:	e28d0008 	add	r0, sp, #8
102db558:	e12fff3c 	blx	ip
102db55c:	e28dd0d4 	add	sp, sp, #212	; 0xd4
102db560:	e8bd80f0 	pop	{r4, r5, r6, r7, pc}
102db564:	e3e00003 	mvn	r0, #3
102db568:	eafffffb 	b	102db55c <RIL_WDTMF_Send+0x94>
102db56c:	f03d3940 	.word	0xf03d3940
102db570:	102e6774 	.word	0x102e6774
102db574:	f03d6720 	.word	0xf03d6720
102db578:	102e7fc0 	.word	0x102e7fc0
102db57c:	102e6624 	.word	0x102e6624
102db580:	102e6158 	.word	0x102e6158

102db584 <OnURCHandler_QWDTMF>:
102db584:	e92d4030 	push	{r4, r5, lr}
102db588:	e59f4078 	ldr	r4, [pc, #120]	; 102db608 <OnURCHandler_QWDTMF+0x84>
102db58c:	e24dd024 	sub	sp, sp, #36	; 0x24
102db590:	e594300c 	ldr	r3, [r4, #12]
102db594:	e1a05000 	mov	r5, r0
102db598:	e3530000 	cmp	r3, #0
102db59c:	0a000009 	beq	102db5c8 <OnURCHandler_QWDTMF+0x44>
102db5a0:	e59f1064 	ldr	r1, [pc, #100]	; 102db60c <OnURCHandler_QWDTMF+0x88>
102db5a4:	e59f3064 	ldr	r3, [pc, #100]	; 102db610 <OnURCHandler_QWDTMF+0x8c>
102db5a8:	e1a0000d 	mov	r0, sp
102db5ac:	e12fff33 	blx	r3
102db5b0:	e1a00005 	mov	r0, r5
102db5b4:	e1a0100d 	mov	r1, sp
102db5b8:	e59f3054 	ldr	r3, [pc, #84]	; 102db614 <OnURCHandler_QWDTMF+0x90>
102db5bc:	e12fff33 	blx	r3
102db5c0:	e3500000 	cmp	r0, #0
102db5c4:	1a000001 	bne	102db5d0 <OnURCHandler_QWDTMF+0x4c>
102db5c8:	e28dd024 	add	sp, sp, #36	; 0x24
102db5cc:	e8bd8030 	pop	{r4, r5, pc}
102db5d0:	e59f3040 	ldr	r3, [pc, #64]	; 102db618 <OnURCHandler_QWDTMF+0x94>
102db5d4:	e1a0200d 	mov	r2, sp
102db5d8:	e59f103c 	ldr	r1, [pc, #60]	; 102db61c <OnURCHandler_QWDTMF+0x98>
102db5dc:	e5933000 	ldr	r3, [r3]
102db5e0:	e1a00005 	mov	r0, r5
102db5e4:	e12fff33 	blx	r3
102db5e8:	e1a0000d 	mov	r0, sp
102db5ec:	e59f302c 	ldr	r3, [pc, #44]	; 102db620 <OnURCHandler_QWDTMF+0x9c>
102db5f0:	e12fff33 	blx	r3
102db5f4:	e59f3028 	ldr	r3, [pc, #40]	; 102db624 <OnURCHandler_QWDTMF+0xa0>
102db5f8:	e12fff33 	blx	r3
102db5fc:	e594300c 	ldr	r3, [r4, #12]
102db600:	e12fff33 	blx	r3
102db604:	eaffffef 	b	102db5c8 <OnURCHandler_QWDTMF+0x44>
102db608:	f03d3940 	.word	0xf03d3940
102db60c:	102e72bc 	.word	0x102e72bc
102db610:	102e6474 	.word	0x102e6474
102db614:	102e1cc4 	.word	0x102e1cc4
102db618:	f03d672c 	.word	0xf03d672c
102db61c:	102e7fd8 	.word	0x102e7fd8
102db620:	102e63dc 	.word	0x102e63dc
102db624:	102e54e0 	.word	0x102e54e0

102db628 <Ql_RIL_AT_GetErrCode>:
102db628:	e59f3004 	ldr	r3, [pc, #4]	; 102db634 <Ql_RIL_AT_GetErrCode+0xc>
102db62c:	e5930000 	ldr	r0, [r3]
102db630:	e12fff1e 	bx	lr
102db634:	f03d3950 	.word	0xf03d3950

102db638 <Ql_RIL_AT_SetErrCode>:
102db638:	e59f2008 	ldr	r2, [pc, #8]	; 102db648 <Ql_RIL_AT_SetErrCode+0x10>
102db63c:	e5820000 	str	r0, [r2]
102db640:	e1a00003 	mov	r0, r3
102db644:	e12fff1e 	bx	lr
102db648:	f03d3950 	.word	0xf03d3950

102db64c <Default_atRsp_callback>:
102db64c:	e92d4070 	push	{r4, r5, r6, lr}
102db650:	e59f20a8 	ldr	r2, [pc, #168]	; 102db700 <Default_atRsp_callback+0xb4>
102db654:	e59f40a8 	ldr	r4, [pc, #168]	; 102db704 <Default_atRsp_callback+0xb8>
102db658:	e1a05000 	mov	r5, r0
102db65c:	e1a06001 	mov	r6, r1
102db660:	e12fff34 	blx	r4
102db664:	e3500000 	cmp	r0, #0
102db668:	0a000003 	beq	102db67c <Default_atRsp_callback+0x30>
102db66c:	e59f3094 	ldr	r3, [pc, #148]	; 102db708 <Default_atRsp_callback+0xbc>
102db670:	e3a00000 	mov	r0, #0
102db674:	e5830000 	str	r0, [r3]
102db678:	e8bd8070 	pop	{r4, r5, r6, pc}
102db67c:	e1a00005 	mov	r0, r5
102db680:	e1a01006 	mov	r1, r6
102db684:	e59f2080 	ldr	r2, [pc, #128]	; 102db70c <Default_atRsp_callback+0xc0>
102db688:	e12fff34 	blx	r4
102db68c:	e3500000 	cmp	r0, #0
102db690:	1a000016 	bne	102db6f0 <Default_atRsp_callback+0xa4>
102db694:	e1a00005 	mov	r0, r5
102db698:	e1a01006 	mov	r1, r6
102db69c:	e59f206c 	ldr	r2, [pc, #108]	; 102db710 <Default_atRsp_callback+0xc4>
102db6a0:	e59f406c 	ldr	r4, [pc, #108]	; 102db714 <Default_atRsp_callback+0xc8>
102db6a4:	e12fff34 	blx	r4
102db6a8:	e3500000 	cmp	r0, #0
102db6ac:	1a000007 	bne	102db6d0 <Default_atRsp_callback+0x84>
102db6b0:	e1a00005 	mov	r0, r5
102db6b4:	e1a01006 	mov	r1, r6
102db6b8:	e59f2058 	ldr	r2, [pc, #88]	; 102db718 <Default_atRsp_callback+0xcc>
102db6bc:	e12fff34 	blx	r4
102db6c0:	e3500000 	cmp	r0, #0
102db6c4:	1a000001 	bne	102db6d0 <Default_atRsp_callback+0x84>
102db6c8:	e3a00001 	mov	r0, #1
102db6cc:	e8bd8070 	pop	{r4, r5, r6, pc}
102db6d0:	e59f3044 	ldr	r3, [pc, #68]	; 102db71c <Default_atRsp_callback+0xd0>
102db6d4:	e1a00005 	mov	r0, r5
102db6d8:	e5933000 	ldr	r3, [r3]
102db6dc:	e59f103c 	ldr	r1, [pc, #60]	; 102db720 <Default_atRsp_callback+0xd4>
102db6e0:	e59f2020 	ldr	r2, [pc, #32]	; 102db708 <Default_atRsp_callback+0xbc>
102db6e4:	e12fff33 	blx	r3
102db6e8:	e3e00000 	mvn	r0, #0
102db6ec:	e8bd8070 	pop	{r4, r5, r6, pc}
102db6f0:	e59f3010 	ldr	r3, [pc, #16]	; 102db708 <Default_atRsp_callback+0xbc>
102db6f4:	e3e00000 	mvn	r0, #0
102db6f8:	e5830000 	str	r0, [r3]
102db6fc:	e8bd8070 	pop	{r4, r5, r6, pc}
102db700:	102e87c4 	.word	0x102e87c4
102db704:	102e1e90 	.word	0x102e1e90
102db708:	f03d3950 	.word	0xf03d3950
102db70c:	102e7f30 	.word	0x102e7f30
102db710:	102e7fe8 	.word	0x102e7fe8
102db714:	102e1e04 	.word	0x102e1e04
102db718:	102e7f44 	.word	0x102e7f44
102db71c:	f03d672c 	.word	0xf03d672c
102db720:	102e7ff4 	.word	0x102e7ff4

102db724 <AtRsp_QBTCONND_Hdlr>:
102db724:	e92d4008 	push	{r3, lr}
102db728:	e59f2010 	ldr	r2, [pc, #16]	; 102db740 <AtRsp_QBTCONND_Hdlr+0x1c>
102db72c:	e59f3010 	ldr	r3, [pc, #16]	; 102db744 <AtRsp_QBTCONND_Hdlr+0x20>
102db730:	e12fff33 	blx	r3
102db734:	e2700001 	rsbs	r0, r0, #1
102db738:	33a00000 	movcc	r0, #0
102db73c:	e8bd8008 	pop	{r3, pc}
102db740:	102e87c4 	.word	0x102e87c4
102db744:	102e1e90 	.word	0x102e1e90

102db748 <BT_DevMngmt_Clean>:
102db748:	e92d40f8 	push	{r3, r4, r5, r6, r7, lr}
102db74c:	e59f4028 	ldr	r4, [pc, #40]	; 102db77c <BT_DevMngmt_Clean+0x34>
102db750:	e59f7028 	ldr	r7, [pc, #40]	; 102db780 <BT_DevMngmt_Clean+0x38>
102db754:	e2845078 	add	r5, r4, #120	; 0x78
102db758:	e3a06000 	mov	r6, #0
102db75c:	e4940004 	ldr	r0, [r4], #4
102db760:	e3500000 	cmp	r0, #0
102db764:	0a000001 	beq	102db770 <BT_DevMngmt_Clean+0x28>
102db768:	e12fff37 	blx	r7
102db76c:	e5046004 	str	r6, [r4, #-4]
102db770:	e1540005 	cmp	r4, r5
102db774:	1afffff8 	bne	102db75c <BT_DevMngmt_Clean+0x14>
102db778:	e8bd80f8 	pop	{r3, r4, r5, r6, r7, pc}
102db77c:	f03d3958 	.word	0xf03d3958
102db780:	102e57a8 	.word	0x102e57a8

102db784 <ATRsp_QBTSTATE_Hdlr>:
102db784:	e92d4ff0 	push	{r4, r5, r6, r7, r8, r9, sl, fp, lr}
102db788:	e1a06002 	mov	r6, r2
102db78c:	e24dd03c 	sub	sp, sp, #60	; 0x3c
102db790:	e59f54c8 	ldr	r5, [pc, #1224]	; 102dbc60 <ATRsp_QBTSTATE_Hdlr+0x4dc>
102db794:	e59f24c8 	ldr	r2, [pc, #1224]	; 102dbc64 <ATRsp_QBTSTATE_Hdlr+0x4e0>
102db798:	e1a09000 	mov	r9, r0
102db79c:	e1a07001 	mov	r7, r1
102db7a0:	e12fff35 	blx	r5
102db7a4:	e3e04000 	mvn	r4, #0
102db7a8:	e3a03000 	mov	r3, #0
102db7ac:	e58d3010 	str	r3, [sp, #16]
102db7b0:	e58d3014 	str	r3, [sp, #20]
102db7b4:	e58d3018 	str	r3, [sp, #24]
102db7b8:	e58d301c 	str	r3, [sp, #28]
102db7bc:	e58d3020 	str	r3, [sp, #32]
102db7c0:	e58d3024 	str	r3, [sp, #36]	; 0x24
102db7c4:	e58d3028 	str	r3, [sp, #40]	; 0x28
102db7c8:	e58d302c 	str	r3, [sp, #44]	; 0x2c
102db7cc:	e58d3030 	str	r3, [sp, #48]	; 0x30
102db7d0:	e58d3034 	str	r3, [sp, #52]	; 0x34
102db7d4:	e58d400c 	str	r4, [sp, #12]
102db7d8:	e2508000 	subs	r8, r0, #0
102db7dc:	0a0000e3 	beq	102dbb70 <ATRsp_QBTSTATE_Hdlr+0x3ec>
102db7e0:	e59f5480 	ldr	r5, [pc, #1152]	; 102dbc68 <ATRsp_QBTSTATE_Hdlr+0x4e4>
102db7e4:	e5d53000 	ldrb	r3, [r5]
102db7e8:	e3530000 	cmp	r3, #0
102db7ec:	0a000010 	beq	102db834 <ATRsp_QBTSTATE_Hdlr+0xb0>
102db7f0:	e3560000 	cmp	r6, #0
102db7f4:	0a000005 	beq	102db810 <ATRsp_QBTSTATE_Hdlr+0x8c>
102db7f8:	e59f346c 	ldr	r3, [pc, #1132]	; 102dbc6c <ATRsp_QBTSTATE_Hdlr+0x4e8>
102db7fc:	e59f146c 	ldr	r1, [pc, #1132]	; 102dbc70 <ATRsp_QBTSTATE_Hdlr+0x4ec>
102db800:	e5933000 	ldr	r3, [r3]
102db804:	e1a02006 	mov	r2, r6
102db808:	e12fff33 	blx	r3
102db80c:	e59d400c 	ldr	r4, [sp, #12]
102db810:	e3a03000 	mov	r3, #0
102db814:	e3540000 	cmp	r4, #0
102db818:	e5c53000 	strb	r3, [r5]
102db81c:	0a00000c 	beq	102db854 <ATRsp_QBTSTATE_Hdlr+0xd0>
102db820:	e3540001 	cmp	r4, #1
102db824:	0a00004d 	beq	102db960 <ATRsp_QBTSTATE_Hdlr+0x1dc>
102db828:	e3a00001 	mov	r0, #1
102db82c:	e28dd03c 	add	sp, sp, #60	; 0x3c
102db830:	e8bd8ff0 	pop	{r4, r5, r6, r7, r8, r9, sl, fp, pc}
102db834:	e59f3430 	ldr	r3, [pc, #1072]	; 102dbc6c <ATRsp_QBTSTATE_Hdlr+0x4e8>
102db838:	e59f1434 	ldr	r1, [pc, #1076]	; 102dbc74 <ATRsp_QBTSTATE_Hdlr+0x4f0>
102db83c:	e5933000 	ldr	r3, [r3]
102db840:	e28d200c 	add	r2, sp, #12
102db844:	e12fff33 	blx	r3
102db848:	e59d400c 	ldr	r4, [sp, #12]
102db84c:	e3540000 	cmp	r4, #0
102db850:	1afffff2 	bne	102db820 <ATRsp_QBTSTATE_Hdlr+0x9c>
102db854:	e59f341c 	ldr	r3, [pc, #1052]	; 102dbc78 <ATRsp_QBTSTATE_Hdlr+0x4f4>
102db858:	e3a00060 	mov	r0, #96	; 0x60
102db85c:	e12fff33 	blx	r3
102db860:	e59f7404 	ldr	r7, [pc, #1028]	; 102dbc6c <ATRsp_QBTSTATE_Hdlr+0x4e8>
102db864:	e1a01004 	mov	r1, r4
102db868:	e3a02060 	mov	r2, #96	; 0x60
102db86c:	e59f8408 	ldr	r8, [pc, #1032]	; 102dbc7c <ATRsp_QBTSTATE_Hdlr+0x4f8>
102db870:	e1a06000 	mov	r6, r0
102db874:	e12fff38 	blx	r8
102db878:	e3e03000 	mvn	r3, #0
102db87c:	e59f13fc 	ldr	r1, [pc, #1020]	; 102dbc80 <ATRsp_QBTSTATE_Hdlr+0x4fc>
102db880:	e2862050 	add	r2, r6, #80	; 0x50
102db884:	e5863050 	str	r3, [r6, #80]	; 0x50
102db888:	e5863054 	str	r3, [r6, #84]	; 0x54
102db88c:	e5863058 	str	r3, [r6, #88]	; 0x58
102db890:	e1a00009 	mov	r0, r9
102db894:	e5973000 	ldr	r3, [r7]
102db898:	e286a004 	add	sl, r6, #4
102db89c:	e12fff33 	blx	r3
102db8a0:	e286503c 	add	r5, r6, #60	; 0x3c
102db8a4:	e59f13d8 	ldr	r1, [pc, #984]	; 102dbc84 <ATRsp_QBTSTATE_Hdlr+0x500>
102db8a8:	e1a0200a 	mov	r2, sl
102db8ac:	e5973000 	ldr	r3, [r7]
102db8b0:	e1a00009 	mov	r0, r9
102db8b4:	e12fff33 	blx	r3
102db8b8:	e1a02005 	mov	r2, r5
102db8bc:	e59f13c4 	ldr	r1, [pc, #964]	; 102dbc88 <ATRsp_QBTSTATE_Hdlr+0x504>
102db8c0:	e5973000 	ldr	r3, [r7]
102db8c4:	e1a00009 	mov	r0, r9
102db8c8:	e12fff33 	blx	r3
102db8cc:	e1a00005 	mov	r0, r5
102db8d0:	e59f33b4 	ldr	r3, [pc, #948]	; 102dbc8c <ATRsp_QBTSTATE_Hdlr+0x508>
102db8d4:	e12fff33 	blx	r3
102db8d8:	e59f33b0 	ldr	r3, [pc, #944]	; 102dbc90 <ATRsp_QBTSTATE_Hdlr+0x50c>
102db8dc:	e1a01000 	mov	r1, r0
102db8e0:	e1a00005 	mov	r0, r5
102db8e4:	e12fff33 	blx	r3
102db8e8:	e59f33a4 	ldr	r3, [pc, #932]	; 102dbc94 <ATRsp_QBTSTATE_Hdlr+0x510>
102db8ec:	e5969050 	ldr	r9, [r6, #80]	; 0x50
102db8f0:	e1a05003 	mov	r5, r3
102db8f4:	e5860000 	str	r0, [r6]
102db8f8:	ea000002 	b	102db908 <ATRsp_QBTSTATE_Hdlr+0x184>
102db8fc:	e2844001 	add	r4, r4, #1
102db900:	e354001e 	cmp	r4, #30
102db904:	0a000078 	beq	102dbaec <ATRsp_QBTSTATE_Hdlr+0x368>
102db908:	e5b5c004 	ldr	ip, [r5, #4]!
102db90c:	e35c0000 	cmp	ip, #0
102db910:	0afffff9 	beq	102db8fc <ATRsp_QBTSTATE_Hdlr+0x178>
102db914:	e59c7000 	ldr	r7, [ip]
102db918:	e1500007 	cmp	r0, r7
102db91c:	1afffff6 	bne	102db8fc <ATRsp_QBTSTATE_Hdlr+0x178>
102db920:	e3a02038 	mov	r2, #56	; 0x38
102db924:	e58c9050 	str	r9, [ip, #80]	; 0x50
102db928:	e28c0004 	add	r0, ip, #4
102db92c:	e3a01000 	mov	r1, #0
102db930:	e12fff38 	blx	r8
102db934:	e59f335c 	ldr	r3, [pc, #860]	; 102dbc98 <ATRsp_QBTSTATE_Hdlr+0x514>
102db938:	e1a0100a 	mov	r1, sl
102db93c:	e7930104 	ldr	r0, [r3, r4, lsl #2]
102db940:	e59f3354 	ldr	r3, [pc, #852]	; 102dbc9c <ATRsp_QBTSTATE_Hdlr+0x518>
102db944:	e2800004 	add	r0, r0, #4
102db948:	e12fff33 	blx	r3
102db94c:	e1a00006 	mov	r0, r6
102db950:	e59f3348 	ldr	r3, [pc, #840]	; 102dbca0 <ATRsp_QBTSTATE_Hdlr+0x51c>
102db954:	e12fff33 	blx	r3
102db958:	e3a00001 	mov	r0, #1
102db95c:	eaffffb2 	b	102db82c <ATRsp_QBTSTATE_Hdlr+0xa8>
102db960:	e59f3310 	ldr	r3, [pc, #784]	; 102dbc78 <ATRsp_QBTSTATE_Hdlr+0x4f4>
102db964:	e3a00060 	mov	r0, #96	; 0x60
102db968:	e12fff33 	blx	r3
102db96c:	e59f42f8 	ldr	r4, [pc, #760]	; 102dbc6c <ATRsp_QBTSTATE_Hdlr+0x4e8>
102db970:	e3a01000 	mov	r1, #0
102db974:	e3a02060 	mov	r2, #96	; 0x60
102db978:	e59f82fc 	ldr	r8, [pc, #764]	; 102dbc7c <ATRsp_QBTSTATE_Hdlr+0x4f8>
102db97c:	e59fb320 	ldr	fp, [pc, #800]	; 102dbca4 <ATRsp_QBTSTATE_Hdlr+0x520>
102db980:	e59f6304 	ldr	r6, [pc, #772]	; 102dbc8c <ATRsp_QBTSTATE_Hdlr+0x508>
102db984:	e59fa31c 	ldr	sl, [pc, #796]	; 102dbca8 <ATRsp_QBTSTATE_Hdlr+0x524>
102db988:	e1a05000 	mov	r5, r0
102db98c:	e12fff38 	blx	r8
102db990:	e3e03000 	mvn	r3, #0
102db994:	e285c004 	add	ip, r5, #4
102db998:	e59f12e0 	ldr	r1, [pc, #736]	; 102dbc80 <ATRsp_QBTSTATE_Hdlr+0x4fc>
102db99c:	e2852054 	add	r2, r5, #84	; 0x54
102db9a0:	e5853050 	str	r3, [r5, #80]	; 0x50
102db9a4:	e5853054 	str	r3, [r5, #84]	; 0x54
102db9a8:	e5853058 	str	r3, [r5, #88]	; 0x58
102db9ac:	e1a00009 	mov	r0, r9
102db9b0:	e5943000 	ldr	r3, [r4]
102db9b4:	e58dc004 	str	ip, [sp, #4]
102db9b8:	e12fff33 	blx	r3
102db9bc:	e285303c 	add	r3, r5, #60	; 0x3c
102db9c0:	e58d3000 	str	r3, [sp]
102db9c4:	e59f12b8 	ldr	r1, [pc, #696]	; 102dbc84 <ATRsp_QBTSTATE_Hdlr+0x500>
102db9c8:	e5943000 	ldr	r3, [r4]
102db9cc:	e59d2004 	ldr	r2, [sp, #4]
102db9d0:	e1a00009 	mov	r0, r9
102db9d4:	e12fff33 	blx	r3
102db9d8:	e5943000 	ldr	r3, [r4]
102db9dc:	e59f12c8 	ldr	r1, [pc, #712]	; 102dbcac <ATRsp_QBTSTATE_Hdlr+0x528>
102db9e0:	e59d2000 	ldr	r2, [sp]
102db9e4:	e1a00009 	mov	r0, r9
102db9e8:	e12fff33 	blx	r3
102db9ec:	e5943000 	ldr	r3, [r4]
102db9f0:	e1a00009 	mov	r0, r9
102db9f4:	e59f12b4 	ldr	r1, [pc, #692]	; 102dbcb0 <ATRsp_QBTSTATE_Hdlr+0x52c>
102db9f8:	e28d2010 	add	r2, sp, #16
102db9fc:	e3a04000 	mov	r4, #0
102dba00:	e12fff33 	blx	r3
102dba04:	e59f92a8 	ldr	r9, [pc, #680]	; 102dbcb4 <ATRsp_QBTSTATE_Hdlr+0x530>
102dba08:	e1a07004 	mov	r7, r4
102dba0c:	ea000004 	b	102dba24 <ATRsp_QBTSTATE_Hdlr+0x2a0>
102dba10:	e1a04823 	lsr	r4, r3, #16
102dba14:	e799b104 	ldr	fp, [r9, r4, lsl #2]
102dba18:	e1a07004 	mov	r7, r4
102dba1c:	e35b0000 	cmp	fp, #0
102dba20:	0a00005e 	beq	102dbba0 <ATRsp_QBTSTATE_Hdlr+0x41c>
102dba24:	e28d0010 	add	r0, sp, #16
102dba28:	e12fff36 	blx	r6
102dba2c:	e1a0100b 	mov	r1, fp
102dba30:	e1a02000 	mov	r2, r0
102dba34:	e28d0010 	add	r0, sp, #16
102dba38:	e12fff3a 	blx	sl
102dba3c:	e2873001 	add	r3, r7, #1
102dba40:	e1a03803 	lsl	r3, r3, #16
102dba44:	e3500000 	cmp	r0, #0
102dba48:	1afffff0 	bne	102dba10 <ATRsp_QBTSTATE_Hdlr+0x28c>
102dba4c:	e5854058 	str	r4, [r5, #88]	; 0x58
102dba50:	e59d0000 	ldr	r0, [sp]
102dba54:	e12fff36 	blx	r6
102dba58:	e59f3230 	ldr	r3, [pc, #560]	; 102dbc90 <ATRsp_QBTSTATE_Hdlr+0x50c>
102dba5c:	e3a04000 	mov	r4, #0
102dba60:	e1a01000 	mov	r1, r0
102dba64:	e59d0000 	ldr	r0, [sp]
102dba68:	e12fff33 	blx	r3
102dba6c:	e59f3220 	ldr	r3, [pc, #544]	; 102dbc94 <ATRsp_QBTSTATE_Hdlr+0x510>
102dba70:	e595a054 	ldr	sl, [r5, #84]	; 0x54
102dba74:	e5956058 	ldr	r6, [r5, #88]	; 0x58
102dba78:	e1a02003 	mov	r2, r3
102dba7c:	e5850000 	str	r0, [r5]
102dba80:	ea000002 	b	102dba90 <ATRsp_QBTSTATE_Hdlr+0x30c>
102dba84:	e2844001 	add	r4, r4, #1
102dba88:	e354001e 	cmp	r4, #30
102dba8c:	0a000045 	beq	102dbba8 <ATRsp_QBTSTATE_Hdlr+0x424>
102dba90:	e5b2c004 	ldr	ip, [r2, #4]!
102dba94:	e35c0000 	cmp	ip, #0
102dba98:	0afffff9 	beq	102dba84 <ATRsp_QBTSTATE_Hdlr+0x300>
102dba9c:	e59c1000 	ldr	r1, [ip]
102dbaa0:	e1500001 	cmp	r0, r1
102dbaa4:	1afffff6 	bne	102dba84 <ATRsp_QBTSTATE_Hdlr+0x300>
102dbaa8:	e3a02038 	mov	r2, #56	; 0x38
102dbaac:	e58ca054 	str	sl, [ip, #84]	; 0x54
102dbab0:	e58c6058 	str	r6, [ip, #88]	; 0x58
102dbab4:	e28c0004 	add	r0, ip, #4
102dbab8:	e3a01000 	mov	r1, #0
102dbabc:	e12fff38 	blx	r8
102dbac0:	e59f31d0 	ldr	r3, [pc, #464]	; 102dbc98 <ATRsp_QBTSTATE_Hdlr+0x514>
102dbac4:	e59d1004 	ldr	r1, [sp, #4]
102dbac8:	e7930104 	ldr	r0, [r3, r4, lsl #2]
102dbacc:	e59f31c8 	ldr	r3, [pc, #456]	; 102dbc9c <ATRsp_QBTSTATE_Hdlr+0x518>
102dbad0:	e2800004 	add	r0, r0, #4
102dbad4:	e12fff33 	blx	r3
102dbad8:	e1a00005 	mov	r0, r5
102dbadc:	e59f31bc 	ldr	r3, [pc, #444]	; 102dbca0 <ATRsp_QBTSTATE_Hdlr+0x51c>
102dbae0:	e12fff33 	blx	r3
102dbae4:	e3a00001 	mov	r0, #1
102dbae8:	eaffff4f 	b	102db82c <ATRsp_QBTSTATE_Hdlr+0xa8>
102dbaec:	e59f41a4 	ldr	r4, [pc, #420]	; 102dbc98 <ATRsp_QBTSTATE_Hdlr+0x514>
102dbaf0:	e3a0c000 	mov	ip, #0
102dbaf4:	e1a05004 	mov	r5, r4
102dbaf8:	e2840074 	add	r0, r4, #116	; 0x74
102dbafc:	e5b32004 	ldr	r2, [r3, #4]!
102dbb00:	e28c1001 	add	r1, ip, #1
102dbb04:	e3520000 	cmp	r2, #0
102dbb08:	e1a01801 	lsl	r1, r1, #16
102dbb0c:	11a0c821 	lsrne	ip, r1, #16
102dbb10:	e1530000 	cmp	r3, r0
102dbb14:	1afffff8 	bne	102dbafc <ATRsp_QBTSTATE_Hdlr+0x378>
102dbb18:	e35c001d 	cmp	ip, #29
102dbb1c:	9a000004 	bls	102dbb34 <ATRsp_QBTSTATE_Hdlr+0x3b0>
102dbb20:	e1a00006 	mov	r0, r6
102dbb24:	e59f3174 	ldr	r3, [pc, #372]	; 102dbca0 <ATRsp_QBTSTATE_Hdlr+0x51c>
102dbb28:	e12fff33 	blx	r3
102dbb2c:	e3a00001 	mov	r0, #1
102dbb30:	eaffff3d 	b	102db82c <ATRsp_QBTSTATE_Hdlr+0xa8>
102dbb34:	e5941000 	ldr	r1, [r4]
102dbb38:	e3510000 	cmp	r1, #0
102dbb3c:	0a000008 	beq	102dbb64 <ATRsp_QBTSTATE_Hdlr+0x3e0>
102dbb40:	e3a03001 	mov	r3, #1
102dbb44:	ea000001 	b	102dbb50 <ATRsp_QBTSTATE_Hdlr+0x3cc>
102dbb48:	e353001e 	cmp	r3, #30
102dbb4c:	0affff35 	beq	102db828 <ATRsp_QBTSTATE_Hdlr+0xa4>
102dbb50:	e5b52004 	ldr	r2, [r5, #4]!
102dbb54:	e1a01003 	mov	r1, r3
102dbb58:	e3520000 	cmp	r2, #0
102dbb5c:	e2833001 	add	r3, r3, #1
102dbb60:	1afffff8 	bne	102dbb48 <ATRsp_QBTSTATE_Hdlr+0x3c4>
102dbb64:	e7846101 	str	r6, [r4, r1, lsl #2]
102dbb68:	e3a00001 	mov	r0, #1
102dbb6c:	eaffff2e 	b	102db82c <ATRsp_QBTSTATE_Hdlr+0xa8>
102dbb70:	e1a00009 	mov	r0, r9
102dbb74:	e1a01007 	mov	r1, r7
102dbb78:	e59f2138 	ldr	r2, [pc, #312]	; 102dbcb8 <ATRsp_QBTSTATE_Hdlr+0x534>
102dbb7c:	e59f4138 	ldr	r4, [pc, #312]	; 102dbcbc <ATRsp_QBTSTATE_Hdlr+0x538>
102dbb80:	e12fff34 	blx	r4
102dbb84:	e3500000 	cmp	r0, #0
102dbb88:	0a000026 	beq	102dbc28 <ATRsp_QBTSTATE_Hdlr+0x4a4>
102dbb8c:	e59f30d4 	ldr	r3, [pc, #212]	; 102dbc68 <ATRsp_QBTSTATE_Hdlr+0x4e4>
102dbb90:	e3a02001 	mov	r2, #1
102dbb94:	e5c32000 	strb	r2, [r3]
102dbb98:	e1a00008 	mov	r0, r8
102dbb9c:	eaffff22 	b	102db82c <ATRsp_QBTSTATE_Hdlr+0xa8>
102dbba0:	e3e04000 	mvn	r4, #0
102dbba4:	eaffffa8 	b	102dba4c <ATRsp_QBTSTATE_Hdlr+0x2c8>
102dbba8:	e59f40e8 	ldr	r4, [pc, #232]	; 102dbc98 <ATRsp_QBTSTATE_Hdlr+0x514>
102dbbac:	e3a0c000 	mov	ip, #0
102dbbb0:	e1a06004 	mov	r6, r4
102dbbb4:	e2840074 	add	r0, r4, #116	; 0x74
102dbbb8:	e5b32004 	ldr	r2, [r3, #4]!
102dbbbc:	e28c1001 	add	r1, ip, #1
102dbbc0:	e3520000 	cmp	r2, #0
102dbbc4:	e1a01801 	lsl	r1, r1, #16
102dbbc8:	11a0c821 	lsrne	ip, r1, #16
102dbbcc:	e1530000 	cmp	r3, r0
102dbbd0:	1afffff8 	bne	102dbbb8 <ATRsp_QBTSTATE_Hdlr+0x434>
102dbbd4:	e35c001d 	cmp	ip, #29
102dbbd8:	9a000003 	bls	102dbbec <ATRsp_QBTSTATE_Hdlr+0x468>
102dbbdc:	e1a00005 	mov	r0, r5
102dbbe0:	e59f30b8 	ldr	r3, [pc, #184]	; 102dbca0 <ATRsp_QBTSTATE_Hdlr+0x51c>
102dbbe4:	e12fff33 	blx	r3
102dbbe8:	eaffff0e 	b	102db828 <ATRsp_QBTSTATE_Hdlr+0xa4>
102dbbec:	e5941000 	ldr	r1, [r4]
102dbbf0:	e3510000 	cmp	r1, #0
102dbbf4:	0a000008 	beq	102dbc1c <ATRsp_QBTSTATE_Hdlr+0x498>
102dbbf8:	e3a03001 	mov	r3, #1
102dbbfc:	ea000001 	b	102dbc08 <ATRsp_QBTSTATE_Hdlr+0x484>
102dbc00:	e353001e 	cmp	r3, #30
102dbc04:	0affff07 	beq	102db828 <ATRsp_QBTSTATE_Hdlr+0xa4>
102dbc08:	e5b62004 	ldr	r2, [r6, #4]!
102dbc0c:	e1a01003 	mov	r1, r3
102dbc10:	e3520000 	cmp	r2, #0
102dbc14:	e2833001 	add	r3, r3, #1
102dbc18:	1afffff8 	bne	102dbc00 <ATRsp_QBTSTATE_Hdlr+0x47c>
102dbc1c:	e7845101 	str	r5, [r4, r1, lsl #2]
102dbc20:	e3a00001 	mov	r0, #1
102dbc24:	eaffff00 	b	102db82c <ATRsp_QBTSTATE_Hdlr+0xa8>
102dbc28:	e1a00009 	mov	r0, r9
102dbc2c:	e1a01007 	mov	r1, r7
102dbc30:	e59f2088 	ldr	r2, [pc, #136]	; 102dbcc0 <ATRsp_QBTSTATE_Hdlr+0x53c>
102dbc34:	e12fff34 	blx	r4
102dbc38:	e3500000 	cmp	r0, #0
102dbc3c:	1a000005 	bne	102dbc58 <ATRsp_QBTSTATE_Hdlr+0x4d4>
102dbc40:	e1a00009 	mov	r0, r9
102dbc44:	e1a01007 	mov	r1, r7
102dbc48:	e59f2074 	ldr	r2, [pc, #116]	; 102dbcc4 <ATRsp_QBTSTATE_Hdlr+0x540>
102dbc4c:	e12fff35 	blx	r5
102dbc50:	e3500000 	cmp	r0, #0
102dbc54:	0afffef3 	beq	102db828 <ATRsp_QBTSTATE_Hdlr+0xa4>
102dbc58:	e3e00000 	mvn	r0, #0
102dbc5c:	eafffef2 	b	102db82c <ATRsp_QBTSTATE_Hdlr+0xa8>
102dbc60:	102e1e04 	.word	0x102e1e04
102dbc64:	102e8008 	.word	0x102e8008
102dbc68:	f03d2000 	.word	0xf03d2000
102dbc6c:	f03d672c 	.word	0xf03d672c
102dbc70:	102e7ff4 	.word	0x102e7ff4
102dbc74:	102e8014 	.word	0x102e8014
102dbc78:	102e5730 	.word	0x102e5730
102dbc7c:	102e6774 	.word	0x102e6774
102dbc80:	102e8028 	.word	0x102e8028
102dbc84:	102e803c 	.word	0x102e803c
102dbc88:	102e8054 	.word	0x102e8054
102dbc8c:	102e6624 	.word	0x102e6624
102dbc90:	102e2110 	.word	0x102e2110
102dbc94:	f03d3954 	.word	0xf03d3954
102dbc98:	f03d3958 	.word	0xf03d3958
102dbc9c:	102e6474 	.word	0x102e6474
102dbca0:	102e57a8 	.word	0x102e57a8
102dbca4:	102e8004 	.word	0x102e8004
102dbca8:	102e6704 	.word	0x102e6704
102dbcac:	102e806c 	.word	0x102e806c
102dbcb0:	102e808c 	.word	0x102e808c
102dbcb4:	102e72c8 	.word	0x102e72c8
102dbcb8:	102e87c4 	.word	0x102e87c4
102dbcbc:	102e1e90 	.word	0x102e1e90
102dbcc0:	102e7f30 	.word	0x102e7f30
102dbcc4:	102e7fe8 	.word	0x102e7fe8

102dbcc8 <ATRsp_QBTSPPREAD_Hdlr>:
102dbcc8:	e92d41f0 	push	{r4, r5, r6, r7, r8, lr}
102dbccc:	e59f40e4 	ldr	r4, [pc, #228]	; 102dbdb8 <ATRsp_QBTSPPREAD_Hdlr+0xf0>
102dbcd0:	e1a05000 	mov	r5, r0
102dbcd4:	e5d43078 	ldrb	r3, [r4, #120]	; 0x78
102dbcd8:	e1a07001 	mov	r7, r1
102dbcdc:	e3530000 	cmp	r3, #0
102dbce0:	e1a06002 	mov	r6, r2
102dbce4:	0a00000b 	beq	102dbd18 <ATRsp_QBTSPPREAD_Hdlr+0x50>
102dbce8:	e59f30cc 	ldr	r3, [pc, #204]	; 102dbdbc <ATRsp_QBTSPPREAD_Hdlr+0xf4>
102dbcec:	e594007c 	ldr	r0, [r4, #124]	; 0x7c
102dbcf0:	e1a01005 	mov	r1, r5
102dbcf4:	e5942080 	ldr	r2, [r4, #128]	; 0x80
102dbcf8:	e12fff33 	blx	r3
102dbcfc:	e3560000 	cmp	r6, #0
102dbd00:	15943080 	ldrne	r3, [r4, #128]	; 0x80
102dbd04:	e3a00001 	mov	r0, #1
102dbd08:	15863000 	strne	r3, [r6]
102dbd0c:	e3a03000 	mov	r3, #0
102dbd10:	e5c43078 	strb	r3, [r4, #120]	; 0x78
102dbd14:	e8bd81f0 	pop	{r4, r5, r6, r7, r8, pc}
102dbd18:	e59f20a0 	ldr	r2, [pc, #160]	; 102dbdc0 <ATRsp_QBTSPPREAD_Hdlr+0xf8>
102dbd1c:	e59f60a0 	ldr	r6, [pc, #160]	; 102dbdc4 <ATRsp_QBTSPPREAD_Hdlr+0xfc>
102dbd20:	e12fff36 	blx	r6
102dbd24:	e2508000 	subs	r8, r0, #0
102dbd28:	e1a00005 	mov	r0, r5
102dbd2c:	0a00000b 	beq	102dbd60 <ATRsp_QBTSPPREAD_Hdlr+0x98>
102dbd30:	e59f3090 	ldr	r3, [pc, #144]	; 102dbdc8 <ATRsp_QBTSPPREAD_Hdlr+0x100>
102dbd34:	e59f1090 	ldr	r1, [pc, #144]	; 102dbdcc <ATRsp_QBTSPPREAD_Hdlr+0x104>
102dbd38:	e5933000 	ldr	r3, [r3]
102dbd3c:	e2842080 	add	r2, r4, #128	; 0x80
102dbd40:	e12fff33 	blx	r3
102dbd44:	e5943080 	ldr	r3, [r4, #128]	; 0x80
102dbd48:	e3530000 	cmp	r3, #0
102dbd4c:	13a00001 	movne	r0, #1
102dbd50:	05c43078 	strbeq	r3, [r4, #120]	; 0x78
102dbd54:	03a00001 	moveq	r0, #1
102dbd58:	15c40078 	strbne	r0, [r4, #120]	; 0x78
102dbd5c:	e8bd81f0 	pop	{r4, r5, r6, r7, r8, pc}
102dbd60:	e1a01007 	mov	r1, r7
102dbd64:	e59f2064 	ldr	r2, [pc, #100]	; 102dbdd0 <ATRsp_QBTSPPREAD_Hdlr+0x108>
102dbd68:	e59f4064 	ldr	r4, [pc, #100]	; 102dbdd4 <ATRsp_QBTSPPREAD_Hdlr+0x10c>
102dbd6c:	e12fff34 	blx	r4
102dbd70:	e3500000 	cmp	r0, #0
102dbd74:	0a000001 	beq	102dbd80 <ATRsp_QBTSPPREAD_Hdlr+0xb8>
102dbd78:	e1a00008 	mov	r0, r8
102dbd7c:	e8bd81f0 	pop	{r4, r5, r6, r7, r8, pc}
102dbd80:	e1a00005 	mov	r0, r5
102dbd84:	e1a01007 	mov	r1, r7
102dbd88:	e59f2048 	ldr	r2, [pc, #72]	; 102dbdd8 <ATRsp_QBTSPPREAD_Hdlr+0x110>
102dbd8c:	e12fff34 	blx	r4
102dbd90:	e3500000 	cmp	r0, #0
102dbd94:	0a000001 	beq	102dbda0 <ATRsp_QBTSPPREAD_Hdlr+0xd8>
102dbd98:	e3e00000 	mvn	r0, #0
102dbd9c:	e8bd81f0 	pop	{r4, r5, r6, r7, r8, pc}
102dbda0:	e1a00005 	mov	r0, r5
102dbda4:	e1a01007 	mov	r1, r7
102dbda8:	e59f202c 	ldr	r2, [pc, #44]	; 102dbddc <ATRsp_QBTSPPREAD_Hdlr+0x114>
102dbdac:	e12fff36 	blx	r6
102dbdb0:	e3e00000 	mvn	r0, #0
102dbdb4:	e8bd81f0 	pop	{r4, r5, r6, r7, r8, pc}
102dbdb8:	f03d3958 	.word	0xf03d3958
102dbdbc:	102e67fc 	.word	0x102e67fc
102dbdc0:	102e80b0 	.word	0x102e80b0
102dbdc4:	102e1e04 	.word	0x102e1e04
102dbdc8:	f03d672c 	.word	0xf03d672c
102dbdcc:	102e80c0 	.word	0x102e80c0
102dbdd0:	102e87c4 	.word	0x102e87c4
102dbdd4:	102e1e90 	.word	0x102e1e90
102dbdd8:	102e7f30 	.word	0x102e7f30
102dbddc:	102e7fe8 	.word	0x102e7fe8

102dbde0 <ATRsp_QBTGPROF_Hdlr>:
102dbde0:	e92d41f0 	push	{r4, r5, r6, r7, r8, lr}
102dbde4:	e1a06002 	mov	r6, r2
102dbde8:	e59f50a8 	ldr	r5, [pc, #168]	; 102dbe98 <ATRsp_QBTGPROF_Hdlr+0xb8>
102dbdec:	e59f20a8 	ldr	r2, [pc, #168]	; 102dbe9c <ATRsp_QBTGPROF_Hdlr+0xbc>
102dbdf0:	e1a04000 	mov	r4, r0
102dbdf4:	e1a08001 	mov	r8, r1
102dbdf8:	e12fff35 	blx	r5
102dbdfc:	e2507000 	subs	r7, r0, #0
102dbe00:	0a000009 	beq	102dbe2c <ATRsp_QBTGPROF_Hdlr+0x4c>
102dbe04:	e59f3094 	ldr	r3, [pc, #148]	; 102dbea0 <ATRsp_QBTGPROF_Hdlr+0xc0>
102dbe08:	e1a00004 	mov	r0, r4
102dbe0c:	e5d32084 	ldrb	r2, [r3, #132]	; 0x84
102dbe10:	e59f308c 	ldr	r3, [pc, #140]	; 102dbea4 <ATRsp_QBTGPROF_Hdlr+0xc4>
102dbe14:	e59f108c 	ldr	r1, [pc, #140]	; 102dbea8 <ATRsp_QBTGPROF_Hdlr+0xc8>
102dbe18:	e5933000 	ldr	r3, [r3]
102dbe1c:	e0862102 	add	r2, r6, r2, lsl #2
102dbe20:	e12fff33 	blx	r3
102dbe24:	e3a00001 	mov	r0, #1
102dbe28:	e8bd81f0 	pop	{r4, r5, r6, r7, r8, pc}
102dbe2c:	e1a00004 	mov	r0, r4
102dbe30:	e1a01008 	mov	r1, r8
102dbe34:	e59f2070 	ldr	r2, [pc, #112]	; 102dbeac <ATRsp_QBTGPROF_Hdlr+0xcc>
102dbe38:	e59f6070 	ldr	r6, [pc, #112]	; 102dbeb0 <ATRsp_QBTGPROF_Hdlr+0xd0>
102dbe3c:	e12fff36 	blx	r6
102dbe40:	e3500000 	cmp	r0, #0
102dbe44:	0a000003 	beq	102dbe58 <ATRsp_QBTGPROF_Hdlr+0x78>
102dbe48:	e59f3050 	ldr	r3, [pc, #80]	; 102dbea0 <ATRsp_QBTGPROF_Hdlr+0xc0>
102dbe4c:	e1a00007 	mov	r0, r7
102dbe50:	e5c37084 	strb	r7, [r3, #132]	; 0x84
102dbe54:	e8bd81f0 	pop	{r4, r5, r6, r7, r8, pc}
102dbe58:	e1a00004 	mov	r0, r4
102dbe5c:	e1a01008 	mov	r1, r8
102dbe60:	e59f204c 	ldr	r2, [pc, #76]	; 102dbeb4 <ATRsp_QBTGPROF_Hdlr+0xd4>
102dbe64:	e12fff36 	blx	r6
102dbe68:	e3500000 	cmp	r0, #0
102dbe6c:	1a000007 	bne	102dbe90 <ATRsp_QBTGPROF_Hdlr+0xb0>
102dbe70:	e1a00004 	mov	r0, r4
102dbe74:	e1a01008 	mov	r1, r8
102dbe78:	e59f2038 	ldr	r2, [pc, #56]	; 102dbeb8 <ATRsp_QBTGPROF_Hdlr+0xd8>
102dbe7c:	e12fff35 	blx	r5
102dbe80:	e3500000 	cmp	r0, #0
102dbe84:	03a00001 	moveq	r0, #1
102dbe88:	13e00000 	mvnne	r0, #0
102dbe8c:	e8bd81f0 	pop	{r4, r5, r6, r7, r8, pc}
102dbe90:	e3e00000 	mvn	r0, #0
102dbe94:	e8bd81f0 	pop	{r4, r5, r6, r7, r8, pc}
102dbe98:	102e1e04 	.word	0x102e1e04
102dbe9c:	102e80cc 	.word	0x102e80cc
102dbea0:	f03d3958 	.word	0xf03d3958
102dbea4:	f03d672c 	.word	0xf03d672c
102dbea8:	102e80dc 	.word	0x102e80dc
102dbeac:	102e87c4 	.word	0x102e87c4
102dbeb0:	102e1e90 	.word	0x102e1e90
102dbeb4:	102e7f30 	.word	0x102e7f30
102dbeb8:	102e7fe8 	.word	0x102e7fe8

102dbebc <ATRsp_QBTVISB_Hdlr>:
102dbebc:	e92d41f0 	push	{r4, r5, r6, r7, r8, lr}
102dbec0:	e1a06002 	mov	r6, r2
102dbec4:	e59f508c 	ldr	r5, [pc, #140]	; 102dbf58 <ATRsp_QBTVISB_Hdlr+0x9c>
102dbec8:	e59f208c 	ldr	r2, [pc, #140]	; 102dbf5c <ATRsp_QBTVISB_Hdlr+0xa0>
102dbecc:	e1a04000 	mov	r4, r0
102dbed0:	e1a07001 	mov	r7, r1
102dbed4:	e12fff35 	blx	r5
102dbed8:	e2508000 	subs	r8, r0, #0
102dbedc:	e1a00004 	mov	r0, r4
102dbee0:	0a000006 	beq	102dbf00 <ATRsp_QBTVISB_Hdlr+0x44>
102dbee4:	e59f3074 	ldr	r3, [pc, #116]	; 102dbf60 <ATRsp_QBTVISB_Hdlr+0xa4>
102dbee8:	e59f1074 	ldr	r1, [pc, #116]	; 102dbf64 <ATRsp_QBTVISB_Hdlr+0xa8>
102dbeec:	e5933000 	ldr	r3, [r3]
102dbef0:	e1a02006 	mov	r2, r6
102dbef4:	e12fff33 	blx	r3
102dbef8:	e3a00001 	mov	r0, #1
102dbefc:	e8bd81f0 	pop	{r4, r5, r6, r7, r8, pc}
102dbf00:	e1a01007 	mov	r1, r7
102dbf04:	e59f205c 	ldr	r2, [pc, #92]	; 102dbf68 <ATRsp_QBTVISB_Hdlr+0xac>
102dbf08:	e59f605c 	ldr	r6, [pc, #92]	; 102dbf6c <ATRsp_QBTVISB_Hdlr+0xb0>
102dbf0c:	e12fff36 	blx	r6
102dbf10:	e3500000 	cmp	r0, #0
102dbf14:	0a000001 	beq	102dbf20 <ATRsp_QBTVISB_Hdlr+0x64>
102dbf18:	e1a00008 	mov	r0, r8
102dbf1c:	e8bd81f0 	pop	{r4, r5, r6, r7, r8, pc}
102dbf20:	e1a00004 	mov	r0, r4
102dbf24:	e1a01007 	mov	r1, r7
102dbf28:	e59f2040 	ldr	r2, [pc, #64]	; 102dbf70 <ATRsp_QBTVISB_Hdlr+0xb4>
102dbf2c:	e12fff36 	blx	r6
102dbf30:	e3500000 	cmp	r0, #0
102dbf34:	0a000001 	beq	102dbf40 <ATRsp_QBTVISB_Hdlr+0x84>
102dbf38:	e3e00000 	mvn	r0, #0
102dbf3c:	e8bd81f0 	pop	{r4, r5, r6, r7, r8, pc}
102dbf40:	e1a00004 	mov	r0, r4
102dbf44:	e1a01007 	mov	r1, r7
102dbf48:	e59f2024 	ldr	r2, [pc, #36]	; 102dbf74 <ATRsp_QBTVISB_Hdlr+0xb8>
102dbf4c:	e12fff35 	blx	r5
102dbf50:	e3e00000 	mvn	r0, #0
102dbf54:	e8bd81f0 	pop	{r4, r5, r6, r7, r8, pc}
102dbf58:	102e1e04 	.word	0x102e1e04
102dbf5c:	102e80f0 	.word	0x102e80f0
102dbf60:	f03d672c 	.word	0xf03d672c
102dbf64:	102e7ff4 	.word	0x102e7ff4
102dbf68:	102e87c4 	.word	0x102e87c4
102dbf6c:	102e1e90 	.word	0x102e1e90
102dbf70:	102e7f30 	.word	0x102e7f30
102dbf74:	102e7fe8 	.word	0x102e7fe8

102dbf78 <ATRsp_QBTADDR_Hdlr>:
102dbf78:	e92d41f0 	push	{r4, r5, r6, r7, r8, lr}
102dbf7c:	e1a06002 	mov	r6, r2
102dbf80:	e59f508c 	ldr	r5, [pc, #140]	; 102dc014 <ATRsp_QBTADDR_Hdlr+0x9c>
102dbf84:	e59f208c 	ldr	r2, [pc, #140]	; 102dc018 <ATRsp_QBTADDR_Hdlr+0xa0>
102dbf88:	e1a04000 	mov	r4, r0
102dbf8c:	e1a07001 	mov	r7, r1
102dbf90:	e12fff35 	blx	r5
102dbf94:	e2508000 	subs	r8, r0, #0
102dbf98:	e1a00004 	mov	r0, r4
102dbf9c:	0a000006 	beq	102dbfbc <ATRsp_QBTADDR_Hdlr+0x44>
102dbfa0:	e59f3074 	ldr	r3, [pc, #116]	; 102dc01c <ATRsp_QBTADDR_Hdlr+0xa4>
102dbfa4:	e59f1074 	ldr	r1, [pc, #116]	; 102dc020 <ATRsp_QBTADDR_Hdlr+0xa8>
102dbfa8:	e5933000 	ldr	r3, [r3]
102dbfac:	e1a02006 	mov	r2, r6
102dbfb0:	e12fff33 	blx	r3
102dbfb4:	e3a00001 	mov	r0, #1
102dbfb8:	e8bd81f0 	pop	{r4, r5, r6, r7, r8, pc}
102dbfbc:	e1a01007 	mov	r1, r7
102dbfc0:	e59f205c 	ldr	r2, [pc, #92]	; 102dc024 <ATRsp_QBTADDR_Hdlr+0xac>
102dbfc4:	e59f605c 	ldr	r6, [pc, #92]	; 102dc028 <ATRsp_QBTADDR_Hdlr+0xb0>
102dbfc8:	e12fff36 	blx	r6
102dbfcc:	e3500000 	cmp	r0, #0
102dbfd0:	0a000001 	beq	102dbfdc <ATRsp_QBTADDR_Hdlr+0x64>
102dbfd4:	e1a00008 	mov	r0, r8
102dbfd8:	e8bd81f0 	pop	{r4, r5, r6, r7, r8, pc}
102dbfdc:	e1a00004 	mov	r0, r4
102dbfe0:	e1a01007 	mov	r1, r7
102dbfe4:	e59f2040 	ldr	r2, [pc, #64]	; 102dc02c <ATRsp_QBTADDR_Hdlr+0xb4>
102dbfe8:	e12fff36 	blx	r6
102dbfec:	e3500000 	cmp	r0, #0
102dbff0:	0a000001 	beq	102dbffc <ATRsp_QBTADDR_Hdlr+0x84>
102dbff4:	e3e00000 	mvn	r0, #0
102dbff8:	e8bd81f0 	pop	{r4, r5, r6, r7, r8, pc}
102dbffc:	e1a00004 	mov	r0, r4
102dc000:	e1a01007 	mov	r1, r7
102dc004:	e59f2024 	ldr	r2, [pc, #36]	; 102dc030 <ATRsp_QBTADDR_Hdlr+0xb8>
102dc008:	e12fff35 	blx	r5
102dc00c:	e3e00000 	mvn	r0, #0
102dc010:	e8bd81f0 	pop	{r4, r5, r6, r7, r8, pc}
102dc014:	102e1e04 	.word	0x102e1e04
102dc018:	102e80fc 	.word	0x102e80fc
102dc01c:	f03d672c 	.word	0xf03d672c
102dc020:	102e8108 	.word	0x102e8108
102dc024:	102e87c4 	.word	0x102e87c4
102dc028:	102e1e90 	.word	0x102e1e90
102dc02c:	102e7f30 	.word	0x102e7f30
102dc030:	102e7fe8 	.word	0x102e7fe8

102dc034 <ATRsp_QBTNAME_Hdlr>:
102dc034:	e92d41f0 	push	{r4, r5, r6, r7, r8, lr}
102dc038:	e1a06002 	mov	r6, r2
102dc03c:	e59f508c 	ldr	r5, [pc, #140]	; 102dc0d0 <ATRsp_QBTNAME_Hdlr+0x9c>
102dc040:	e59f208c 	ldr	r2, [pc, #140]	; 102dc0d4 <ATRsp_QBTNAME_Hdlr+0xa0>
102dc044:	e1a04000 	mov	r4, r0
102dc048:	e1a07001 	mov	r7, r1
102dc04c:	e12fff35 	blx	r5
102dc050:	e2508000 	subs	r8, r0, #0
102dc054:	e1a00004 	mov	r0, r4
102dc058:	0a000006 	beq	102dc078 <ATRsp_QBTNAME_Hdlr+0x44>
102dc05c:	e59f3074 	ldr	r3, [pc, #116]	; 102dc0d8 <ATRsp_QBTNAME_Hdlr+0xa4>
102dc060:	e59f1074 	ldr	r1, [pc, #116]	; 102dc0dc <ATRsp_QBTNAME_Hdlr+0xa8>
102dc064:	e5933000 	ldr	r3, [r3]
102dc068:	e1a02006 	mov	r2, r6
102dc06c:	e12fff33 	blx	r3
102dc070:	e3a00001 	mov	r0, #1
102dc074:	e8bd81f0 	pop	{r4, r5, r6, r7, r8, pc}
102dc078:	e1a01007 	mov	r1, r7
102dc07c:	e59f205c 	ldr	r2, [pc, #92]	; 102dc0e0 <ATRsp_QBTNAME_Hdlr+0xac>
102dc080:	e59f605c 	ldr	r6, [pc, #92]	; 102dc0e4 <ATRsp_QBTNAME_Hdlr+0xb0>
102dc084:	e12fff36 	blx	r6
102dc088:	e3500000 	cmp	r0, #0
102dc08c:	0a000001 	beq	102dc098 <ATRsp_QBTNAME_Hdlr+0x64>
102dc090:	e1a00008 	mov	r0, r8
102dc094:	e8bd81f0 	pop	{r4, r5, r6, r7, r8, pc}
102dc098:	e1a00004 	mov	r0, r4
102dc09c:	e1a01007 	mov	r1, r7
102dc0a0:	e59f2040 	ldr	r2, [pc, #64]	; 102dc0e8 <ATRsp_QBTNAME_Hdlr+0xb4>
102dc0a4:	e12fff36 	blx	r6
102dc0a8:	e3500000 	cmp	r0, #0
102dc0ac:	0a000001 	beq	102dc0b8 <ATRsp_QBTNAME_Hdlr+0x84>
102dc0b0:	e3e00000 	mvn	r0, #0
102dc0b4:	e8bd81f0 	pop	{r4, r5, r6, r7, r8, pc}
102dc0b8:	e1a00004 	mov	r0, r4
102dc0bc:	e1a01007 	mov	r1, r7
102dc0c0:	e59f2024 	ldr	r2, [pc, #36]	; 102dc0ec <ATRsp_QBTNAME_Hdlr+0xb8>
102dc0c4:	e12fff35 	blx	r5
102dc0c8:	e3e00000 	mvn	r0, #0
102dc0cc:	e8bd81f0 	pop	{r4, r5, r6, r7, r8, pc}
102dc0d0:	102e1e04 	.word	0x102e1e04
102dc0d4:	102e811c 	.word	0x102e811c
102dc0d8:	f03d672c 	.word	0xf03d672c
102dc0dc:	102e803c 	.word	0x102e803c
102dc0e0:	102e87c4 	.word	0x102e87c4
102dc0e4:	102e1e90 	.word	0x102e1e90
102dc0e8:	102e7f30 	.word	0x102e7f30
102dc0ec:	102e7fe8 	.word	0x102e7fe8

102dc0f0 <ATRsp_QBTPWR_Hdlr>:
102dc0f0:	e92d41f0 	push	{r4, r5, r6, r7, r8, lr}
102dc0f4:	e1a06002 	mov	r6, r2
102dc0f8:	e59f508c 	ldr	r5, [pc, #140]	; 102dc18c <ATRsp_QBTPWR_Hdlr+0x9c>
102dc0fc:	e59f208c 	ldr	r2, [pc, #140]	; 102dc190 <ATRsp_QBTPWR_Hdlr+0xa0>
102dc100:	e1a04000 	mov	r4, r0
102dc104:	e1a07001 	mov	r7, r1
102dc108:	e12fff35 	blx	r5
102dc10c:	e2508000 	subs	r8, r0, #0
102dc110:	e1a00004 	mov	r0, r4
102dc114:	0a000006 	beq	102dc134 <ATRsp_QBTPWR_Hdlr+0x44>
102dc118:	e59f3074 	ldr	r3, [pc, #116]	; 102dc194 <ATRsp_QBTPWR_Hdlr+0xa4>
102dc11c:	e59f1074 	ldr	r1, [pc, #116]	; 102dc198 <ATRsp_QBTPWR_Hdlr+0xa8>
102dc120:	e5933000 	ldr	r3, [r3]
102dc124:	e1a02006 	mov	r2, r6
102dc128:	e12fff33 	blx	r3
102dc12c:	e3a00001 	mov	r0, #1
102dc130:	e8bd81f0 	pop	{r4, r5, r6, r7, r8, pc}
102dc134:	e1a01007 	mov	r1, r7
102dc138:	e59f205c 	ldr	r2, [pc, #92]	; 102dc19c <ATRsp_QBTPWR_Hdlr+0xac>
102dc13c:	e59f605c 	ldr	r6, [pc, #92]	; 102dc1a0 <ATRsp_QBTPWR_Hdlr+0xb0>
102dc140:	e12fff36 	blx	r6
102dc144:	e3500000 	cmp	r0, #0
102dc148:	0a000001 	beq	102dc154 <ATRsp_QBTPWR_Hdlr+0x64>
102dc14c:	e1a00008 	mov	r0, r8
102dc150:	e8bd81f0 	pop	{r4, r5, r6, r7, r8, pc}
102dc154:	e1a00004 	mov	r0, r4
102dc158:	e1a01007 	mov	r1, r7
102dc15c:	e59f2040 	ldr	r2, [pc, #64]	; 102dc1a4 <ATRsp_QBTPWR_Hdlr+0xb4>
102dc160:	e12fff36 	blx	r6
102dc164:	e3500000 	cmp	r0, #0
102dc168:	0a000001 	beq	102dc174 <ATRsp_QBTPWR_Hdlr+0x84>
102dc16c:	e3e00000 	mvn	r0, #0
102dc170:	e8bd81f0 	pop	{r4, r5, r6, r7, r8, pc}
102dc174:	e1a00004 	mov	r0, r4
102dc178:	e1a01007 	mov	r1, r7
102dc17c:	e59f2024 	ldr	r2, [pc, #36]	; 102dc1a8 <ATRsp_QBTPWR_Hdlr+0xb8>
102dc180:	e12fff35 	blx	r5
102dc184:	e3e00000 	mvn	r0, #0
102dc188:	e8bd81f0 	pop	{r4, r5, r6, r7, r8, pc}
102dc18c:	102e1e04 	.word	0x102e1e04
102dc190:	102e8128 	.word	0x102e8128
102dc194:	f03d672c 	.word	0xf03d672c
102dc198:	102e7ff4 	.word	0x102e7ff4
102dc19c:	102e87c4 	.word	0x102e87c4
102dc1a0:	102e1e90 	.word	0x102e1e90
102dc1a4:	102e7f30 	.word	0x102e7f30
102dc1a8:	102e7fe8 	.word	0x102e7fe8

102dc1ac <ATRsp_QBTSPPSEND_Hdlr>:
102dc1ac:	e92d41f0 	push	{r4, r5, r6, r7, r8, lr}
102dc1b0:	e1a04002 	mov	r4, r2
102dc1b4:	e59f50a8 	ldr	r5, [pc, #168]	; 102dc264 <ATRsp_QBTSPPSEND_Hdlr+0xb8>
102dc1b8:	e59f20a8 	ldr	r2, [pc, #168]	; 102dc268 <ATRsp_QBTSPPSEND_Hdlr+0xbc>
102dc1bc:	e1a07000 	mov	r7, r0
102dc1c0:	e1a06001 	mov	r6, r1
102dc1c4:	e12fff35 	blx	r5
102dc1c8:	e2508000 	subs	r8, r0, #0
102dc1cc:	0a000009 	beq	102dc1f8 <ATRsp_QBTSPPSEND_Hdlr+0x4c>
102dc1d0:	e59f3094 	ldr	r3, [pc, #148]	; 102dc26c <ATRsp_QBTSPPSEND_Hdlr+0xc0>
102dc1d4:	e5930088 	ldr	r0, [r3, #136]	; 0x88
102dc1d8:	e593108c 	ldr	r1, [r3, #140]	; 0x8c
102dc1dc:	e59f308c 	ldr	r3, [pc, #140]	; 102dc270 <ATRsp_QBTSPPSEND_Hdlr+0xc4>
102dc1e0:	e12fff33 	blx	r3
102dc1e4:	e3540000 	cmp	r4, #0
102dc1e8:	0a00000b 	beq	102dc21c <ATRsp_QBTSPPSEND_Hdlr+0x70>
102dc1ec:	e5840000 	str	r0, [r4]
102dc1f0:	e3a00001 	mov	r0, #1
102dc1f4:	e8bd81f0 	pop	{r4, r5, r6, r7, r8, pc}
102dc1f8:	e1a00007 	mov	r0, r7
102dc1fc:	e1a01006 	mov	r1, r6
102dc200:	e59f206c 	ldr	r2, [pc, #108]	; 102dc274 <ATRsp_QBTSPPSEND_Hdlr+0xc8>
102dc204:	e59f406c 	ldr	r4, [pc, #108]	; 102dc278 <ATRsp_QBTSPPSEND_Hdlr+0xcc>
102dc208:	e12fff34 	blx	r4
102dc20c:	e3500000 	cmp	r0, #0
102dc210:	0a000003 	beq	102dc224 <ATRsp_QBTSPPSEND_Hdlr+0x78>
102dc214:	e1a00008 	mov	r0, r8
102dc218:	e8bd81f0 	pop	{r4, r5, r6, r7, r8, pc}
102dc21c:	e3a00001 	mov	r0, #1
102dc220:	e8bd81f0 	pop	{r4, r5, r6, r7, r8, pc}
102dc224:	e1a00007 	mov	r0, r7
102dc228:	e1a01006 	mov	r1, r6
102dc22c:	e59f2048 	ldr	r2, [pc, #72]	; 102dc27c <ATRsp_QBTSPPSEND_Hdlr+0xd0>
102dc230:	e12fff34 	blx	r4
102dc234:	e3500000 	cmp	r0, #0
102dc238:	1a000007 	bne	102dc25c <ATRsp_QBTSPPSEND_Hdlr+0xb0>
102dc23c:	e1a00007 	mov	r0, r7
102dc240:	e1a01006 	mov	r1, r6
102dc244:	e59f2034 	ldr	r2, [pc, #52]	; 102dc280 <ATRsp_QBTSPPSEND_Hdlr+0xd4>
102dc248:	e12fff35 	blx	r5
102dc24c:	e3500000 	cmp	r0, #0
102dc250:	03a00001 	moveq	r0, #1
102dc254:	13e00000 	mvnne	r0, #0
102dc258:	e8bd81f0 	pop	{r4, r5, r6, r7, r8, pc}
102dc25c:	e3e00000 	mvn	r0, #0
102dc260:	e8bd81f0 	pop	{r4, r5, r6, r7, r8, pc}
102dc264:	102e1e04 	.word	0x102e1e04
102dc268:	102e8b88 	.word	0x102e8b88
102dc26c:	f03d3958 	.word	0xf03d3958
102dc270:	102e63b8 	.word	0x102e63b8
102dc274:	102e87c4 	.word	0x102e87c4
102dc278:	102e1e90 	.word	0x102e1e90
102dc27c:	102e7f30 	.word	0x102e7f30
102dc280:	102e7fe8 	.word	0x102e7fe8

102dc284 <BT_DevMngmt_GetDeviceId>:
102dc284:	e59f303c 	ldr	r3, [pc, #60]	; 102dc2c8 <BT_DevMngmt_GetDeviceId+0x44>
102dc288:	e5932000 	ldr	r2, [r3]
102dc28c:	e5921000 	ldr	r1, [r2]
102dc290:	e1510000 	cmp	r1, r0
102dc294:	0a000007 	beq	102dc2b8 <BT_DevMngmt_GetDeviceId+0x34>
102dc298:	e283c074 	add	ip, r3, #116	; 0x74
102dc29c:	ea000001 	b	102dc2a8 <BT_DevMngmt_GetDeviceId+0x24>
102dc2a0:	e153000c 	cmp	r3, ip
102dc2a4:	0a000005 	beq	102dc2c0 <BT_DevMngmt_GetDeviceId+0x3c>
102dc2a8:	e5b32004 	ldr	r2, [r3, #4]!
102dc2ac:	e5921000 	ldr	r1, [r2]
102dc2b0:	e1510000 	cmp	r1, r0
102dc2b4:	1afffff9 	bne	102dc2a0 <BT_DevMngmt_GetDeviceId+0x1c>
102dc2b8:	e592004c 	ldr	r0, [r2, #76]	; 0x4c
102dc2bc:	e12fff1e 	bx	lr
102dc2c0:	e3a00000 	mov	r0, #0
102dc2c4:	e12fff1e 	bx	lr
102dc2c8:	f03d3958 	.word	0xf03d3958

102dc2cc <BT_DevMngmt_GetPairedId>:
102dc2cc:	e59f303c 	ldr	r3, [pc, #60]	; 102dc310 <BT_DevMngmt_GetPairedId+0x44>
102dc2d0:	e5932000 	ldr	r2, [r3]
102dc2d4:	e5921000 	ldr	r1, [r2]
102dc2d8:	e1510000 	cmp	r1, r0
102dc2dc:	0a000007 	beq	102dc300 <BT_DevMngmt_GetPairedId+0x34>
102dc2e0:	e283c074 	add	ip, r3, #116	; 0x74
102dc2e4:	ea000001 	b	102dc2f0 <BT_DevMngmt_GetPairedId+0x24>
102dc2e8:	e153000c 	cmp	r3, ip
102dc2ec:	0a000005 	beq	102dc308 <BT_DevMngmt_GetPairedId+0x3c>
102dc2f0:	e5b32004 	ldr	r2, [r3, #4]!
102dc2f4:	e5921000 	ldr	r1, [r2]
102dc2f8:	e1510000 	cmp	r1, r0
102dc2fc:	1afffff9 	bne	102dc2e8 <BT_DevMngmt_GetPairedId+0x1c>
102dc300:	e5920050 	ldr	r0, [r2, #80]	; 0x50
102dc304:	e12fff1e 	bx	lr
102dc308:	e3a00000 	mov	r0, #0
102dc30c:	e12fff1e 	bx	lr
102dc310:	f03d3958 	.word	0xf03d3958

102dc314 <BT_DevMngmt_GetConnId>:
102dc314:	e59f303c 	ldr	r3, [pc, #60]	; 102dc358 <BT_DevMngmt_GetConnId+0x44>
102dc318:	e5932000 	ldr	r2, [r3]
102dc31c:	e5921000 	ldr	r1, [r2]
102dc320:	e1510000 	cmp	r1, r0
102dc324:	0a000007 	beq	102dc348 <BT_DevMngmt_GetConnId+0x34>
102dc328:	e283c074 	add	ip, r3, #116	; 0x74
102dc32c:	ea000001 	b	102dc338 <BT_DevMngmt_GetConnId+0x24>
102dc330:	e153000c 	cmp	r3, ip
102dc334:	0a000005 	beq	102dc350 <BT_DevMngmt_GetConnId+0x3c>
102dc338:	e5b32004 	ldr	r2, [r3, #4]!
102dc33c:	e5921000 	ldr	r1, [r2]
102dc340:	e1510000 	cmp	r1, r0
102dc344:	1afffff9 	bne	102dc330 <BT_DevMngmt_GetConnId+0x1c>
102dc348:	e5920054 	ldr	r0, [r2, #84]	; 0x54
102dc34c:	e12fff1e 	bx	lr
102dc350:	e3a00000 	mov	r0, #0
102dc354:	e12fff1e 	bx	lr
102dc358:	f03d3958 	.word	0xf03d3958

102dc35c <BT_DevMngmt_GetProfileId>:
102dc35c:	e59f303c 	ldr	r3, [pc, #60]	; 102dc3a0 <BT_DevMngmt_GetProfileId+0x44>
102dc360:	e5932000 	ldr	r2, [r3]
102dc364:	e5921000 	ldr	r1, [r2]
102dc368:	e1510000 	cmp	r1, r0
102dc36c:	0a000007 	beq	102dc390 <BT_DevMngmt_GetProfileId+0x34>
102dc370:	e283c074 	add	ip, r3, #116	; 0x74
102dc374:	ea000001 	b	102dc380 <BT_DevMngmt_GetProfileId+0x24>
102dc378:	e153000c 	cmp	r3, ip
102dc37c:	0a000005 	beq	102dc398 <BT_DevMngmt_GetProfileId+0x3c>
102dc380:	e5b32004 	ldr	r2, [r3, #4]!
102dc384:	e5921000 	ldr	r1, [r2]
102dc388:	e1510000 	cmp	r1, r0
102dc38c:	1afffff9 	bne	102dc378 <BT_DevMngmt_GetProfileId+0x1c>
102dc390:	e5920058 	ldr	r0, [r2, #88]	; 0x58
102dc394:	e12fff1e 	bx	lr
102dc398:	e3a00000 	mov	r0, #0
102dc39c:	e12fff1e 	bx	lr
102dc3a0:	f03d3958 	.word	0xf03d3958

102dc3a4 <BT_DevMngmt_GetDevName>:
102dc3a4:	e59f303c 	ldr	r3, [pc, #60]	; 102dc3e8 <BT_DevMngmt_GetDevName+0x44>
102dc3a8:	e5932000 	ldr	r2, [r3]
102dc3ac:	e5921000 	ldr	r1, [r2]
102dc3b0:	e1510000 	cmp	r1, r0
102dc3b4:	0a000007 	beq	102dc3d8 <BT_DevMngmt_GetDevName+0x34>
102dc3b8:	e283c074 	add	ip, r3, #116	; 0x74
102dc3bc:	ea000001 	b	102dc3c8 <BT_DevMngmt_GetDevName+0x24>
102dc3c0:	e153000c 	cmp	r3, ip
102dc3c4:	0a000005 	beq	102dc3e0 <BT_DevMngmt_GetDevName+0x3c>
102dc3c8:	e5b32004 	ldr	r2, [r3, #4]!
102dc3cc:	e5921000 	ldr	r1, [r2]
102dc3d0:	e1510000 	cmp	r1, r0
102dc3d4:	1afffff9 	bne	102dc3c0 <BT_DevMngmt_GetDevName+0x1c>
102dc3d8:	e2820004 	add	r0, r2, #4
102dc3dc:	e12fff1e 	bx	lr
102dc3e0:	e3a00000 	mov	r0, #0
102dc3e4:	e12fff1e 	bx	lr
102dc3e8:	f03d3958 	.word	0xf03d3958

102dc3ec <BT_DevMngmt_GetDevAddr>:
102dc3ec:	e59f303c 	ldr	r3, [pc, #60]	; 102dc430 <BT_DevMngmt_GetDevAddr+0x44>
102dc3f0:	e5932000 	ldr	r2, [r3]
102dc3f4:	e5921000 	ldr	r1, [r2]
102dc3f8:	e1510000 	cmp	r1, r0
102dc3fc:	0a000007 	beq	102dc420 <BT_DevMngmt_GetDevAddr+0x34>
102dc400:	e283c074 	add	ip, r3, #116	; 0x74
102dc404:	ea000001 	b	102dc410 <BT_DevMngmt_GetDevAddr+0x24>
102dc408:	e153000c 	cmp	r3, ip
102dc40c:	0a000005 	beq	102dc428 <BT_DevMngmt_GetDevAddr+0x3c>
102dc410:	e5b32004 	ldr	r2, [r3, #4]!
102dc414:	e5921000 	ldr	r1, [r2]
102dc418:	e1510000 	cmp	r1, r0
102dc41c:	1afffff9 	bne	102dc408 <BT_DevMngmt_GetDevAddr+0x1c>
102dc420:	e282003c 	add	r0, r2, #60	; 0x3c
102dc424:	e12fff1e 	bx	lr
102dc428:	e3a00000 	mov	r0, #0
102dc42c:	e12fff1e 	bx	lr
102dc430:	f03d3958 	.word	0xf03d3958

102dc434 <RIL_BT_Switch>:
102dc434:	e3500001 	cmp	r0, #1
102dc438:	e92d4010 	push	{r4, lr}
102dc43c:	e1a04000 	mov	r4, r0
102dc440:	e24dd020 	sub	sp, sp, #32
102dc444:	83e00003 	mvnhi	r0, #3
102dc448:	8a000014 	bhi	102dc4a0 <RIL_BT_Switch+0x6c>
102dc44c:	e3a01000 	mov	r1, #0
102dc450:	e3a02014 	mov	r2, #20
102dc454:	e59f304c 	ldr	r3, [pc, #76]	; 102dc4a8 <RIL_BT_Switch+0x74>
102dc458:	e28d000c 	add	r0, sp, #12
102dc45c:	e12fff33 	blx	r3
102dc460:	e59f3044 	ldr	r3, [pc, #68]	; 102dc4ac <RIL_BT_Switch+0x78>
102dc464:	e59f1044 	ldr	r1, [pc, #68]	; 102dc4b0 <RIL_BT_Switch+0x7c>
102dc468:	e1a02004 	mov	r2, r4
102dc46c:	e5933000 	ldr	r3, [r3]
102dc470:	e28d000c 	add	r0, sp, #12
102dc474:	e12fff33 	blx	r3
102dc478:	e59f3034 	ldr	r3, [pc, #52]	; 102dc4b4 <RIL_BT_Switch+0x80>
102dc47c:	e28d000c 	add	r0, sp, #12
102dc480:	e12fff33 	blx	r3
102dc484:	e3a03000 	mov	r3, #0
102dc488:	e1a02003 	mov	r2, r3
102dc48c:	e58d3000 	str	r3, [sp]
102dc490:	e59fc020 	ldr	ip, [pc, #32]	; 102dc4b8 <RIL_BT_Switch+0x84>
102dc494:	e1a01000 	mov	r1, r0
102dc498:	e28d000c 	add	r0, sp, #12
102dc49c:	e12fff3c 	blx	ip
102dc4a0:	e28dd020 	add	sp, sp, #32
102dc4a4:	e8bd8010 	pop	{r4, pc}
102dc4a8:	102e6774 	.word	0x102e6774
102dc4ac:	f03d6720 	.word	0xf03d6720
102dc4b0:	102e8134 	.word	0x102e8134
102dc4b4:	102e6624 	.word	0x102e6624
102dc4b8:	102e6158 	.word	0x102e6158

102dc4bc <RIL_BT_GetPwrState>:
102dc4bc:	e59f2058 	ldr	r2, [pc, #88]	; 102dc51c <RIL_BT_GetPwrState+0x60>
102dc4c0:	e92d4030 	push	{r4, r5, lr}
102dc4c4:	e1a05000 	mov	r5, r0
102dc4c8:	e8920007 	ldm	r2, {r0, r1, r2}
102dc4cc:	e24dd01c 	sub	sp, sp, #28
102dc4d0:	e28d400c 	add	r4, sp, #12
102dc4d4:	e3550000 	cmp	r5, #0
102dc4d8:	e8840007 	stm	r4, {r0, r1, r2}
102dc4dc:	0a00000c 	beq	102dc514 <RIL_BT_GetPwrState+0x58>
102dc4e0:	e59f3038 	ldr	r3, [pc, #56]	; 102dc520 <RIL_BT_GetPwrState+0x64>
102dc4e4:	e1a00004 	mov	r0, r4
102dc4e8:	e12fff33 	blx	r3
102dc4ec:	e3a03000 	mov	r3, #0
102dc4f0:	e58d3000 	str	r3, [sp]
102dc4f4:	e59f2028 	ldr	r2, [pc, #40]	; 102dc524 <RIL_BT_GetPwrState+0x68>
102dc4f8:	e1a03005 	mov	r3, r5
102dc4fc:	e59fc024 	ldr	ip, [pc, #36]	; 102dc528 <RIL_BT_GetPwrState+0x6c>
102dc500:	e1a01000 	mov	r1, r0
102dc504:	e1a00004 	mov	r0, r4
102dc508:	e12fff3c 	blx	ip
102dc50c:	e28dd01c 	add	sp, sp, #28
102dc510:	e8bd8030 	pop	{r4, r5, pc}
102dc514:	e3e00003 	mvn	r0, #3
102dc518:	eafffffb 	b	102dc50c <RIL_BT_GetPwrState+0x50>
102dc51c:	102e72e8 	.word	0x102e72e8
102dc520:	102e6624 	.word	0x102e6624
102dc524:	102dc0f0 	.word	0x102dc0f0
102dc528:	102e6158 	.word	0x102e6158

102dc52c <RIL_BT_SetName>:
102dc52c:	e92d4030 	push	{r4, r5, lr}
102dc530:	e2704001 	rsbs	r4, r0, #1
102dc534:	33a04000 	movcc	r4, #0
102dc538:	e3510036 	cmp	r1, #54	; 0x36
102dc53c:	83844001 	orrhi	r4, r4, #1
102dc540:	e3540000 	cmp	r4, #0
102dc544:	e24dd05c 	sub	sp, sp, #92	; 0x5c
102dc548:	e1a05000 	mov	r5, r0
102dc54c:	1a000016 	bne	102dc5ac <RIL_BT_SetName+0x80>
102dc550:	e1a01004 	mov	r1, r4
102dc554:	e3a02050 	mov	r2, #80	; 0x50
102dc558:	e59f3054 	ldr	r3, [pc, #84]	; 102dc5b4 <RIL_BT_SetName+0x88>
102dc55c:	e28d0008 	add	r0, sp, #8
102dc560:	e12fff33 	blx	r3
102dc564:	e59f304c 	ldr	r3, [pc, #76]	; 102dc5b8 <RIL_BT_SetName+0x8c>
102dc568:	e59f104c 	ldr	r1, [pc, #76]	; 102dc5bc <RIL_BT_SetName+0x90>
102dc56c:	e1a02005 	mov	r2, r5
102dc570:	e5933000 	ldr	r3, [r3]
102dc574:	e28d0008 	add	r0, sp, #8
102dc578:	e12fff33 	blx	r3
102dc57c:	e59f303c 	ldr	r3, [pc, #60]	; 102dc5c0 <RIL_BT_SetName+0x94>
102dc580:	e28d0008 	add	r0, sp, #8
102dc584:	e12fff33 	blx	r3
102dc588:	e1a02004 	mov	r2, r4
102dc58c:	e58d4000 	str	r4, [sp]
102dc590:	e1a03004 	mov	r3, r4
102dc594:	e59fc028 	ldr	ip, [pc, #40]	; 102dc5c4 <RIL_BT_SetName+0x98>
102dc598:	e1a01000 	mov	r1, r0
102dc59c:	e28d0008 	add	r0, sp, #8
102dc5a0:	e12fff3c 	blx	ip
102dc5a4:	e28dd05c 	add	sp, sp, #92	; 0x5c
102dc5a8:	e8bd8030 	pop	{r4, r5, pc}
102dc5ac:	e3e00003 	mvn	r0, #3
102dc5b0:	eafffffb 	b	102dc5a4 <RIL_BT_SetName+0x78>
102dc5b4:	102e6774 	.word	0x102e6774
102dc5b8:	f03d6720 	.word	0xf03d6720
102dc5bc:	102e8144 	.word	0x102e8144
102dc5c0:	102e6624 	.word	0x102e6624
102dc5c4:	102e6158 	.word	0x102e6158

102dc5c8 <RIL_BT_GetName>:
102dc5c8:	e59f311c 	ldr	r3, [pc, #284]	; 102dc6ec <RIL_BT_GetName+0x124>
102dc5cc:	e92d40f0 	push	{r4, r5, r6, r7, lr}
102dc5d0:	e1a05000 	mov	r5, r0
102dc5d4:	e1a06001 	mov	r6, r1
102dc5d8:	e893000f 	ldm	r3, {r0, r1, r2, r3}
102dc5dc:	e24dd05c 	sub	sp, sp, #92	; 0x5c
102dc5e0:	e3a04000 	mov	r4, #0
102dc5e4:	e28dc00c 	add	ip, sp, #12
102dc5e8:	e1550004 	cmp	r5, r4
102dc5ec:	e8ac0007 	stmia	ip!, {r0, r1, r2}
102dc5f0:	e5cd4019 	strb	r4, [sp, #25]
102dc5f4:	e5cc3000 	strb	r3, [ip]
102dc5f8:	e5cd401a 	strb	r4, [sp, #26]
102dc5fc:	e5cd401b 	strb	r4, [sp, #27]
102dc600:	e5cd401c 	strb	r4, [sp, #28]
102dc604:	e5cd401d 	strb	r4, [sp, #29]
102dc608:	e5cd401e 	strb	r4, [sp, #30]
102dc60c:	e5cd401f 	strb	r4, [sp, #31]
102dc610:	e58d4020 	str	r4, [sp, #32]
102dc614:	e58d4024 	str	r4, [sp, #36]	; 0x24
102dc618:	e58d4028 	str	r4, [sp, #40]	; 0x28
102dc61c:	e58d402c 	str	r4, [sp, #44]	; 0x2c
102dc620:	e58d4030 	str	r4, [sp, #48]	; 0x30
102dc624:	e58d4034 	str	r4, [sp, #52]	; 0x34
102dc628:	e58d4038 	str	r4, [sp, #56]	; 0x38
102dc62c:	e58d403c 	str	r4, [sp, #60]	; 0x3c
102dc630:	e58d4040 	str	r4, [sp, #64]	; 0x40
102dc634:	e58d4044 	str	r4, [sp, #68]	; 0x44
102dc638:	e58d4048 	str	r4, [sp, #72]	; 0x48
102dc63c:	e58d404c 	str	r4, [sp, #76]	; 0x4c
102dc640:	e58d4050 	str	r4, [sp, #80]	; 0x50
102dc644:	e58d4054 	str	r4, [sp, #84]	; 0x54
102dc648:	0a000025 	beq	102dc6e4 <RIL_BT_GetName+0x11c>
102dc64c:	e1a01004 	mov	r1, r4
102dc650:	e1a02006 	mov	r2, r6
102dc654:	e59f3094 	ldr	r3, [pc, #148]	; 102dc6f0 <RIL_BT_GetName+0x128>
102dc658:	e1a00005 	mov	r0, r5
102dc65c:	e12fff33 	blx	r3
102dc660:	e59f708c 	ldr	r7, [pc, #140]	; 102dc6f4 <RIL_BT_GetName+0x12c>
102dc664:	e28d000c 	add	r0, sp, #12
102dc668:	e12fff37 	blx	r7
102dc66c:	e58d4000 	str	r4, [sp]
102dc670:	e59f2080 	ldr	r2, [pc, #128]	; 102dc6f8 <RIL_BT_GetName+0x130>
102dc674:	e28d3020 	add	r3, sp, #32
102dc678:	e59fc07c 	ldr	ip, [pc, #124]	; 102dc6fc <RIL_BT_GetName+0x134>
102dc67c:	e1a01000 	mov	r1, r0
102dc680:	e28d000c 	add	r0, sp, #12
102dc684:	e12fff3c 	blx	ip
102dc688:	e2504000 	subs	r4, r0, #0
102dc68c:	0a000002 	beq	102dc69c <RIL_BT_GetName+0xd4>
102dc690:	e1a00004 	mov	r0, r4
102dc694:	e28dd05c 	add	sp, sp, #92	; 0x5c
102dc698:	e8bd80f0 	pop	{r4, r5, r6, r7, pc}
102dc69c:	e28d0020 	add	r0, sp, #32
102dc6a0:	e12fff37 	blx	r7
102dc6a4:	e1560000 	cmp	r6, r0
102dc6a8:	2a000005 	bcs	102dc6c4 <RIL_BT_GetName+0xfc>
102dc6ac:	e1a00005 	mov	r0, r5
102dc6b0:	e28d1020 	add	r1, sp, #32
102dc6b4:	e2462001 	sub	r2, r6, #1
102dc6b8:	e59f3040 	ldr	r3, [pc, #64]	; 102dc700 <RIL_BT_GetName+0x138>
102dc6bc:	e12fff33 	blx	r3
102dc6c0:	eafffff2 	b	102dc690 <RIL_BT_GetName+0xc8>
102dc6c4:	e28d0020 	add	r0, sp, #32
102dc6c8:	e12fff37 	blx	r7
102dc6cc:	e28d1020 	add	r1, sp, #32
102dc6d0:	e59f3028 	ldr	r3, [pc, #40]	; 102dc700 <RIL_BT_GetName+0x138>
102dc6d4:	e1a02000 	mov	r2, r0
102dc6d8:	e1a00005 	mov	r0, r5
102dc6dc:	e12fff33 	blx	r3
102dc6e0:	eaffffea 	b	102dc690 <RIL_BT_GetName+0xc8>
102dc6e4:	e3e04003 	mvn	r4, #3
102dc6e8:	eaffffe8 	b	102dc690 <RIL_BT_GetName+0xc8>
102dc6ec:	102e72f4 	.word	0x102e72f4
102dc6f0:	102e6774 	.word	0x102e6774
102dc6f4:	102e6624 	.word	0x102e6624
102dc6f8:	102dc034 	.word	0x102dc034
102dc6fc:	102e6158 	.word	0x102e6158
102dc700:	102e6514 	.word	0x102e6514

102dc704 <RIL_BT_GetLocalAddr>:
102dc704:	e59f30d8 	ldr	r3, [pc, #216]	; 102dc7e4 <RIL_BT_GetLocalAddr+0xe0>
102dc708:	e92d40f0 	push	{r4, r5, r6, r7, lr}
102dc70c:	e1a05000 	mov	r5, r0
102dc710:	e1a06001 	mov	r6, r1
102dc714:	e893000f 	ldm	r3, {r0, r1, r2, r3}
102dc718:	e24dd02c 	sub	sp, sp, #44	; 0x2c
102dc71c:	e3a04000 	mov	r4, #0
102dc720:	e28dc008 	add	ip, sp, #8
102dc724:	e1550004 	cmp	r5, r4
102dc728:	e8ac0007 	stmia	ip!, {r0, r1, r2}
102dc72c:	e58d4018 	str	r4, [sp, #24]
102dc730:	e5cc3000 	strb	r3, [ip]
102dc734:	e58d401c 	str	r4, [sp, #28]
102dc738:	e58d4020 	str	r4, [sp, #32]
102dc73c:	e5cd4024 	strb	r4, [sp, #36]	; 0x24
102dc740:	0a000025 	beq	102dc7dc <RIL_BT_GetLocalAddr+0xd8>
102dc744:	e1a01004 	mov	r1, r4
102dc748:	e1a02006 	mov	r2, r6
102dc74c:	e59f3094 	ldr	r3, [pc, #148]	; 102dc7e8 <RIL_BT_GetLocalAddr+0xe4>
102dc750:	e1a00005 	mov	r0, r5
102dc754:	e12fff33 	blx	r3
102dc758:	e59f708c 	ldr	r7, [pc, #140]	; 102dc7ec <RIL_BT_GetLocalAddr+0xe8>
102dc75c:	e28d0008 	add	r0, sp, #8
102dc760:	e12fff37 	blx	r7
102dc764:	e58d4000 	str	r4, [sp]
102dc768:	e59f2080 	ldr	r2, [pc, #128]	; 102dc7f0 <RIL_BT_GetLocalAddr+0xec>
102dc76c:	e28d3018 	add	r3, sp, #24
102dc770:	e59fc07c 	ldr	ip, [pc, #124]	; 102dc7f4 <RIL_BT_GetLocalAddr+0xf0>
102dc774:	e1a01000 	mov	r1, r0
102dc778:	e28d0008 	add	r0, sp, #8
102dc77c:	e12fff3c 	blx	ip
102dc780:	e2504000 	subs	r4, r0, #0
102dc784:	0a000002 	beq	102dc794 <RIL_BT_GetLocalAddr+0x90>
102dc788:	e1a00004 	mov	r0, r4
102dc78c:	e28dd02c 	add	sp, sp, #44	; 0x2c
102dc790:	e8bd80f0 	pop	{r4, r5, r6, r7, pc}
102dc794:	e28d0018 	add	r0, sp, #24
102dc798:	e12fff37 	blx	r7
102dc79c:	e1560000 	cmp	r6, r0
102dc7a0:	2a000005 	bcs	102dc7bc <RIL_BT_GetLocalAddr+0xb8>
102dc7a4:	e1a00005 	mov	r0, r5
102dc7a8:	e28d1018 	add	r1, sp, #24
102dc7ac:	e2462001 	sub	r2, r6, #1
102dc7b0:	e59f3040 	ldr	r3, [pc, #64]	; 102dc7f8 <RIL_BT_GetLocalAddr+0xf4>
102dc7b4:	e12fff33 	blx	r3
102dc7b8:	eafffff2 	b	102dc788 <RIL_BT_GetLocalAddr+0x84>
102dc7bc:	e28d0018 	add	r0, sp, #24
102dc7c0:	e12fff37 	blx	r7
102dc7c4:	e28d1018 	add	r1, sp, #24
102dc7c8:	e59f3028 	ldr	r3, [pc, #40]	; 102dc7f8 <RIL_BT_GetLocalAddr+0xf4>
102dc7cc:	e1a02000 	mov	r2, r0
102dc7d0:	e1a00005 	mov	r0, r5
102dc7d4:	e12fff33 	blx	r3
102dc7d8:	eaffffea 	b	102dc788 <RIL_BT_GetLocalAddr+0x84>
102dc7dc:	e3e04003 	mvn	r4, #3
102dc7e0:	eaffffe8 	b	102dc788 <RIL_BT_GetLocalAddr+0x84>
102dc7e4:	102e7308 	.word	0x102e7308
102dc7e8:	102e6774 	.word	0x102e6774
102dc7ec:	102e6624 	.word	0x102e6624
102dc7f0:	102dbf78 	.word	0x102dbf78
102dc7f4:	102e6158 	.word	0x102e6158
102dc7f8:	102e6514 	.word	0x102e6514

102dc7fc <RIL_BT_SetVisble>:
102dc7fc:	e3500002 	cmp	r0, #2
102dc800:	e92d4030 	push	{r4, r5, lr}
102dc804:	e1a04000 	mov	r4, r0
102dc808:	e24dd02c 	sub	sp, sp, #44	; 0x2c
102dc80c:	e1a05001 	mov	r5, r1
102dc810:	8a00001e 	bhi	102dc890 <RIL_BT_SetVisble+0x94>
102dc814:	e28d0008 	add	r0, sp, #8
102dc818:	e3a01000 	mov	r1, #0
102dc81c:	e3a0201e 	mov	r2, #30
102dc820:	e59fc070 	ldr	ip, [pc, #112]	; 102dc898 <RIL_BT_SetVisble+0x9c>
102dc824:	e12fff3c 	blx	ip
102dc828:	e3540002 	cmp	r4, #2
102dc82c:	e28d0008 	add	r0, sp, #8
102dc830:	e59f3064 	ldr	r3, [pc, #100]	; 102dc89c <RIL_BT_SetVisble+0xa0>
102dc834:	1a000010 	bne	102dc87c <RIL_BT_SetVisble+0x80>
102dc838:	e593c000 	ldr	ip, [r3]
102dc83c:	e59f105c 	ldr	r1, [pc, #92]	; 102dc8a0 <RIL_BT_SetVisble+0xa4>
102dc840:	e1a02004 	mov	r2, r4
102dc844:	e1a03005 	mov	r3, r5
102dc848:	e12fff3c 	blx	ip
102dc84c:	e59f3050 	ldr	r3, [pc, #80]	; 102dc8a4 <RIL_BT_SetVisble+0xa8>
102dc850:	e28d0008 	add	r0, sp, #8
102dc854:	e12fff33 	blx	r3
102dc858:	e3a03000 	mov	r3, #0
102dc85c:	e1a02003 	mov	r2, r3
102dc860:	e58d3000 	str	r3, [sp]
102dc864:	e59fc03c 	ldr	ip, [pc, #60]	; 102dc8a8 <RIL_BT_SetVisble+0xac>
102dc868:	e1a01000 	mov	r1, r0
102dc86c:	e28d0008 	add	r0, sp, #8
102dc870:	e12fff3c 	blx	ip
102dc874:	e28dd02c 	add	sp, sp, #44	; 0x2c
102dc878:	e8bd8030 	pop	{r4, r5, pc}
102dc87c:	e5933000 	ldr	r3, [r3]
102dc880:	e59f1024 	ldr	r1, [pc, #36]	; 102dc8ac <RIL_BT_SetVisble+0xb0>
102dc884:	e1a02004 	mov	r2, r4
102dc888:	e12fff33 	blx	r3
102dc88c:	eaffffee 	b	102dc84c <RIL_BT_SetVisble+0x50>
102dc890:	e3e00003 	mvn	r0, #3
102dc894:	eafffff6 	b	102dc874 <RIL_BT_SetVisble+0x78>
102dc898:	102e6774 	.word	0x102e6774
102dc89c:	f03d6720 	.word	0xf03d6720
102dc8a0:	102e8164 	.word	0x102e8164
102dc8a4:	102e6624 	.word	0x102e6624
102dc8a8:	102e6158 	.word	0x102e6158
102dc8ac:	102e8154 	.word	0x102e8154

102dc8b0 <OnURCHandler_BTVisible>:
102dc8b0:	e92d41f0 	push	{r4, r5, r6, r7, r8, lr}
102dc8b4:	e59f40d0 	ldr	r4, [pc, #208]	; 102dc98c <OnURCHandler_BTVisible+0xdc>
102dc8b8:	e3a05000 	mov	r5, #0
102dc8bc:	e5943090 	ldr	r3, [r4, #144]	; 0x90
102dc8c0:	e24dd028 	sub	sp, sp, #40	; 0x28
102dc8c4:	e1530005 	cmp	r3, r5
102dc8c8:	e1a06000 	mov	r6, r0
102dc8cc:	e58d5004 	str	r5, [sp, #4]
102dc8d0:	0a000015 	beq	102dc92c <OnURCHandler_BTVisible+0x7c>
102dc8d4:	e28d1008 	add	r1, sp, #8
102dc8d8:	e59f70b0 	ldr	r7, [pc, #176]	; 102dc990 <OnURCHandler_BTVisible+0xe0>
102dc8dc:	e12fff37 	blx	r7
102dc8e0:	e2508000 	subs	r8, r0, #0
102dc8e4:	0a000012 	beq	102dc934 <OnURCHandler_BTVisible+0x84>
102dc8e8:	e59f30a4 	ldr	r3, [pc, #164]	; 102dc994 <OnURCHandler_BTVisible+0xe4>
102dc8ec:	e28d2004 	add	r2, sp, #4
102dc8f0:	e5933000 	ldr	r3, [r3]
102dc8f4:	e59f109c 	ldr	r1, [pc, #156]	; 102dc998 <OnURCHandler_BTVisible+0xe8>
102dc8f8:	e1a00006 	mov	r0, r6
102dc8fc:	e12fff33 	blx	r3
102dc900:	e59d1004 	ldr	r1, [sp, #4]
102dc904:	e1510005 	cmp	r1, r5
102dc908:	01a02001 	moveq	r2, r1
102dc90c:	11a02005 	movne	r2, r5
102dc910:	0594c090 	ldreq	ip, [r4, #144]	; 0x90
102dc914:	03a00009 	moveq	r0, #9
102dc918:	03a01001 	moveq	r1, #1
102dc91c:	1594c090 	ldrne	ip, [r4, #144]	; 0x90
102dc920:	13a00009 	movne	r0, #9
102dc924:	e1a03002 	mov	r3, r2
102dc928:	e12fff3c 	blx	ip
102dc92c:	e28dd028 	add	sp, sp, #40	; 0x28
102dc930:	e8bd81f0 	pop	{r4, r5, r6, r7, r8, pc}
102dc934:	e59f1060 	ldr	r1, [pc, #96]	; 102dc99c <OnURCHandler_BTVisible+0xec>
102dc938:	e59f3060 	ldr	r3, [pc, #96]	; 102dc9a0 <OnURCHandler_BTVisible+0xf0>
102dc93c:	e28d0008 	add	r0, sp, #8
102dc940:	e12fff33 	blx	r3
102dc944:	e1a00006 	mov	r0, r6
102dc948:	e28d1008 	add	r1, sp, #8
102dc94c:	e12fff37 	blx	r7
102dc950:	e3500000 	cmp	r0, #0
102dc954:	0afffff4 	beq	102dc92c <OnURCHandler_BTVisible+0x7c>
102dc958:	e59f3034 	ldr	r3, [pc, #52]	; 102dc994 <OnURCHandler_BTVisible+0xe4>
102dc95c:	e28d2004 	add	r2, sp, #4
102dc960:	e59f1030 	ldr	r1, [pc, #48]	; 102dc998 <OnURCHandler_BTVisible+0xe8>
102dc964:	e5933000 	ldr	r3, [r3]
102dc968:	e1a00006 	mov	r0, r6
102dc96c:	e12fff33 	blx	r3
102dc970:	e1a02008 	mov	r2, r8
102dc974:	e594c090 	ldr	ip, [r4, #144]	; 0x90
102dc978:	e3a00009 	mov	r0, #9
102dc97c:	e59d1004 	ldr	r1, [sp, #4]
102dc980:	e1a03008 	mov	r3, r8
102dc984:	e12fff3c 	blx	ip
102dc988:	eaffffe7 	b	102dc92c <OnURCHandler_BTVisible+0x7c>
102dc98c:	f03d3958 	.word	0xf03d3958
102dc990:	102e1cc4 	.word	0x102e1cc4
102dc994:	f03d672c 	.word	0xf03d672c
102dc998:	102e7ff4 	.word	0x102e7ff4
102dc99c:	102e7318 	.word	0x102e7318
102dc9a0:	102e6474 	.word	0x102e6474

102dc9a4 <RIL_BT_GetVisble>:
102dc9a4:	e59f205c 	ldr	r2, [pc, #92]	; 102dca08 <RIL_BT_GetVisble+0x64>
102dc9a8:	e92d4010 	push	{r4, lr}
102dc9ac:	e1a04000 	mov	r4, r0
102dc9b0:	e892000f 	ldm	r2, {r0, r1, r2, r3}
102dc9b4:	e24dd018 	sub	sp, sp, #24
102dc9b8:	e28dc008 	add	ip, sp, #8
102dc9bc:	e3540000 	cmp	r4, #0
102dc9c0:	e8ac0007 	stmia	ip!, {r0, r1, r2}
102dc9c4:	e5cc3000 	strb	r3, [ip]
102dc9c8:	0a00000c 	beq	102dca00 <RIL_BT_GetVisble+0x5c>
102dc9cc:	e59f3038 	ldr	r3, [pc, #56]	; 102dca0c <RIL_BT_GetVisble+0x68>
102dc9d0:	e28d0008 	add	r0, sp, #8
102dc9d4:	e12fff33 	blx	r3
102dc9d8:	e3a03000 	mov	r3, #0
102dc9dc:	e58d3000 	str	r3, [sp]
102dc9e0:	e59f2028 	ldr	r2, [pc, #40]	; 102dca10 <RIL_BT_GetVisble+0x6c>
102dc9e4:	e1a03004 	mov	r3, r4
102dc9e8:	e59fc024 	ldr	ip, [pc, #36]	; 102dca14 <RIL_BT_GetVisble+0x70>
102dc9ec:	e1a01000 	mov	r1, r0
102dc9f0:	e28d0008 	add	r0, sp, #8
102dc9f4:	e12fff3c 	blx	ip
102dc9f8:	e28dd018 	add	sp, sp, #24
102dc9fc:	e8bd8010 	pop	{r4, pc}
102dca00:	e3e00003 	mvn	r0, #3
102dca04:	eafffffb 	b	102dc9f8 <RIL_BT_GetVisble+0x54>
102dca08:	102e7328 	.word	0x102e7328
102dca0c:	102e6624 	.word	0x102e6624
102dca10:	102dbebc 	.word	0x102dbebc
102dca14:	102e6158 	.word	0x102e6158

102dca18 <OnURCHandler_BTScan>:
102dca18:	e92d4ff0 	push	{r4, r5, r6, r7, r8, r9, sl, fp, lr}
102dca1c:	e59f4280 	ldr	r4, [pc, #640]	; 102dcca4 <OnURCHandler_BTScan+0x28c>
102dca20:	e59f6280 	ldr	r6, [pc, #640]	; 102dcca8 <OnURCHandler_BTScan+0x290>
102dca24:	e1a09000 	mov	r9, r0
102dca28:	e5967090 	ldr	r7, [r6, #144]	; 0x90
102dca2c:	e894000f 	ldm	r4, {r0, r1, r2, r3}
102dca30:	e24dd01c 	sub	sp, sp, #28
102dca34:	e3a05000 	mov	r5, #0
102dca38:	e28dc008 	add	ip, sp, #8
102dca3c:	e1570005 	cmp	r7, r5
102dca40:	e8ac0007 	stmia	ip!, {r0, r1, r2}
102dca44:	e58d5000 	str	r5, [sp]
102dca48:	e5cc3000 	strb	r3, [ip]
102dca4c:	e58d5004 	str	r5, [sp, #4]
102dca50:	0a000050 	beq	102dcb98 <OnURCHandler_BTScan+0x180>
102dca54:	e1a00009 	mov	r0, r9
102dca58:	e28d1008 	add	r1, sp, #8
102dca5c:	e59f7248 	ldr	r7, [pc, #584]	; 102dccac <OnURCHandler_BTScan+0x294>
102dca60:	e12fff37 	blx	r7
102dca64:	e2508000 	subs	r8, r0, #0
102dca68:	0a00004c 	beq	102dcba0 <OnURCHandler_BTScan+0x188>
102dca6c:	e59f423c 	ldr	r4, [pc, #572]	; 102dccb0 <OnURCHandler_BTScan+0x298>
102dca70:	e1a0200d 	mov	r2, sp
102dca74:	e1a00009 	mov	r0, r9
102dca78:	e5943000 	ldr	r3, [r4]
102dca7c:	e59f1230 	ldr	r1, [pc, #560]	; 102dccb4 <OnURCHandler_BTScan+0x29c>
102dca80:	e12fff33 	blx	r3
102dca84:	e59d2000 	ldr	r2, [sp]
102dca88:	e1520005 	cmp	r2, r5
102dca8c:	0a000059 	beq	102dcbf8 <OnURCHandler_BTScan+0x1e0>
102dca90:	e59f3220 	ldr	r3, [pc, #544]	; 102dccb8 <OnURCHandler_BTScan+0x2a0>
102dca94:	e3a00060 	mov	r0, #96	; 0x60
102dca98:	e12fff33 	blx	r3
102dca9c:	e59fa218 	ldr	sl, [pc, #536]	; 102dccbc <OnURCHandler_BTScan+0x2a4>
102dcaa0:	e1a01005 	mov	r1, r5
102dcaa4:	e3a02060 	mov	r2, #96	; 0x60
102dcaa8:	e1a07000 	mov	r7, r0
102dcaac:	e2878004 	add	r8, r7, #4
102dcab0:	e12fff3a 	blx	sl
102dcab4:	e3e03000 	mvn	r3, #0
102dcab8:	e59d0000 	ldr	r0, [sp]
102dcabc:	e287b03c 	add	fp, r7, #60	; 0x3c
102dcac0:	e59f11f8 	ldr	r1, [pc, #504]	; 102dccc0 <OnURCHandler_BTScan+0x2a8>
102dcac4:	e1a02008 	mov	r2, r8
102dcac8:	e587004c 	str	r0, [r7, #76]	; 0x4c
102dcacc:	e5873050 	str	r3, [r7, #80]	; 0x50
102dcad0:	e5873054 	str	r3, [r7, #84]	; 0x54
102dcad4:	e5873058 	str	r3, [r7, #88]	; 0x58
102dcad8:	e1a00009 	mov	r0, r9
102dcadc:	e5943000 	ldr	r3, [r4]
102dcae0:	e12fff33 	blx	r3
102dcae4:	e1a0200b 	mov	r2, fp
102dcae8:	e59f11d4 	ldr	r1, [pc, #468]	; 102dccc4 <OnURCHandler_BTScan+0x2ac>
102dcaec:	e5943000 	ldr	r3, [r4]
102dcaf0:	e1a00009 	mov	r0, r9
102dcaf4:	e12fff33 	blx	r3
102dcaf8:	e59f31c8 	ldr	r3, [pc, #456]	; 102dccc8 <OnURCHandler_BTScan+0x2b0>
102dcafc:	e1a0000b 	mov	r0, fp
102dcb00:	e12fff33 	blx	r3
102dcb04:	e59f31c0 	ldr	r3, [pc, #448]	; 102dcccc <OnURCHandler_BTScan+0x2b4>
102dcb08:	e2464004 	sub	r4, r6, #4
102dcb0c:	e1a01000 	mov	r1, r0
102dcb10:	e1a0000b 	mov	r0, fp
102dcb14:	e12fff33 	blx	r3
102dcb18:	e597104c 	ldr	r1, [r7, #76]	; 0x4c
102dcb1c:	e1a0c004 	mov	ip, r4
102dcb20:	e5870000 	str	r0, [r7]
102dcb24:	ea000002 	b	102dcb34 <OnURCHandler_BTScan+0x11c>
102dcb28:	e2855001 	add	r5, r5, #1
102dcb2c:	e355001e 	cmp	r5, #30
102dcb30:	0a000036 	beq	102dcc10 <OnURCHandler_BTScan+0x1f8>
102dcb34:	e5bc3004 	ldr	r3, [ip, #4]!
102dcb38:	e3530000 	cmp	r3, #0
102dcb3c:	0afffff9 	beq	102dcb28 <OnURCHandler_BTScan+0x110>
102dcb40:	e593e000 	ldr	lr, [r3]
102dcb44:	e150000e 	cmp	r0, lr
102dcb48:	1afffff6 	bne	102dcb28 <OnURCHandler_BTScan+0x110>
102dcb4c:	e3a02038 	mov	r2, #56	; 0x38
102dcb50:	e583104c 	str	r1, [r3, #76]	; 0x4c
102dcb54:	e2830004 	add	r0, r3, #4
102dcb58:	e3a01000 	mov	r1, #0
102dcb5c:	e12fff3a 	blx	sl
102dcb60:	e7960105 	ldr	r0, [r6, r5, lsl #2]
102dcb64:	e1a01008 	mov	r1, r8
102dcb68:	e59f3160 	ldr	r3, [pc, #352]	; 102dccd0 <OnURCHandler_BTScan+0x2b8>
102dcb6c:	e2800004 	add	r0, r0, #4
102dcb70:	e12fff33 	blx	r3
102dcb74:	e3a03000 	mov	r3, #0
102dcb78:	e3a00001 	mov	r0, #1
102dcb7c:	e596c090 	ldr	ip, [r6, #144]	; 0x90
102dcb80:	e3a01003 	mov	r1, #3
102dcb84:	e1a02007 	mov	r2, r7
102dcb88:	e12fff3c 	blx	ip
102dcb8c:	e1a00007 	mov	r0, r7
102dcb90:	e59f313c 	ldr	r3, [pc, #316]	; 102dccd4 <OnURCHandler_BTScan+0x2bc>
102dcb94:	e12fff33 	blx	r3
102dcb98:	e28dd01c 	add	sp, sp, #28
102dcb9c:	e8bd8ff0 	pop	{r4, r5, r6, r7, r8, r9, sl, fp, pc}
102dcba0:	e2441020 	sub	r1, r4, #32
102dcba4:	e59f3124 	ldr	r3, [pc, #292]	; 102dccd0 <OnURCHandler_BTScan+0x2b8>
102dcba8:	e28d0008 	add	r0, sp, #8
102dcbac:	e12fff33 	blx	r3
102dcbb0:	e1a00009 	mov	r0, r9
102dcbb4:	e28d1008 	add	r1, sp, #8
102dcbb8:	e12fff37 	blx	r7
102dcbbc:	e3500000 	cmp	r0, #0
102dcbc0:	0afffff4 	beq	102dcb98 <OnURCHandler_BTScan+0x180>
102dcbc4:	e59f30e4 	ldr	r3, [pc, #228]	; 102dccb0 <OnURCHandler_BTScan+0x298>
102dcbc8:	e28d2004 	add	r2, sp, #4
102dcbcc:	e5933000 	ldr	r3, [r3]
102dcbd0:	e1a00009 	mov	r0, r9
102dcbd4:	e59f10fc 	ldr	r1, [pc, #252]	; 102dccd8 <OnURCHandler_BTScan+0x2c0>
102dcbd8:	e12fff33 	blx	r3
102dcbdc:	e1a02008 	mov	r2, r8
102dcbe0:	e596c090 	ldr	ip, [r6, #144]	; 0x90
102dcbe4:	e3a00001 	mov	r0, #1
102dcbe8:	e59d1004 	ldr	r1, [sp, #4]
102dcbec:	e1a03008 	mov	r3, r8
102dcbf0:	e12fff3c 	blx	ip
102dcbf4:	eaffffe7 	b	102dcb98 <OnURCHandler_BTScan+0x180>
102dcbf8:	e596c090 	ldr	ip, [r6, #144]	; 0x90
102dcbfc:	e3a00001 	mov	r0, #1
102dcc00:	e3a01002 	mov	r1, #2
102dcc04:	e1a03002 	mov	r3, r2
102dcc08:	e12fff3c 	blx	ip
102dcc0c:	eaffffe1 	b	102dcb98 <OnURCHandler_BTScan+0x180>
102dcc10:	e596c090 	ldr	ip, [r6, #144]	; 0x90
102dcc14:	e59f608c 	ldr	r6, [pc, #140]	; 102dcca8 <OnURCHandler_BTScan+0x290>
102dcc18:	e3a00001 	mov	r0, #1
102dcc1c:	e1a02007 	mov	r2, r7
102dcc20:	e3a01003 	mov	r1, #3
102dcc24:	e3a03000 	mov	r3, #0
102dcc28:	e12fff3c 	blx	ip
102dcc2c:	e1a00006 	mov	r0, r6
102dcc30:	e2862074 	add	r2, r6, #116	; 0x74
102dcc34:	e3a0c000 	mov	ip, #0
102dcc38:	e5b43004 	ldr	r3, [r4, #4]!
102dcc3c:	e28c1001 	add	r1, ip, #1
102dcc40:	e3530000 	cmp	r3, #0
102dcc44:	e1a01801 	lsl	r1, r1, #16
102dcc48:	11a0c821 	lsrne	ip, r1, #16
102dcc4c:	e1540002 	cmp	r4, r2
102dcc50:	1afffff8 	bne	102dcc38 <OnURCHandler_BTScan+0x220>
102dcc54:	e35c001d 	cmp	ip, #29
102dcc58:	9a000003 	bls	102dcc6c <OnURCHandler_BTScan+0x254>
102dcc5c:	e1a00007 	mov	r0, r7
102dcc60:	e59f306c 	ldr	r3, [pc, #108]	; 102dccd4 <OnURCHandler_BTScan+0x2bc>
102dcc64:	e12fff33 	blx	r3
102dcc68:	eaffffca 	b	102dcb98 <OnURCHandler_BTScan+0x180>
102dcc6c:	e5961000 	ldr	r1, [r6]
102dcc70:	e3510000 	cmp	r1, #0
102dcc74:	0a000008 	beq	102dcc9c <OnURCHandler_BTScan+0x284>
102dcc78:	e3a03001 	mov	r3, #1
102dcc7c:	ea000001 	b	102dcc88 <OnURCHandler_BTScan+0x270>
102dcc80:	e353001e 	cmp	r3, #30
102dcc84:	0affffc3 	beq	102dcb98 <OnURCHandler_BTScan+0x180>
102dcc88:	e5b02004 	ldr	r2, [r0, #4]!
102dcc8c:	e1a01003 	mov	r1, r3
102dcc90:	e3520000 	cmp	r2, #0
102dcc94:	e2833001 	add	r3, r3, #1
102dcc98:	1afffff8 	bne	102dcc80 <OnURCHandler_BTScan+0x268>
102dcc9c:	e7867101 	str	r7, [r6, r1, lsl #2]
102dcca0:	eaffffbc 	b	102dcb98 <OnURCHandler_BTScan+0x180>
102dcca4:	102e7338 	.word	0x102e7338
102dcca8:	f03d3958 	.word	0xf03d3958
102dccac:	102e1cc4 	.word	0x102e1cc4
102dccb0:	f03d672c 	.word	0xf03d672c
102dccb4:	102e8014 	.word	0x102e8014
102dccb8:	102e5730 	.word	0x102e5730
102dccbc:	102e6774 	.word	0x102e6774
102dccc0:	102e803c 	.word	0x102e803c
102dccc4:	102e8178 	.word	0x102e8178
102dccc8:	102e6624 	.word	0x102e6624
102dcccc:	102e2110 	.word	0x102e2110
102dccd0:	102e6474 	.word	0x102e6474
102dccd4:	102e57a8 	.word	0x102e57a8
102dccd8:	102e7ff4 	.word	0x102e7ff4

102dccdc <RIL_BT_GetDevListInfo>:
102dccdc:	e92d40f0 	push	{r4, r5, r6, r7, lr}
102dcce0:	e59f4060 	ldr	r4, [pc, #96]	; 102dcd48 <RIL_BT_GetDevListInfo+0x6c>
102dcce4:	e59f7060 	ldr	r7, [pc, #96]	; 102dcd4c <RIL_BT_GetDevListInfo+0x70>
102dcce8:	e24dd014 	sub	sp, sp, #20
102dccec:	e2846078 	add	r6, r4, #120	; 0x78
102dccf0:	e5b4c004 	ldr	ip, [r4, #4]!
102dccf4:	e59f0054 	ldr	r0, [pc, #84]	; 102dcd50 <RIL_BT_GetDevListInfo+0x74>
102dccf8:	e35c0000 	cmp	ip, #0
102dccfc:	e28c5004 	add	r5, ip, #4
102dcd00:	e28c103c 	add	r1, ip, #60	; 0x3c
102dcd04:	0a00000a 	beq	102dcd34 <RIL_BT_GetDevListInfo+0x58>
102dcd08:	e59ce050 	ldr	lr, [ip, #80]	; 0x50
102dcd0c:	e59c204c 	ldr	r2, [ip, #76]	; 0x4c
102dcd10:	e59c3000 	ldr	r3, [ip]
102dcd14:	e58de000 	str	lr, [sp]
102dcd18:	e59ce054 	ldr	lr, [ip, #84]	; 0x54
102dcd1c:	e58de004 	str	lr, [sp, #4]
102dcd20:	e59cc058 	ldr	ip, [ip, #88]	; 0x58
102dcd24:	e58dc008 	str	ip, [sp, #8]
102dcd28:	e58d500c 	str	r5, [sp, #12]
102dcd2c:	e597c000 	ldr	ip, [r7]
102dcd30:	e12fff3c 	blx	ip
102dcd34:	e1540006 	cmp	r4, r6
102dcd38:	1affffec 	bne	102dccf0 <RIL_BT_GetDevListInfo+0x14>
102dcd3c:	e3a00000 	mov	r0, #0
102dcd40:	e28dd014 	add	sp, sp, #20
102dcd44:	e8bd80f0 	pop	{r4, r5, r6, r7, pc}
102dcd48:	f03d3954 	.word	0xf03d3954
102dcd4c:	f03d6724 	.word	0xf03d6724
102dcd50:	102e8190 	.word	0x102e8190

102dcd54 <RIL_BT_GetDevListPointer>:
102dcd54:	e59f0000 	ldr	r0, [pc]	; 102dcd5c <RIL_BT_GetDevListPointer+0x8>
102dcd58:	e12fff1e 	bx	lr
102dcd5c:	f03d3958 	.word	0xf03d3958

102dcd60 <RIL_BT_StopScan>:
102dcd60:	e59f3044 	ldr	r3, [pc, #68]	; 102dcdac <RIL_BT_StopScan+0x4c>
102dcd64:	e52de004 	push	{lr}		; (str lr, [sp, #-4]!)
102dcd68:	e893000f 	ldm	r3, {r0, r1, r2, r3}
102dcd6c:	e24dd01c 	sub	sp, sp, #28
102dcd70:	e28dc008 	add	ip, sp, #8
102dcd74:	e8ac0007 	stmia	ip!, {r0, r1, r2}
102dcd78:	e28d0008 	add	r0, sp, #8
102dcd7c:	e5cc3000 	strb	r3, [ip]
102dcd80:	e59f3028 	ldr	r3, [pc, #40]	; 102dcdb0 <RIL_BT_StopScan+0x50>
102dcd84:	e12fff33 	blx	r3
102dcd88:	e3a03000 	mov	r3, #0
102dcd8c:	e1a02003 	mov	r2, r3
102dcd90:	e58d3000 	str	r3, [sp]
102dcd94:	e59fc018 	ldr	ip, [pc, #24]	; 102dcdb4 <RIL_BT_StopScan+0x54>
102dcd98:	e1a01000 	mov	r1, r0
102dcd9c:	e28d0008 	add	r0, sp, #8
102dcda0:	e12fff3c 	blx	ip
102dcda4:	e28dd01c 	add	sp, sp, #28
102dcda8:	e8bd8000 	ldmfd	sp!, {pc}
102dcdac:	102e7348 	.word	0x102e7348
102dcdb0:	102e6624 	.word	0x102e6624
102dcdb4:	102e6158 	.word	0x102e6158

102dcdb8 <RIL_BT_QueryState>:
102dcdb8:	e59f204c 	ldr	r2, [pc, #76]	; 102dce0c <RIL_BT_QueryState+0x54>
102dcdbc:	e92d4010 	push	{r4, lr}
102dcdc0:	e1a04000 	mov	r4, r0
102dcdc4:	e892000f 	ldm	r2, {r0, r1, r2, r3}
102dcdc8:	e24dd018 	sub	sp, sp, #24
102dcdcc:	e28dc008 	add	ip, sp, #8
102dcdd0:	e8ac0007 	stmia	ip!, {r0, r1, r2}
102dcdd4:	e28d0008 	add	r0, sp, #8
102dcdd8:	e5cc3000 	strb	r3, [ip]
102dcddc:	e59f302c 	ldr	r3, [pc, #44]	; 102dce10 <RIL_BT_QueryState+0x58>
102dcde0:	e12fff33 	blx	r3
102dcde4:	e3a03000 	mov	r3, #0
102dcde8:	e58d3000 	str	r3, [sp]
102dcdec:	e59f2020 	ldr	r2, [pc, #32]	; 102dce14 <RIL_BT_QueryState+0x5c>
102dcdf0:	e1a03004 	mov	r3, r4
102dcdf4:	e59fc01c 	ldr	ip, [pc, #28]	; 102dce18 <RIL_BT_QueryState+0x60>
102dcdf8:	e1a01000 	mov	r1, r0
102dcdfc:	e28d0008 	add	r0, sp, #8
102dce00:	e12fff3c 	blx	ip
102dce04:	e28dd018 	add	sp, sp, #24
102dce08:	e8bd8010 	pop	{r4, pc}
102dce0c:	102e7358 	.word	0x102e7358
102dce10:	102e6624 	.word	0x102e6624
102dce14:	102db784 	.word	0x102db784
102dce18:	102e6158 	.word	0x102e6158

102dce1c <RIL_BT_StartScan>:
102dce1c:	e3500014 	cmp	r0, #20
102dce20:	e92d4070 	push	{r4, r5, r6, lr}
102dce24:	e1a04000 	mov	r4, r0
102dce28:	e24dd020 	sub	sp, sp, #32
102dce2c:	e1a05001 	mov	r5, r1
102dce30:	e1a06002 	mov	r6, r2
102dce34:	8a000021 	bhi	102dcec0 <RIL_BT_StartScan+0xa4>
102dce38:	e35100ff 	cmp	r1, #255	; 0xff
102dce3c:	8a00001f 	bhi	102dcec0 <RIL_BT_StartScan+0xa4>
102dce40:	e2423001 	sub	r3, r2, #1
102dce44:	e1a03803 	lsl	r3, r3, #16
102dce48:	e35308fe 	cmp	r3, #16646144	; 0xfe0000
102dce4c:	8a00001b 	bhi	102dcec0 <RIL_BT_StartScan+0xa4>
102dce50:	ebfffa3c 	bl	102db748 <BT_DevMngmt_Clean>
102dce54:	e3a00000 	mov	r0, #0
102dce58:	ebffffd6 	bl	102dcdb8 <RIL_BT_QueryState>
102dce5c:	e3a01000 	mov	r1, #0
102dce60:	e3a02014 	mov	r2, #20
102dce64:	e59f305c 	ldr	r3, [pc, #92]	; 102dcec8 <RIL_BT_StartScan+0xac>
102dce68:	e28d000c 	add	r0, sp, #12
102dce6c:	e12fff33 	blx	r3
102dce70:	e59f0054 	ldr	r0, [pc, #84]	; 102dcecc <RIL_BT_StartScan+0xb0>
102dce74:	e59f1054 	ldr	r1, [pc, #84]	; 102dced0 <RIL_BT_StartScan+0xb4>
102dce78:	e1a02006 	mov	r2, r6
102dce7c:	e1a03004 	mov	r3, r4
102dce80:	e58d5000 	str	r5, [sp]
102dce84:	e590c000 	ldr	ip, [r0]
102dce88:	e28d000c 	add	r0, sp, #12
102dce8c:	e12fff3c 	blx	ip
102dce90:	e59f303c 	ldr	r3, [pc, #60]	; 102dced4 <RIL_BT_StartScan+0xb8>
102dce94:	e28d000c 	add	r0, sp, #12
102dce98:	e12fff33 	blx	r3
102dce9c:	e3a03000 	mov	r3, #0
102dcea0:	e1a02003 	mov	r2, r3
102dcea4:	e58d3000 	str	r3, [sp]
102dcea8:	e59fc028 	ldr	ip, [pc, #40]	; 102dced8 <RIL_BT_StartScan+0xbc>
102dceac:	e1a01000 	mov	r1, r0
102dceb0:	e28d000c 	add	r0, sp, #12
102dceb4:	e12fff3c 	blx	ip
102dceb8:	e28dd020 	add	sp, sp, #32
102dcebc:	e8bd8070 	pop	{r4, r5, r6, pc}
102dcec0:	e3e00003 	mvn	r0, #3
102dcec4:	eafffffb 	b	102dceb8 <RIL_BT_StartScan+0x9c>
102dcec8:	102e6774 	.word	0x102e6774
102dcecc:	f03d6720 	.word	0xf03d6720
102dced0:	102e81b0 	.word	0x102e81b0
102dced4:	102e6624 	.word	0x102e6624
102dced8:	102e6158 	.word	0x102e6158

102dcedc <RIL_BT_Initialize>:
102dcedc:	e92d4010 	push	{r4, lr}
102dcee0:	e2504000 	subs	r4, r0, #0
102dcee4:	0a000006 	beq	102dcf04 <RIL_BT_Initialize+0x28>
102dcee8:	ebfffa16 	bl	102db748 <BT_DevMngmt_Clean>
102dceec:	e59f3018 	ldr	r3, [pc, #24]	; 102dcf0c <RIL_BT_Initialize+0x30>
102dcef0:	e3a00000 	mov	r0, #0
102dcef4:	e5834090 	str	r4, [r3, #144]	; 0x90
102dcef8:	ebffffae 	bl	102dcdb8 <RIL_BT_QueryState>
102dcefc:	e3a00000 	mov	r0, #0
102dcf00:	e8bd8010 	pop	{r4, pc}
102dcf04:	e3e00003 	mvn	r0, #3
102dcf08:	e8bd8010 	pop	{r4, pc}
102dcf0c:	f03d3958 	.word	0xf03d3958

102dcf10 <RIL_BT_PairReq>:
102dcf10:	e59f308c 	ldr	r3, [pc, #140]	; 102dcfa4 <RIL_BT_PairReq+0x94>
102dcf14:	e52de004 	push	{lr}		; (str lr, [sp, #-4]!)
102dcf18:	e5932000 	ldr	r2, [r3]
102dcf1c:	e24dd024 	sub	sp, sp, #36	; 0x24
102dcf20:	e5921000 	ldr	r1, [r2]
102dcf24:	e1500001 	cmp	r0, r1
102dcf28:	0a000007 	beq	102dcf4c <RIL_BT_PairReq+0x3c>
102dcf2c:	e283c074 	add	ip, r3, #116	; 0x74
102dcf30:	ea000001 	b	102dcf3c <RIL_BT_PairReq+0x2c>
102dcf34:	e153000c 	cmp	r3, ip
102dcf38:	0a000017 	beq	102dcf9c <RIL_BT_PairReq+0x8c>
102dcf3c:	e5b32004 	ldr	r2, [r3, #4]!
102dcf40:	e5921000 	ldr	r1, [r2]
102dcf44:	e1500001 	cmp	r0, r1
102dcf48:	1afffff9 	bne	102dcf34 <RIL_BT_PairReq+0x24>
102dcf4c:	e592204c 	ldr	r2, [r2, #76]	; 0x4c
102dcf50:	e3520000 	cmp	r2, #0
102dcf54:	0a000010 	beq	102dcf9c <RIL_BT_PairReq+0x8c>
102dcf58:	e59f3048 	ldr	r3, [pc, #72]	; 102dcfa8 <RIL_BT_PairReq+0x98>
102dcf5c:	e59f1048 	ldr	r1, [pc, #72]	; 102dcfac <RIL_BT_PairReq+0x9c>
102dcf60:	e5933000 	ldr	r3, [r3]
102dcf64:	e28d000c 	add	r0, sp, #12
102dcf68:	e12fff33 	blx	r3
102dcf6c:	e59f303c 	ldr	r3, [pc, #60]	; 102dcfb0 <RIL_BT_PairReq+0xa0>
102dcf70:	e28d000c 	add	r0, sp, #12
102dcf74:	e12fff33 	blx	r3
102dcf78:	e3a03000 	mov	r3, #0
102dcf7c:	e1a02003 	mov	r2, r3
102dcf80:	e58d3000 	str	r3, [sp]
102dcf84:	e59fc028 	ldr	ip, [pc, #40]	; 102dcfb4 <RIL_BT_PairReq+0xa4>
102dcf88:	e1a01000 	mov	r1, r0
102dcf8c:	e28d000c 	add	r0, sp, #12
102dcf90:	e12fff3c 	blx	ip
102dcf94:	e28dd024 	add	sp, sp, #36	; 0x24
102dcf98:	e8bd8000 	ldmfd	sp!, {pc}
102dcf9c:	e3e00003 	mvn	r0, #3
102dcfa0:	eafffffb 	b	102dcf94 <RIL_BT_PairReq+0x84>
102dcfa4:	f03d3958 	.word	0xf03d3958
102dcfa8:	f03d6720 	.word	0xf03d6720
102dcfac:	102e81c4 	.word	0x102e81c4
102dcfb0:	102e6624 	.word	0x102e6624
102dcfb4:	102e6158 	.word	0x102e6158

102dcfb8 <OnURCHandler_BTPair>:
102dcfb8:	e92d45f0 	push	{r4, r5, r6, r7, r8, sl, lr}
102dcfbc:	e3a0204c 	mov	r2, #76	; 0x4c
102dcfc0:	e24dd09c 	sub	sp, sp, #156	; 0x9c
102dcfc4:	e3a04000 	mov	r4, #0
102dcfc8:	e1a01004 	mov	r1, r4
102dcfcc:	e59f61b8 	ldr	r6, [pc, #440]	; 102dd18c <OnURCHandler_BTPair+0x1d4>
102dcfd0:	e1a05000 	mov	r5, r0
102dcfd4:	e59f71b4 	ldr	r7, [pc, #436]	; 102dd190 <OnURCHandler_BTPair+0x1d8>
102dcfd8:	e08d0002 	add	r0, sp, r2
102dcfdc:	e58d4000 	str	r4, [sp]
102dcfe0:	e58d4004 	str	r4, [sp, #4]
102dcfe4:	e1cd40b8 	strh	r4, [sp, #8]
102dcfe8:	e5cd400a 	strb	r4, [sp, #10]
102dcfec:	e58d402c 	str	r4, [sp, #44]	; 0x2c
102dcff0:	e58d4030 	str	r4, [sp, #48]	; 0x30
102dcff4:	e58d4034 	str	r4, [sp, #52]	; 0x34
102dcff8:	e58d4038 	str	r4, [sp, #56]	; 0x38
102dcffc:	e58d403c 	str	r4, [sp, #60]	; 0x3c
102dd000:	e58d4040 	str	r4, [sp, #64]	; 0x40
102dd004:	e58d4044 	str	r4, [sp, #68]	; 0x44
102dd008:	e1cd44b8 	strh	r4, [sp, #72]	; 0x48
102dd00c:	e12fff36 	blx	r6
102dd010:	e28d0004 	add	r0, sp, #4
102dd014:	e1a01004 	mov	r1, r4
102dd018:	e3a02007 	mov	r2, #7
102dd01c:	e12fff36 	blx	r6
102dd020:	e5973090 	ldr	r3, [r7, #144]	; 0x90
102dd024:	e1530004 	cmp	r3, r4
102dd028:	0a000030 	beq	102dd0f0 <OnURCHandler_BTPair+0x138>
102dd02c:	e59f1160 	ldr	r1, [pc, #352]	; 102dd194 <OnURCHandler_BTPair+0x1dc>
102dd030:	e28d000c 	add	r0, sp, #12
102dd034:	e59f815c 	ldr	r8, [pc, #348]	; 102dd198 <OnURCHandler_BTPair+0x1e0>
102dd038:	e12fff38 	blx	r8
102dd03c:	e59f6158 	ldr	r6, [pc, #344]	; 102dd19c <OnURCHandler_BTPair+0x1e4>
102dd040:	e1a00005 	mov	r0, r5
102dd044:	e28d100c 	add	r1, sp, #12
102dd048:	e12fff36 	blx	r6
102dd04c:	e250a000 	subs	sl, r0, #0
102dd050:	0a000028 	beq	102dd0f8 <OnURCHandler_BTPair+0x140>
102dd054:	e59f6144 	ldr	r6, [pc, #324]	; 102dd1a0 <OnURCHandler_BTPair+0x1e8>
102dd058:	e59f1144 	ldr	r1, [pc, #324]	; 102dd1a4 <OnURCHandler_BTPair+0x1ec>
102dd05c:	e28d2050 	add	r2, sp, #80	; 0x50
102dd060:	e5963000 	ldr	r3, [r6]
102dd064:	e1a00005 	mov	r0, r5
102dd068:	e12fff33 	blx	r3
102dd06c:	e28d202c 	add	r2, sp, #44	; 0x2c
102dd070:	e5963000 	ldr	r3, [r6]
102dd074:	e59f112c 	ldr	r1, [pc, #300]	; 102dd1a8 <OnURCHandler_BTPair+0x1f0>
102dd078:	e1a00005 	mov	r0, r5
102dd07c:	e12fff33 	blx	r3
102dd080:	e59f8124 	ldr	r8, [pc, #292]	; 102dd1ac <OnURCHandler_BTPair+0x1f4>
102dd084:	e28d002c 	add	r0, sp, #44	; 0x2c
102dd088:	e12fff38 	blx	r8
102dd08c:	e28d2088 	add	r2, sp, #136	; 0x88
102dd090:	e5963000 	ldr	r3, [r6]
102dd094:	e350000c 	cmp	r0, #12
102dd098:	e1a00005 	mov	r0, r5
102dd09c:	0a00002a 	beq	102dd14c <OnURCHandler_BTPair+0x194>
102dd0a0:	e59f1108 	ldr	r1, [pc, #264]	; 102dd1b0 <OnURCHandler_BTPair+0x1f8>
102dd0a4:	e12fff33 	blx	r3
102dd0a8:	e28d2004 	add	r2, sp, #4
102dd0ac:	e5963000 	ldr	r3, [r6]
102dd0b0:	e59f10fc 	ldr	r1, [pc, #252]	; 102dd1b4 <OnURCHandler_BTPair+0x1fc>
102dd0b4:	e1a00005 	mov	r0, r5
102dd0b8:	e12fff33 	blx	r3
102dd0bc:	e28d0088 	add	r0, sp, #136	; 0x88
102dd0c0:	e12fff38 	blx	r8
102dd0c4:	e59f30ec 	ldr	r3, [pc, #236]	; 102dd1b8 <OnURCHandler_BTPair+0x200>
102dd0c8:	e1a01000 	mov	r1, r0
102dd0cc:	e28d0088 	add	r0, sp, #136	; 0x88
102dd0d0:	e12fff33 	blx	r3
102dd0d4:	e597c090 	ldr	ip, [r7, #144]	; 0x90
102dd0d8:	e3a01005 	mov	r1, #5
102dd0dc:	e28d204c 	add	r2, sp, #76	; 0x4c
102dd0e0:	e28d3004 	add	r3, sp, #4
102dd0e4:	e58d004c 	str	r0, [sp, #76]	; 0x4c
102dd0e8:	e3a00002 	mov	r0, #2
102dd0ec:	e12fff3c 	blx	ip
102dd0f0:	e28dd09c 	add	sp, sp, #156	; 0x9c
102dd0f4:	e8bd85f0 	pop	{r4, r5, r6, r7, r8, sl, pc}
102dd0f8:	e59f10bc 	ldr	r1, [pc, #188]	; 102dd1bc <OnURCHandler_BTPair+0x204>
102dd0fc:	e28d000c 	add	r0, sp, #12
102dd100:	e12fff38 	blx	r8
102dd104:	e1a00005 	mov	r0, r5
102dd108:	e28d100c 	add	r1, sp, #12
102dd10c:	e12fff36 	blx	r6
102dd110:	e3500000 	cmp	r0, #0
102dd114:	0afffff5 	beq	102dd0f0 <OnURCHandler_BTPair+0x138>
102dd118:	e59f3080 	ldr	r3, [pc, #128]	; 102dd1a0 <OnURCHandler_BTPair+0x1e8>
102dd11c:	e1a0200d 	mov	r2, sp
102dd120:	e59f1098 	ldr	r1, [pc, #152]	; 102dd1c0 <OnURCHandler_BTPair+0x208>
102dd124:	e5933000 	ldr	r3, [r3]
102dd128:	e1a00005 	mov	r0, r5
102dd12c:	e12fff33 	blx	r3
102dd130:	e1a0200a 	mov	r2, sl
102dd134:	e597c090 	ldr	ip, [r7, #144]	; 0x90
102dd138:	e3a00002 	mov	r0, #2
102dd13c:	e59d1000 	ldr	r1, [sp]
102dd140:	e1a0300a 	mov	r3, sl
102dd144:	e12fff3c 	blx	ip
102dd148:	eaffffe8 	b	102dd0f0 <OnURCHandler_BTPair+0x138>
102dd14c:	e59f1054 	ldr	r1, [pc, #84]	; 102dd1a8 <OnURCHandler_BTPair+0x1f0>
102dd150:	e12fff33 	blx	r3
102dd154:	e28d0088 	add	r0, sp, #136	; 0x88
102dd158:	e12fff38 	blx	r8
102dd15c:	e59f3054 	ldr	r3, [pc, #84]	; 102dd1b8 <OnURCHandler_BTPair+0x200>
102dd160:	e1a01000 	mov	r1, r0
102dd164:	e28d0088 	add	r0, sp, #136	; 0x88
102dd168:	e12fff33 	blx	r3
102dd16c:	e597c090 	ldr	ip, [r7, #144]	; 0x90
102dd170:	e3a01004 	mov	r1, #4
102dd174:	e28d204c 	add	r2, sp, #76	; 0x4c
102dd178:	e1a03004 	mov	r3, r4
102dd17c:	e58d004c 	str	r0, [sp, #76]	; 0x4c
102dd180:	e3a00002 	mov	r0, #2
102dd184:	e12fff3c 	blx	ip
102dd188:	eaffffd8 	b	102dd0f0 <OnURCHandler_BTPair+0x138>
102dd18c:	102e6774 	.word	0x102e6774
102dd190:	f03d3958 	.word	0xf03d3958
102dd194:	102e7368 	.word	0x102e7368
102dd198:	102e6474 	.word	0x102e6474
102dd19c:	102e1cc4 	.word	0x102e1cc4
102dd1a0:	f03d672c 	.word	0xf03d672c
102dd1a4:	102e803c 	.word	0x102e803c
102dd1a8:	102e81d4 	.word	0x102e81d4
102dd1ac:	102e6624 	.word	0x102e6624
102dd1b0:	102e81e4 	.word	0x102e81e4
102dd1b4:	102e8178 	.word	0x102e8178
102dd1b8:	102e2110 	.word	0x102e2110
102dd1bc:	102e7318 	.word	0x102e7318
102dd1c0:	102e7ff4 	.word	0x102e7ff4

102dd1c4 <RIL_BT_PairConfirm>:
102dd1c4:	e92d4010 	push	{r4, lr}
102dd1c8:	e3a0c000 	mov	ip, #0
102dd1cc:	e24dd020 	sub	sp, sp, #32
102dd1d0:	e3500001 	cmp	r0, #1
102dd1d4:	e1a02000 	mov	r2, r0
102dd1d8:	e1a03001 	mov	r3, r1
102dd1dc:	e58dc00c 	str	ip, [sp, #12]
102dd1e0:	e58dc010 	str	ip, [sp, #16]
102dd1e4:	e58dc014 	str	ip, [sp, #20]
102dd1e8:	e58dc018 	str	ip, [sp, #24]
102dd1ec:	e58dc01c 	str	ip, [sp, #28]
102dd1f0:	8a000019 	bhi	102dd25c <RIL_BT_PairConfirm+0x98>
102dd1f4:	e151000c 	cmp	r1, ip
102dd1f8:	e28d400c 	add	r4, sp, #12
102dd1fc:	0a000010 	beq	102dd244 <RIL_BT_PairConfirm+0x80>
102dd200:	e59f105c 	ldr	r1, [pc, #92]	; 102dd264 <RIL_BT_PairConfirm+0xa0>
102dd204:	e1a00004 	mov	r0, r4
102dd208:	e591c000 	ldr	ip, [r1]
102dd20c:	e59f1054 	ldr	r1, [pc, #84]	; 102dd268 <RIL_BT_PairConfirm+0xa4>
102dd210:	e12fff3c 	blx	ip
102dd214:	e59f3050 	ldr	r3, [pc, #80]	; 102dd26c <RIL_BT_PairConfirm+0xa8>
102dd218:	e1a00004 	mov	r0, r4
102dd21c:	e12fff33 	blx	r3
102dd220:	e3a03000 	mov	r3, #0
102dd224:	e1a02003 	mov	r2, r3
102dd228:	e58d3000 	str	r3, [sp]
102dd22c:	e59fc03c 	ldr	ip, [pc, #60]	; 102dd270 <RIL_BT_PairConfirm+0xac>
102dd230:	e1a01000 	mov	r1, r0
102dd234:	e1a00004 	mov	r0, r4
102dd238:	e12fff3c 	blx	ip
102dd23c:	e28dd020 	add	sp, sp, #32
102dd240:	e8bd8010 	pop	{r4, pc}
102dd244:	e59f3018 	ldr	r3, [pc, #24]	; 102dd264 <RIL_BT_PairConfirm+0xa0>
102dd248:	e1a00004 	mov	r0, r4
102dd24c:	e5933000 	ldr	r3, [r3]
102dd250:	e59f101c 	ldr	r1, [pc, #28]	; 102dd274 <RIL_BT_PairConfirm+0xb0>
102dd254:	e12fff33 	blx	r3
102dd258:	eaffffed 	b	102dd214 <RIL_BT_PairConfirm+0x50>
102dd25c:	e3e00003 	mvn	r0, #3
102dd260:	eafffff5 	b	102dd23c <RIL_BT_PairConfirm+0x78>
102dd264:	f03d6720 	.word	0xf03d6720
102dd268:	102e81fc 	.word	0x102e81fc
102dd26c:	102e6624 	.word	0x102e6624
102dd270:	102e6158 	.word	0x102e6158
102dd274:	102e8214 	.word	0x102e8214

102dd278 <OnURCHandler_BTPairCnf>:
102dd278:	e92d45f0 	push	{r4, r5, r6, r7, r8, sl, lr}
102dd27c:	e3a05000 	mov	r5, #0
102dd280:	e24dd07c 	sub	sp, sp, #124	; 0x7c
102dd284:	e59f61e8 	ldr	r6, [pc, #488]	; 102dd474 <OnURCHandler_BTPairCnf+0x1fc>
102dd288:	e59f31e8 	ldr	r3, [pc, #488]	; 102dd478 <OnURCHandler_BTPairCnf+0x200>
102dd28c:	e1a04000 	mov	r4, r0
102dd290:	e1a01005 	mov	r1, r5
102dd294:	e28d002c 	add	r0, sp, #44	; 0x2c
102dd298:	e3a0204c 	mov	r2, #76	; 0x4c
102dd29c:	e58d5000 	str	r5, [sp]
102dd2a0:	e12fff33 	blx	r3
102dd2a4:	e5963090 	ldr	r3, [r6, #144]	; 0x90
102dd2a8:	e1530005 	cmp	r3, r5
102dd2ac:	0a000036 	beq	102dd38c <OnURCHandler_BTPairCnf+0x114>
102dd2b0:	e59f11c4 	ldr	r1, [pc, #452]	; 102dd47c <OnURCHandler_BTPairCnf+0x204>
102dd2b4:	e28d000c 	add	r0, sp, #12
102dd2b8:	e59f81c0 	ldr	r8, [pc, #448]	; 102dd480 <OnURCHandler_BTPairCnf+0x208>
102dd2bc:	e12fff38 	blx	r8
102dd2c0:	e59f71bc 	ldr	r7, [pc, #444]	; 102dd484 <OnURCHandler_BTPairCnf+0x20c>
102dd2c4:	e1a00004 	mov	r0, r4
102dd2c8:	e28d100c 	add	r1, sp, #12
102dd2cc:	e12fff37 	blx	r7
102dd2d0:	e250a000 	subs	sl, r0, #0
102dd2d4:	0a00002e 	beq	102dd394 <OnURCHandler_BTPairCnf+0x11c>
102dd2d8:	e59f71a8 	ldr	r7, [pc, #424]	; 102dd488 <OnURCHandler_BTPairCnf+0x210>
102dd2dc:	e1a00004 	mov	r0, r4
102dd2e0:	e5973000 	ldr	r3, [r7]
102dd2e4:	e59f11a0 	ldr	r1, [pc, #416]	; 102dd48c <OnURCHandler_BTPairCnf+0x214>
102dd2e8:	e1a0200d 	mov	r2, sp
102dd2ec:	e12fff33 	blx	r3
102dd2f0:	e59d3000 	ldr	r3, [sp]
102dd2f4:	e1530005 	cmp	r3, r5
102dd2f8:	da00003a 	ble	102dd3e8 <OnURCHandler_BTPairCnf+0x170>
102dd2fc:	e28d2004 	add	r2, sp, #4
102dd300:	e5973000 	ldr	r3, [r7]
102dd304:	e59f1184 	ldr	r1, [pc, #388]	; 102dd490 <OnURCHandler_BTPairCnf+0x218>
102dd308:	e1a00004 	mov	r0, r4
102dd30c:	e12fff33 	blx	r3
102dd310:	e28d2008 	add	r2, sp, #8
102dd314:	e5973000 	ldr	r3, [r7]
102dd318:	e59f1174 	ldr	r1, [pc, #372]	; 102dd494 <OnURCHandler_BTPairCnf+0x21c>
102dd31c:	e1a00004 	mov	r0, r4
102dd320:	e12fff33 	blx	r3
102dd324:	e28d2030 	add	r2, sp, #48	; 0x30
102dd328:	e5973000 	ldr	r3, [r7]
102dd32c:	e59f1164 	ldr	r1, [pc, #356]	; 102dd498 <OnURCHandler_BTPairCnf+0x220>
102dd330:	e1a00004 	mov	r0, r4
102dd334:	e12fff33 	blx	r3
102dd338:	e28d2068 	add	r2, sp, #104	; 0x68
102dd33c:	e59f1158 	ldr	r1, [pc, #344]	; 102dd49c <OnURCHandler_BTPairCnf+0x224>
102dd340:	e5973000 	ldr	r3, [r7]
102dd344:	e1a00004 	mov	r0, r4
102dd348:	e12fff33 	blx	r3
102dd34c:	e59f314c 	ldr	r3, [pc, #332]	; 102dd4a0 <OnURCHandler_BTPairCnf+0x228>
102dd350:	e28d0068 	add	r0, sp, #104	; 0x68
102dd354:	e12fff33 	blx	r3
102dd358:	e59f3144 	ldr	r3, [pc, #324]	; 102dd4a4 <OnURCHandler_BTPairCnf+0x22c>
102dd35c:	e1a01000 	mov	r1, r0
102dd360:	e28d0068 	add	r0, sp, #104	; 0x68
102dd364:	e12fff33 	blx	r3
102dd368:	e58d002c 	str	r0, [sp, #44]	; 0x2c
102dd36c:	e1a00005 	mov	r0, r5
102dd370:	ebfffe90 	bl	102dcdb8 <RIL_BT_QueryState>
102dd374:	e596c090 	ldr	ip, [r6, #144]	; 0x90
102dd378:	e3a00003 	mov	r0, #3
102dd37c:	e3a01006 	mov	r1, #6
102dd380:	e28d202c 	add	r2, sp, #44	; 0x2c
102dd384:	e1a03005 	mov	r3, r5
102dd388:	e12fff3c 	blx	ip
102dd38c:	e28dd07c 	add	sp, sp, #124	; 0x7c
102dd390:	e8bd85f0 	pop	{r4, r5, r6, r7, r8, sl, pc}
102dd394:	e59f110c 	ldr	r1, [pc, #268]	; 102dd4a8 <OnURCHandler_BTPairCnf+0x230>
102dd398:	e28d000c 	add	r0, sp, #12
102dd39c:	e12fff38 	blx	r8
102dd3a0:	e1a00004 	mov	r0, r4
102dd3a4:	e28d100c 	add	r1, sp, #12
102dd3a8:	e12fff37 	blx	r7
102dd3ac:	e3500000 	cmp	r0, #0
102dd3b0:	0afffff5 	beq	102dd38c <OnURCHandler_BTPairCnf+0x114>
102dd3b4:	e59f30cc 	ldr	r3, [pc, #204]	; 102dd488 <OnURCHandler_BTPairCnf+0x210>
102dd3b8:	e1a0200d 	mov	r2, sp
102dd3bc:	e59f10e8 	ldr	r1, [pc, #232]	; 102dd4ac <OnURCHandler_BTPairCnf+0x234>
102dd3c0:	e5933000 	ldr	r3, [r3]
102dd3c4:	e1a00004 	mov	r0, r4
102dd3c8:	e12fff33 	blx	r3
102dd3cc:	e1a0200a 	mov	r2, sl
102dd3d0:	e596c090 	ldr	ip, [r6, #144]	; 0x90
102dd3d4:	e3a00003 	mov	r0, #3
102dd3d8:	e59d1000 	ldr	r1, [sp]
102dd3dc:	e1a0300a 	mov	r3, sl
102dd3e0:	e12fff3c 	blx	ip
102dd3e4:	eaffffe8 	b	102dd38c <OnURCHandler_BTPairCnf+0x114>
102dd3e8:	e28d2068 	add	r2, sp, #104	; 0x68
102dd3ec:	e59f10bc 	ldr	r1, [pc, #188]	; 102dd4b0 <OnURCHandler_BTPairCnf+0x238>
102dd3f0:	e5973000 	ldr	r3, [r7]
102dd3f4:	e1a00004 	mov	r0, r4
102dd3f8:	e12fff33 	blx	r3
102dd3fc:	e59f309c 	ldr	r3, [pc, #156]	; 102dd4a0 <OnURCHandler_BTPairCnf+0x228>
102dd400:	e28d0068 	add	r0, sp, #104	; 0x68
102dd404:	e12fff33 	blx	r3
102dd408:	e59f3094 	ldr	r3, [pc, #148]	; 102dd4a4 <OnURCHandler_BTPairCnf+0x22c>
102dd40c:	e1a01000 	mov	r1, r0
102dd410:	e28d0068 	add	r0, sp, #104	; 0x68
102dd414:	e12fff33 	blx	r3
102dd418:	e5962000 	ldr	r2, [r6]
102dd41c:	e5923000 	ldr	r3, [r2]
102dd420:	e1500003 	cmp	r0, r3
102dd424:	e58d002c 	str	r0, [sp, #44]	; 0x2c
102dd428:	0a000008 	beq	102dd450 <OnURCHandler_BTPairCnf+0x1d8>
102dd42c:	e1a03006 	mov	r3, r6
102dd430:	e286c074 	add	ip, r6, #116	; 0x74
102dd434:	ea000001 	b	102dd440 <OnURCHandler_BTPairCnf+0x1c8>
102dd438:	e153000c 	cmp	r3, ip
102dd43c:	0a000005 	beq	102dd458 <OnURCHandler_BTPairCnf+0x1e0>
102dd440:	e5b32004 	ldr	r2, [r3, #4]!
102dd444:	e5921000 	ldr	r1, [r2]
102dd448:	e1500001 	cmp	r0, r1
102dd44c:	1afffff9 	bne	102dd438 <OnURCHandler_BTPairCnf+0x1c0>
102dd450:	e3e03000 	mvn	r3, #0
102dd454:	e5823050 	str	r3, [r2, #80]	; 0x50
102dd458:	e3a02000 	mov	r2, #0
102dd45c:	e596c090 	ldr	ip, [r6, #144]	; 0x90
102dd460:	e3a00003 	mov	r0, #3
102dd464:	e3a01007 	mov	r1, #7
102dd468:	e1a03002 	mov	r3, r2
102dd46c:	e12fff3c 	blx	ip
102dd470:	eaffffc5 	b	102dd38c <OnURCHandler_BTPairCnf+0x114>
102dd474:	f03d3958 	.word	0xf03d3958
102dd478:	102e6774 	.word	0x102e6774
102dd47c:	102e7378 	.word	0x102e7378
102dd480:	102e6474 	.word	0x102e6474
102dd484:	102e1cc4 	.word	0x102e1cc4
102dd488:	f03d672c 	.word	0xf03d672c
102dd48c:	102e8014 	.word	0x102e8014
102dd490:	102e8028 	.word	0x102e8028
102dd494:	102e8228 	.word	0x102e8228
102dd498:	102e803c 	.word	0x102e803c
102dd49c:	102e8244 	.word	0x102e8244
102dd4a0:	102e6624 	.word	0x102e6624
102dd4a4:	102e2110 	.word	0x102e2110
102dd4a8:	102e7318 	.word	0x102e7318
102dd4ac:	102e825c 	.word	0x102e825c
102dd4b0:	102e81d4 	.word	0x102e81d4

102dd4b4 <RIL_BT_Unpair>:
102dd4b4:	e92d4030 	push	{r4, r5, lr}
102dd4b8:	e59f5144 	ldr	r5, [pc, #324]	; 102dd604 <RIL_BT_Unpair+0x150>
102dd4bc:	e24dd024 	sub	sp, sp, #36	; 0x24
102dd4c0:	e5952000 	ldr	r2, [r5]
102dd4c4:	e1a04000 	mov	r4, r0
102dd4c8:	e5923000 	ldr	r3, [r2]
102dd4cc:	e1500003 	cmp	r0, r3
102dd4d0:	0a000008 	beq	102dd4f8 <RIL_BT_Unpair+0x44>
102dd4d4:	e1a03005 	mov	r3, r5
102dd4d8:	e2850074 	add	r0, r5, #116	; 0x74
102dd4dc:	ea000001 	b	102dd4e8 <RIL_BT_Unpair+0x34>
102dd4e0:	e1530000 	cmp	r3, r0
102dd4e4:	0a000040 	beq	102dd5ec <RIL_BT_Unpair+0x138>
102dd4e8:	e5b32004 	ldr	r2, [r3, #4]!
102dd4ec:	e5921000 	ldr	r1, [r2]
102dd4f0:	e1540001 	cmp	r4, r1
102dd4f4:	1afffff9 	bne	102dd4e0 <RIL_BT_Unpair+0x2c>
102dd4f8:	e5922050 	ldr	r2, [r2, #80]	; 0x50
102dd4fc:	e2423001 	sub	r3, r2, #1
102dd500:	e3530009 	cmp	r3, #9
102dd504:	8a000038 	bhi	102dd5ec <RIL_BT_Unpair+0x138>
102dd508:	e59f30f8 	ldr	r3, [pc, #248]	; 102dd608 <RIL_BT_Unpair+0x154>
102dd50c:	e59f10f8 	ldr	r1, [pc, #248]	; 102dd60c <RIL_BT_Unpair+0x158>
102dd510:	e5933000 	ldr	r3, [r3]
102dd514:	e28d000c 	add	r0, sp, #12
102dd518:	e12fff33 	blx	r3
102dd51c:	e59f30ec 	ldr	r3, [pc, #236]	; 102dd610 <RIL_BT_Unpair+0x15c>
102dd520:	e28d000c 	add	r0, sp, #12
102dd524:	e12fff33 	blx	r3
102dd528:	e3a03000 	mov	r3, #0
102dd52c:	e1a02003 	mov	r2, r3
102dd530:	e58d3000 	str	r3, [sp]
102dd534:	e59fc0d8 	ldr	ip, [pc, #216]	; 102dd614 <RIL_BT_Unpair+0x160>
102dd538:	e1a01000 	mov	r1, r0
102dd53c:	e28d000c 	add	r0, sp, #12
102dd540:	e12fff3c 	blx	ip
102dd544:	e3500000 	cmp	r0, #0
102dd548:	1a000025 	bne	102dd5e4 <RIL_BT_Unpair+0x130>
102dd54c:	e5952000 	ldr	r2, [r5]
102dd550:	e5923000 	ldr	r3, [r2]
102dd554:	e1540003 	cmp	r4, r3
102dd558:	0a000025 	beq	102dd5f4 <RIL_BT_Unpair+0x140>
102dd55c:	e59f30a0 	ldr	r3, [pc, #160]	; 102dd604 <RIL_BT_Unpair+0x150>
102dd560:	e2831074 	add	r1, r3, #116	; 0x74
102dd564:	e1a02003 	mov	r2, r3
102dd568:	ea000001 	b	102dd574 <RIL_BT_Unpair+0xc0>
102dd56c:	e1520001 	cmp	r2, r1
102dd570:	0a000005 	beq	102dd58c <RIL_BT_Unpair+0xd8>
102dd574:	e5b2c004 	ldr	ip, [r2, #4]!
102dd578:	e59c5000 	ldr	r5, [ip]
102dd57c:	e1540005 	cmp	r4, r5
102dd580:	1afffff9 	bne	102dd56c <RIL_BT_Unpair+0xb8>
102dd584:	e3e02000 	mvn	r2, #0
102dd588:	e58c2050 	str	r2, [ip, #80]	; 0x50
102dd58c:	e59f2070 	ldr	r2, [pc, #112]	; 102dd604 <RIL_BT_Unpair+0x150>
102dd590:	ea000001 	b	102dd59c <RIL_BT_Unpair+0xe8>
102dd594:	e1520001 	cmp	r2, r1
102dd598:	0a00000b 	beq	102dd5cc <RIL_BT_Unpair+0x118>
102dd59c:	e5b2c004 	ldr	ip, [r2, #4]!
102dd5a0:	e59c5000 	ldr	r5, [ip]
102dd5a4:	e1540005 	cmp	r4, r5
102dd5a8:	1afffff9 	bne	102dd594 <RIL_BT_Unpair+0xe0>
102dd5ac:	e3e02000 	mvn	r2, #0
102dd5b0:	e58c2054 	str	r2, [ip, #84]	; 0x54
102dd5b4:	e5b32004 	ldr	r2, [r3, #4]!
102dd5b8:	e592c000 	ldr	ip, [r2]
102dd5bc:	e154000c 	cmp	r4, ip
102dd5c0:	0a000005 	beq	102dd5dc <RIL_BT_Unpair+0x128>
102dd5c4:	e1530001 	cmp	r3, r1
102dd5c8:	0a000005 	beq	102dd5e4 <RIL_BT_Unpair+0x130>
102dd5cc:	e5b32004 	ldr	r2, [r3, #4]!
102dd5d0:	e592c000 	ldr	ip, [r2]
102dd5d4:	e154000c 	cmp	r4, ip
102dd5d8:	1afffff9 	bne	102dd5c4 <RIL_BT_Unpair+0x110>
102dd5dc:	e3e03000 	mvn	r3, #0
102dd5e0:	e5823058 	str	r3, [r2, #88]	; 0x58
102dd5e4:	e28dd024 	add	sp, sp, #36	; 0x24
102dd5e8:	e8bd8030 	pop	{r4, r5, pc}
102dd5ec:	e3e00003 	mvn	r0, #3
102dd5f0:	eafffffb 	b	102dd5e4 <RIL_BT_Unpair+0x130>
102dd5f4:	e3e03000 	mvn	r3, #0
102dd5f8:	e5823050 	str	r3, [r2, #80]	; 0x50
102dd5fc:	e5823054 	str	r3, [r2, #84]	; 0x54
102dd600:	eafffff5 	b	102dd5dc <RIL_BT_Unpair+0x128>
102dd604:	f03d3958 	.word	0xf03d3958
102dd608:	f03d6720 	.word	0xf03d6720
102dd60c:	102e826c 	.word	0x102e826c
102dd610:	102e6624 	.word	0x102e6624
102dd614:	102e6158 	.word	0x102e6158

102dd618 <RIL_BT_GetSupportedProfile>:
102dd618:	e59f3114 	ldr	r3, [pc, #276]	; 102dd734 <RIL_BT_GetSupportedProfile+0x11c>
102dd61c:	e92d41f0 	push	{r4, r5, r6, r7, r8, lr}
102dd620:	e593c000 	ldr	ip, [r3]
102dd624:	e24dd038 	sub	sp, sp, #56	; 0x38
102dd628:	e59c5000 	ldr	r5, [ip]
102dd62c:	e3a04000 	mov	r4, #0
102dd630:	e1a06002 	mov	r6, r2
102dd634:	e1500005 	cmp	r0, r5
102dd638:	e3e02000 	mvn	r2, #0
102dd63c:	e1a07001 	mov	r7, r1
102dd640:	e58d4020 	str	r4, [sp, #32]
102dd644:	e58d4024 	str	r4, [sp, #36]	; 0x24
102dd648:	e58d4028 	str	r4, [sp, #40]	; 0x28
102dd64c:	e58d402c 	str	r4, [sp, #44]	; 0x2c
102dd650:	e58d4030 	str	r4, [sp, #48]	; 0x30
102dd654:	e58d4034 	str	r4, [sp, #52]	; 0x34
102dd658:	e58d201c 	str	r2, [sp, #28]
102dd65c:	0a000007 	beq	102dd680 <RIL_BT_GetSupportedProfile+0x68>
102dd660:	e2835074 	add	r5, r3, #116	; 0x74
102dd664:	ea000001 	b	102dd670 <RIL_BT_GetSupportedProfile+0x58>
102dd668:	e1530005 	cmp	r3, r5
102dd66c:	0a00002e 	beq	102dd72c <RIL_BT_GetSupportedProfile+0x114>
102dd670:	e5b3c004 	ldr	ip, [r3, #4]!
102dd674:	e59c4000 	ldr	r4, [ip]
102dd678:	e1500004 	cmp	r0, r4
102dd67c:	1afffff9 	bne	102dd668 <RIL_BT_GetSupportedProfile+0x50>
102dd680:	e59c5050 	ldr	r5, [ip, #80]	; 0x50
102dd684:	e2453001 	sub	r3, r5, #1
102dd688:	e3530009 	cmp	r3, #9
102dd68c:	8a000026 	bhi	102dd72c <RIL_BT_GetSupportedProfile+0x114>
102dd690:	e3570000 	cmp	r7, #0
102dd694:	13560000 	cmpne	r6, #0
102dd698:	13a04000 	movne	r4, #0
102dd69c:	03a04001 	moveq	r4, #1
102dd6a0:	0a000021 	beq	102dd72c <RIL_BT_GetSupportedProfile+0x114>
102dd6a4:	e1a08106 	lsl	r8, r6, #2
102dd6a8:	e1a01004 	mov	r1, r4
102dd6ac:	e1a02008 	mov	r2, r8
102dd6b0:	e59f3080 	ldr	r3, [pc, #128]	; 102dd738 <RIL_BT_GetSupportedProfile+0x120>
102dd6b4:	e1a00007 	mov	r0, r7
102dd6b8:	e12fff33 	blx	r3
102dd6bc:	e59f3078 	ldr	r3, [pc, #120]	; 102dd73c <RIL_BT_GetSupportedProfile+0x124>
102dd6c0:	e59f1078 	ldr	r1, [pc, #120]	; 102dd740 <RIL_BT_GetSupportedProfile+0x128>
102dd6c4:	e1a02005 	mov	r2, r5
102dd6c8:	e5933000 	ldr	r3, [r3]
102dd6cc:	e28d0008 	add	r0, sp, #8
102dd6d0:	e12fff33 	blx	r3
102dd6d4:	e59f3068 	ldr	r3, [pc, #104]	; 102dd744 <RIL_BT_GetSupportedProfile+0x12c>
102dd6d8:	e28d0008 	add	r0, sp, #8
102dd6dc:	e12fff33 	blx	r3
102dd6e0:	e58d4000 	str	r4, [sp]
102dd6e4:	e59f205c 	ldr	r2, [pc, #92]	; 102dd748 <RIL_BT_GetSupportedProfile+0x130>
102dd6e8:	e28d301c 	add	r3, sp, #28
102dd6ec:	e59fc058 	ldr	ip, [pc, #88]	; 102dd74c <RIL_BT_GetSupportedProfile+0x134>
102dd6f0:	e1a01000 	mov	r1, r0
102dd6f4:	e28d0008 	add	r0, sp, #8
102dd6f8:	e12fff3c 	blx	ip
102dd6fc:	e2504000 	subs	r4, r0, #0
102dd700:	1a000006 	bne	102dd720 <RIL_BT_GetSupportedProfile+0x108>
102dd704:	e3560006 	cmp	r6, #6
102dd708:	e1a00007 	mov	r0, r7
102dd70c:	e28d101c 	add	r1, sp, #28
102dd710:	91a02008 	movls	r2, r8
102dd714:	83a0201c 	movhi	r2, #28
102dd718:	e59f3030 	ldr	r3, [pc, #48]	; 102dd750 <RIL_BT_GetSupportedProfile+0x138>
102dd71c:	e12fff33 	blx	r3
102dd720:	e1a00004 	mov	r0, r4
102dd724:	e28dd038 	add	sp, sp, #56	; 0x38
102dd728:	e8bd81f0 	pop	{r4, r5, r6, r7, r8, pc}
102dd72c:	e3e04003 	mvn	r4, #3
102dd730:	eafffffa 	b	102dd720 <RIL_BT_GetSupportedProfile+0x108>
102dd734:	f03d3958 	.word	0xf03d3958
102dd738:	102e6774 	.word	0x102e6774
102dd73c:	f03d6720 	.word	0xf03d6720
102dd740:	102e827c 	.word	0x102e827c
102dd744:	102e6624 	.word	0x102e6624
102dd748:	102dbde0 	.word	0x102dbde0
102dd74c:	102e6158 	.word	0x102e6158
102dd750:	102e67fc 	.word	0x102e67fc

102dd754 <RIL_BT_ConnReq>:
102dd754:	e3510006 	cmp	r1, #6
102dd758:	e92d40f0 	push	{r4, r5, r6, r7, lr}
102dd75c:	e1a03001 	mov	r3, r1
102dd760:	e24dd024 	sub	sp, sp, #36	; 0x24
102dd764:	e1a07002 	mov	r7, r2
102dd768:	8a000024 	bhi	102dd800 <RIL_BT_ConnReq+0xac>
102dd76c:	e3520002 	cmp	r2, #2
102dd770:	8a000022 	bhi	102dd800 <RIL_BT_ConnReq+0xac>
102dd774:	e59fc08c 	ldr	ip, [pc, #140]	; 102dd808 <RIL_BT_ConnReq+0xb4>
102dd778:	e59c4000 	ldr	r4, [ip]
102dd77c:	e5942000 	ldr	r2, [r4]
102dd780:	e1500002 	cmp	r0, r2
102dd784:	0a000007 	beq	102dd7a8 <RIL_BT_ConnReq+0x54>
102dd788:	e28c6074 	add	r6, ip, #116	; 0x74
102dd78c:	ea000001 	b	102dd798 <RIL_BT_ConnReq+0x44>
102dd790:	e15c0006 	cmp	ip, r6
102dd794:	0a000019 	beq	102dd800 <RIL_BT_ConnReq+0xac>
102dd798:	e5bc4004 	ldr	r4, [ip, #4]!
102dd79c:	e5945000 	ldr	r5, [r4]
102dd7a0:	e1500005 	cmp	r0, r5
102dd7a4:	1afffff9 	bne	102dd790 <RIL_BT_ConnReq+0x3c>
102dd7a8:	e5942050 	ldr	r2, [r4, #80]	; 0x50
102dd7ac:	e2421001 	sub	r1, r2, #1
102dd7b0:	e3510009 	cmp	r1, #9
102dd7b4:	8a000011 	bhi	102dd800 <RIL_BT_ConnReq+0xac>
102dd7b8:	e59f004c 	ldr	r0, [pc, #76]	; 102dd80c <RIL_BT_ConnReq+0xb8>
102dd7bc:	e59f104c 	ldr	r1, [pc, #76]	; 102dd810 <RIL_BT_ConnReq+0xbc>
102dd7c0:	e58d7000 	str	r7, [sp]
102dd7c4:	e590c000 	ldr	ip, [r0]
102dd7c8:	e28d000c 	add	r0, sp, #12
102dd7cc:	e12fff3c 	blx	ip
102dd7d0:	e59f303c 	ldr	r3, [pc, #60]	; 102dd814 <RIL_BT_ConnReq+0xc0>
102dd7d4:	e28d000c 	add	r0, sp, #12
102dd7d8:	e12fff33 	blx	r3
102dd7dc:	e3a03000 	mov	r3, #0
102dd7e0:	e1a02003 	mov	r2, r3
102dd7e4:	e58d3000 	str	r3, [sp]
102dd7e8:	e59fc028 	ldr	ip, [pc, #40]	; 102dd818 <RIL_BT_ConnReq+0xc4>
102dd7ec:	e1a01000 	mov	r1, r0
102dd7f0:	e28d000c 	add	r0, sp, #12
102dd7f4:	e12fff3c 	blx	ip
102dd7f8:	e28dd024 	add	sp, sp, #36	; 0x24
102dd7fc:	e8bd80f0 	pop	{r4, r5, r6, r7, pc}
102dd800:	e3e00003 	mvn	r0, #3
102dd804:	eafffffb 	b	102dd7f8 <RIL_BT_ConnReq+0xa4>
102dd808:	f03d3958 	.word	0xf03d3958
102dd80c:	f03d6720 	.word	0xf03d6720
102dd810:	102e828c 	.word	0x102e828c
102dd814:	102e6624 	.word	0x102e6624
102dd818:	102e6158 	.word	0x102e6158

102dd81c <OnURCHandler_BTConn>:
102dd81c:	e92d45f0 	push	{r4, r5, r6, r7, r8, sl, lr}
102dd820:	e3a04000 	mov	r4, #0
102dd824:	e24dd0a4 	sub	sp, sp, #164	; 0xa4
102dd828:	e59f6244 	ldr	r6, [pc, #580]	; 102dda74 <OnURCHandler_BTConn+0x258>
102dd82c:	e59f3244 	ldr	r3, [pc, #580]	; 102dda78 <OnURCHandler_BTConn+0x25c>
102dd830:	e1a05000 	mov	r5, r0
102dd834:	e1a01004 	mov	r1, r4
102dd838:	e28d0054 	add	r0, sp, #84	; 0x54
102dd83c:	e3a0204c 	mov	r2, #76	; 0x4c
102dd840:	e58d4004 	str	r4, [sp, #4]
102dd844:	e58d402c 	str	r4, [sp, #44]	; 0x2c
102dd848:	e58d4030 	str	r4, [sp, #48]	; 0x30
102dd84c:	e58d4034 	str	r4, [sp, #52]	; 0x34
102dd850:	e58d4038 	str	r4, [sp, #56]	; 0x38
102dd854:	e58d403c 	str	r4, [sp, #60]	; 0x3c
102dd858:	e58d4040 	str	r4, [sp, #64]	; 0x40
102dd85c:	e58d4044 	str	r4, [sp, #68]	; 0x44
102dd860:	e58d4048 	str	r4, [sp, #72]	; 0x48
102dd864:	e58d404c 	str	r4, [sp, #76]	; 0x4c
102dd868:	e58d4050 	str	r4, [sp, #80]	; 0x50
102dd86c:	e12fff33 	blx	r3
102dd870:	e5963090 	ldr	r3, [r6, #144]	; 0x90
102dd874:	e1530004 	cmp	r3, r4
102dd878:	0a000036 	beq	102dd958 <OnURCHandler_BTConn+0x13c>
102dd87c:	e59f11f8 	ldr	r1, [pc, #504]	; 102dda7c <OnURCHandler_BTConn+0x260>
102dd880:	e28d000c 	add	r0, sp, #12
102dd884:	e59f81f4 	ldr	r8, [pc, #500]	; 102dda80 <OnURCHandler_BTConn+0x264>
102dd888:	e12fff38 	blx	r8
102dd88c:	e59f71f0 	ldr	r7, [pc, #496]	; 102dda84 <OnURCHandler_BTConn+0x268>
102dd890:	e1a00005 	mov	r0, r5
102dd894:	e28d100c 	add	r1, sp, #12
102dd898:	e12fff37 	blx	r7
102dd89c:	e250a000 	subs	sl, r0, #0
102dd8a0:	0a00002e 	beq	102dd960 <OnURCHandler_BTConn+0x144>
102dd8a4:	e59f71dc 	ldr	r7, [pc, #476]	; 102dda88 <OnURCHandler_BTConn+0x26c>
102dd8a8:	e1a00005 	mov	r0, r5
102dd8ac:	e5973000 	ldr	r3, [r7]
102dd8b0:	e59f11d4 	ldr	r1, [pc, #468]	; 102dda8c <OnURCHandler_BTConn+0x270>
102dd8b4:	e28d2004 	add	r2, sp, #4
102dd8b8:	e12fff33 	blx	r3
102dd8bc:	e59d3004 	ldr	r3, [sp, #4]
102dd8c0:	e1530004 	cmp	r3, r4
102dd8c4:	da00003a 	ble	102dd9b4 <OnURCHandler_BTConn+0x198>
102dd8c8:	e28d2008 	add	r2, sp, #8
102dd8cc:	e5973000 	ldr	r3, [r7]
102dd8d0:	e59f11b8 	ldr	r1, [pc, #440]	; 102dda90 <OnURCHandler_BTConn+0x274>
102dd8d4:	e1a00005 	mov	r0, r5
102dd8d8:	e12fff33 	blx	r3
102dd8dc:	e28d2058 	add	r2, sp, #88	; 0x58
102dd8e0:	e5973000 	ldr	r3, [r7]
102dd8e4:	e59f11a8 	ldr	r1, [pc, #424]	; 102dda94 <OnURCHandler_BTConn+0x278>
102dd8e8:	e1a00005 	mov	r0, r5
102dd8ec:	e12fff33 	blx	r3
102dd8f0:	e28d2090 	add	r2, sp, #144	; 0x90
102dd8f4:	e5973000 	ldr	r3, [r7]
102dd8f8:	e59f1198 	ldr	r1, [pc, #408]	; 102dda98 <OnURCHandler_BTConn+0x27c>
102dd8fc:	e1a00005 	mov	r0, r5
102dd900:	e12fff33 	blx	r3
102dd904:	e28d202c 	add	r2, sp, #44	; 0x2c
102dd908:	e59f118c 	ldr	r1, [pc, #396]	; 102dda9c <OnURCHandler_BTConn+0x280>
102dd90c:	e5973000 	ldr	r3, [r7]
102dd910:	e1a00005 	mov	r0, r5
102dd914:	e12fff33 	blx	r3
102dd918:	e59f3180 	ldr	r3, [pc, #384]	; 102ddaa0 <OnURCHandler_BTConn+0x284>
102dd91c:	e28d0090 	add	r0, sp, #144	; 0x90
102dd920:	e12fff33 	blx	r3
102dd924:	e59f3178 	ldr	r3, [pc, #376]	; 102ddaa4 <OnURCHandler_BTConn+0x288>
102dd928:	e1a01000 	mov	r1, r0
102dd92c:	e28d0090 	add	r0, sp, #144	; 0x90
102dd930:	e12fff33 	blx	r3
102dd934:	e58d0054 	str	r0, [sp, #84]	; 0x54
102dd938:	e1a00004 	mov	r0, r4
102dd93c:	ebfffd1d 	bl	102dcdb8 <RIL_BT_QueryState>
102dd940:	e3a00008 	mov	r0, #8
102dd944:	e596c090 	ldr	ip, [r6, #144]	; 0x90
102dd948:	e1a01000 	mov	r1, r0
102dd94c:	e28d2054 	add	r2, sp, #84	; 0x54
102dd950:	e1a03004 	mov	r3, r4
102dd954:	e12fff3c 	blx	ip
102dd958:	e28dd0a4 	add	sp, sp, #164	; 0xa4
102dd95c:	e8bd85f0 	pop	{r4, r5, r6, r7, r8, sl, pc}
102dd960:	e59f1140 	ldr	r1, [pc, #320]	; 102ddaa8 <OnURCHandler_BTConn+0x28c>
102dd964:	e28d000c 	add	r0, sp, #12
102dd968:	e12fff38 	blx	r8
102dd96c:	e1a00005 	mov	r0, r5
102dd970:	e28d100c 	add	r1, sp, #12
102dd974:	e12fff37 	blx	r7
102dd978:	e3500000 	cmp	r0, #0
102dd97c:	0afffff5 	beq	102dd958 <OnURCHandler_BTConn+0x13c>
102dd980:	e59f3100 	ldr	r3, [pc, #256]	; 102dda88 <OnURCHandler_BTConn+0x26c>
102dd984:	e59d2004 	ldr	r2, [sp, #4]
102dd988:	e5933000 	ldr	r3, [r3]
102dd98c:	e1a00005 	mov	r0, r5
102dd990:	e59f1114 	ldr	r1, [pc, #276]	; 102ddaac <OnURCHandler_BTConn+0x290>
102dd994:	e12fff33 	blx	r3
102dd998:	e1a0200a 	mov	r2, sl
102dd99c:	e596c090 	ldr	ip, [r6, #144]	; 0x90
102dd9a0:	e3a00008 	mov	r0, #8
102dd9a4:	e59d1004 	ldr	r1, [sp, #4]
102dd9a8:	e1a0300a 	mov	r3, sl
102dd9ac:	e12fff3c 	blx	ip
102dd9b0:	eaffffe8 	b	102dd958 <OnURCHandler_BTConn+0x13c>
102dd9b4:	e28d2090 	add	r2, sp, #144	; 0x90
102dd9b8:	e59f10d8 	ldr	r1, [pc, #216]	; 102dda98 <OnURCHandler_BTConn+0x27c>
102dd9bc:	e5973000 	ldr	r3, [r7]
102dd9c0:	e1a00005 	mov	r0, r5
102dd9c4:	e12fff33 	blx	r3
102dd9c8:	e59f30d0 	ldr	r3, [pc, #208]	; 102ddaa0 <OnURCHandler_BTConn+0x284>
102dd9cc:	e28d0090 	add	r0, sp, #144	; 0x90
102dd9d0:	e12fff33 	blx	r3
102dd9d4:	e59f30c8 	ldr	r3, [pc, #200]	; 102ddaa4 <OnURCHandler_BTConn+0x288>
102dd9d8:	e1a01000 	mov	r1, r0
102dd9dc:	e28d0090 	add	r0, sp, #144	; 0x90
102dd9e0:	e12fff33 	blx	r3
102dd9e4:	e5962000 	ldr	r2, [r6]
102dd9e8:	e5923000 	ldr	r3, [r2]
102dd9ec:	e1500003 	cmp	r0, r3
102dd9f0:	e58d0054 	str	r0, [sp, #84]	; 0x54
102dd9f4:	0a00001b 	beq	102dda68 <OnURCHandler_BTConn+0x24c>
102dd9f8:	e1a03006 	mov	r3, r6
102dd9fc:	e286e074 	add	lr, r6, #116	; 0x74
102dda00:	e1a02006 	mov	r2, r6
102dda04:	ea000001 	b	102dda10 <OnURCHandler_BTConn+0x1f4>
102dda08:	e152000e 	cmp	r2, lr
102dda0c:	0a000008 	beq	102dda34 <OnURCHandler_BTConn+0x218>
102dda10:	e5b21004 	ldr	r1, [r2, #4]!
102dda14:	e591c000 	ldr	ip, [r1]
102dda18:	e150000c 	cmp	r0, ip
102dda1c:	1afffff9 	bne	102dda08 <OnURCHandler_BTConn+0x1ec>
102dda20:	e3e02000 	mvn	r2, #0
102dda24:	e5812054 	str	r2, [r1, #84]	; 0x54
102dda28:	ea000001 	b	102dda34 <OnURCHandler_BTConn+0x218>
102dda2c:	e153000e 	cmp	r3, lr
102dda30:	0a000005 	beq	102dda4c <OnURCHandler_BTConn+0x230>
102dda34:	e5b32004 	ldr	r2, [r3, #4]!
102dda38:	e5921000 	ldr	r1, [r2]
102dda3c:	e1500001 	cmp	r0, r1
102dda40:	1afffff9 	bne	102dda2c <OnURCHandler_BTConn+0x210>
102dda44:	e3e03000 	mvn	r3, #0
102dda48:	e5823058 	str	r3, [r2, #88]	; 0x58
102dda4c:	e3a02000 	mov	r2, #0
102dda50:	e596c090 	ldr	ip, [r6, #144]	; 0x90
102dda54:	e3a00008 	mov	r0, #8
102dda58:	e3a01009 	mov	r1, #9
102dda5c:	e1a03002 	mov	r3, r2
102dda60:	e12fff3c 	blx	ip
102dda64:	eaffffbb 	b	102dd958 <OnURCHandler_BTConn+0x13c>
102dda68:	e3e03000 	mvn	r3, #0
102dda6c:	e5823054 	str	r3, [r2, #84]	; 0x54
102dda70:	eafffff3 	b	102dda44 <OnURCHandler_BTConn+0x228>
102dda74:	f03d3958 	.word	0xf03d3958
102dda78:	102e6774 	.word	0x102e6774
102dda7c:	102e7388 	.word	0x102e7388
102dda80:	102e6474 	.word	0x102e6474
102dda84:	102e1cc4 	.word	0x102e1cc4
102dda88:	f03d672c 	.word	0xf03d672c
102dda8c:	102e8014 	.word	0x102e8014
102dda90:	102e8028 	.word	0x102e8028
102dda94:	102e803c 	.word	0x102e803c
102dda98:	102e82a0 	.word	0x102e82a0
102dda9c:	102e82c4 	.word	0x102e82c4
102ddaa0:	102e6624 	.word	0x102e6624
102ddaa4:	102e2110 	.word	0x102e2110
102ddaa8:	102e7318 	.word	0x102e7318
102ddaac:	102e7ff4 	.word	0x102e7ff4

102ddab0 <RIL_BT_SPP_DirectConn>:
102ddab0:	e3500000 	cmp	r0, #0
102ddab4:	e52de004 	push	{lr}		; (str lr, [sp, #-4]!)
102ddab8:	e1a03001 	mov	r3, r1
102ddabc:	e24dd024 	sub	sp, sp, #36	; 0x24
102ddac0:	e1a0c002 	mov	ip, r2
102ddac4:	0a000014 	beq	102ddb1c <RIL_BT_SPP_DirectConn+0x6c>
102ddac8:	e3510002 	cmp	r1, #2
102ddacc:	8a000012 	bhi	102ddb1c <RIL_BT_SPP_DirectConn+0x6c>
102ddad0:	e1a02000 	mov	r2, r0
102ddad4:	e59f0048 	ldr	r0, [pc, #72]	; 102ddb24 <RIL_BT_SPP_DirectConn+0x74>
102ddad8:	e59f1048 	ldr	r1, [pc, #72]	; 102ddb28 <RIL_BT_SPP_DirectConn+0x78>
102ddadc:	e58dc000 	str	ip, [sp]
102ddae0:	e590c000 	ldr	ip, [r0]
102ddae4:	e28d000c 	add	r0, sp, #12
102ddae8:	e12fff3c 	blx	ip
102ddaec:	e59f3038 	ldr	r3, [pc, #56]	; 102ddb2c <RIL_BT_SPP_DirectConn+0x7c>
102ddaf0:	e28d000c 	add	r0, sp, #12
102ddaf4:	e12fff33 	blx	r3
102ddaf8:	e3a03000 	mov	r3, #0
102ddafc:	e58d3000 	str	r3, [sp]
102ddb00:	e59f2028 	ldr	r2, [pc, #40]	; 102ddb30 <RIL_BT_SPP_DirectConn+0x80>
102ddb04:	e59fc028 	ldr	ip, [pc, #40]	; 102ddb34 <RIL_BT_SPP_DirectConn+0x84>
102ddb08:	e1a01000 	mov	r1, r0
102ddb0c:	e28d000c 	add	r0, sp, #12
102ddb10:	e12fff3c 	blx	ip
102ddb14:	e28dd024 	add	sp, sp, #36	; 0x24
102ddb18:	e8bd8000 	ldmfd	sp!, {pc}
102ddb1c:	e3e00003 	mvn	r0, #3
102ddb20:	eafffffb 	b	102ddb14 <RIL_BT_SPP_DirectConn+0x64>
102ddb24:	f03d6720 	.word	0xf03d6720
102ddb28:	102e82f0 	.word	0x102e82f0
102ddb2c:	102e6624 	.word	0x102e6624
102ddb30:	102db724 	.word	0x102db724
102ddb34:	102e6158 	.word	0x102e6158

102ddb38 <RIL_BT_ConnAccept>:
102ddb38:	e3500001 	cmp	r0, #1
102ddb3c:	e92d4010 	push	{r4, lr}
102ddb40:	e1a02001 	mov	r2, r1
102ddb44:	e24dd020 	sub	sp, sp, #32
102ddb48:	8a000015 	bhi	102ddba4 <RIL_BT_ConnAccept+0x6c>
102ddb4c:	e3510002 	cmp	r1, #2
102ddb50:	8a000013 	bhi	102ddba4 <RIL_BT_ConnAccept+0x6c>
102ddb54:	e59f3050 	ldr	r3, [pc, #80]	; 102ddbac <RIL_BT_ConnAccept+0x74>
102ddb58:	e3500001 	cmp	r0, #1
102ddb5c:	e28d400c 	add	r4, sp, #12
102ddb60:	059f1048 	ldreq	r1, [pc, #72]	; 102ddbb0 <RIL_BT_ConnAccept+0x78>
102ddb64:	159f1048 	ldrne	r1, [pc, #72]	; 102ddbb4 <RIL_BT_ConnAccept+0x7c>
102ddb68:	e5933000 	ldr	r3, [r3]
102ddb6c:	e1a00004 	mov	r0, r4
102ddb70:	e12fff33 	blx	r3
102ddb74:	e59f303c 	ldr	r3, [pc, #60]	; 102ddbb8 <RIL_BT_ConnAccept+0x80>
102ddb78:	e1a00004 	mov	r0, r4
102ddb7c:	e12fff33 	blx	r3
102ddb80:	e3a03000 	mov	r3, #0
102ddb84:	e1a02003 	mov	r2, r3
102ddb88:	e58d3000 	str	r3, [sp]
102ddb8c:	e59fc028 	ldr	ip, [pc, #40]	; 102ddbbc <RIL_BT_ConnAccept+0x84>
102ddb90:	e1a01000 	mov	r1, r0
102ddb94:	e1a00004 	mov	r0, r4
102ddb98:	e12fff3c 	blx	ip
102ddb9c:	e28dd020 	add	sp, sp, #32
102ddba0:	e8bd8010 	pop	{r4, pc}
102ddba4:	e3e00003 	mvn	r0, #3
102ddba8:	eafffffb 	b	102ddb9c <RIL_BT_ConnAccept+0x64>
102ddbac:	f03d6720 	.word	0xf03d6720
102ddbb0:	102e8308 	.word	0x102e8308
102ddbb4:	102e8318 	.word	0x102e8318
102ddbb8:	102e6624 	.word	0x102e6624
102ddbbc:	102e6158 	.word	0x102e6158

102ddbc0 <OnURCHandler_BTConnCnf>:
102ddbc0:	e92d41f0 	push	{r4, r5, r6, r7, r8, lr}
102ddbc4:	e3a04000 	mov	r4, #0
102ddbc8:	e24dd0a0 	sub	sp, sp, #160	; 0xa0
102ddbcc:	e59f52fc 	ldr	r5, [pc, #764]	; 102dded0 <OnURCHandler_BTConnCnf+0x310>
102ddbd0:	e59f32fc 	ldr	r3, [pc, #764]	; 102dded4 <OnURCHandler_BTConnCnf+0x314>
102ddbd4:	e1a06000 	mov	r6, r0
102ddbd8:	e1a01004 	mov	r1, r4
102ddbdc:	e28d0054 	add	r0, sp, #84	; 0x54
102ddbe0:	e3a0204c 	mov	r2, #76	; 0x4c
102ddbe4:	e58d4004 	str	r4, [sp, #4]
102ddbe8:	e58d402c 	str	r4, [sp, #44]	; 0x2c
102ddbec:	e58d4030 	str	r4, [sp, #48]	; 0x30
102ddbf0:	e58d4034 	str	r4, [sp, #52]	; 0x34
102ddbf4:	e58d4038 	str	r4, [sp, #56]	; 0x38
102ddbf8:	e58d403c 	str	r4, [sp, #60]	; 0x3c
102ddbfc:	e58d4040 	str	r4, [sp, #64]	; 0x40
102ddc00:	e58d4044 	str	r4, [sp, #68]	; 0x44
102ddc04:	e58d4048 	str	r4, [sp, #72]	; 0x48
102ddc08:	e58d404c 	str	r4, [sp, #76]	; 0x4c
102ddc0c:	e58d4050 	str	r4, [sp, #80]	; 0x50
102ddc10:	e12fff33 	blx	r3
102ddc14:	e5953090 	ldr	r3, [r5, #144]	; 0x90
102ddc18:	e1530004 	cmp	r3, r4
102ddc1c:	0a000036 	beq	102ddcfc <OnURCHandler_BTConnCnf+0x13c>
102ddc20:	e59f12b0 	ldr	r1, [pc, #688]	; 102dded8 <OnURCHandler_BTConnCnf+0x318>
102ddc24:	e28d000c 	add	r0, sp, #12
102ddc28:	e59f82ac 	ldr	r8, [pc, #684]	; 102ddedc <OnURCHandler_BTConnCnf+0x31c>
102ddc2c:	e12fff38 	blx	r8
102ddc30:	e59f72a8 	ldr	r7, [pc, #680]	; 102ddee0 <OnURCHandler_BTConnCnf+0x320>
102ddc34:	e1a00006 	mov	r0, r6
102ddc38:	e28d100c 	add	r1, sp, #12
102ddc3c:	e12fff37 	blx	r7
102ddc40:	e1500004 	cmp	r0, r4
102ddc44:	0a00002e 	beq	102ddd04 <OnURCHandler_BTConnCnf+0x144>
102ddc48:	e59f7294 	ldr	r7, [pc, #660]	; 102ddee4 <OnURCHandler_BTConnCnf+0x324>
102ddc4c:	e1a00006 	mov	r0, r6
102ddc50:	e5973000 	ldr	r3, [r7]
102ddc54:	e59f128c 	ldr	r1, [pc, #652]	; 102ddee8 <OnURCHandler_BTConnCnf+0x328>
102ddc58:	e28d2004 	add	r2, sp, #4
102ddc5c:	e12fff33 	blx	r3
102ddc60:	e59d3004 	ldr	r3, [sp, #4]
102ddc64:	e1530004 	cmp	r3, r4
102ddc68:	da000070 	ble	102dde30 <OnURCHandler_BTConnCnf+0x270>
102ddc6c:	e28d2008 	add	r2, sp, #8
102ddc70:	e5973000 	ldr	r3, [r7]
102ddc74:	e59f1270 	ldr	r1, [pc, #624]	; 102ddeec <OnURCHandler_BTConnCnf+0x32c>
102ddc78:	e1a00006 	mov	r0, r6
102ddc7c:	e12fff33 	blx	r3
102ddc80:	e28d2058 	add	r2, sp, #88	; 0x58
102ddc84:	e5973000 	ldr	r3, [r7]
102ddc88:	e59f1260 	ldr	r1, [pc, #608]	; 102ddef0 <OnURCHandler_BTConnCnf+0x330>
102ddc8c:	e1a00006 	mov	r0, r6
102ddc90:	e12fff33 	blx	r3
102ddc94:	e28d2090 	add	r2, sp, #144	; 0x90
102ddc98:	e5973000 	ldr	r3, [r7]
102ddc9c:	e59f1250 	ldr	r1, [pc, #592]	; 102ddef4 <OnURCHandler_BTConnCnf+0x334>
102ddca0:	e1a00006 	mov	r0, r6
102ddca4:	e12fff33 	blx	r3
102ddca8:	e28d202c 	add	r2, sp, #44	; 0x2c
102ddcac:	e59f1244 	ldr	r1, [pc, #580]	; 102ddef8 <OnURCHandler_BTConnCnf+0x338>
102ddcb0:	e5973000 	ldr	r3, [r7]
102ddcb4:	e1a00006 	mov	r0, r6
102ddcb8:	e12fff33 	blx	r3
102ddcbc:	e59f3238 	ldr	r3, [pc, #568]	; 102ddefc <OnURCHandler_BTConnCnf+0x33c>
102ddcc0:	e28d0090 	add	r0, sp, #144	; 0x90
102ddcc4:	e12fff33 	blx	r3
102ddcc8:	e59f3230 	ldr	r3, [pc, #560]	; 102ddf00 <OnURCHandler_BTConnCnf+0x340>
102ddccc:	e1a01000 	mov	r1, r0
102ddcd0:	e28d0090 	add	r0, sp, #144	; 0x90
102ddcd4:	e12fff33 	blx	r3
102ddcd8:	e58d0054 	str	r0, [sp, #84]	; 0x54
102ddcdc:	e1a00004 	mov	r0, r4
102ddce0:	ebfffc34 	bl	102dcdb8 <RIL_BT_QueryState>
102ddce4:	e3a00008 	mov	r0, #8
102ddce8:	e595c090 	ldr	ip, [r5, #144]	; 0x90
102ddcec:	e1a01000 	mov	r1, r0
102ddcf0:	e28d2054 	add	r2, sp, #84	; 0x54
102ddcf4:	e1a03004 	mov	r3, r4
102ddcf8:	e12fff3c 	blx	ip
102ddcfc:	e28dd0a0 	add	sp, sp, #160	; 0xa0
102ddd00:	e8bd81f0 	pop	{r4, r5, r6, r7, r8, pc}
102ddd04:	e59f11f8 	ldr	r1, [pc, #504]	; 102ddf04 <OnURCHandler_BTConnCnf+0x344>
102ddd08:	e28d000c 	add	r0, sp, #12
102ddd0c:	e12fff38 	blx	r8
102ddd10:	e1a00006 	mov	r0, r6
102ddd14:	e28d100c 	add	r1, sp, #12
102ddd18:	e12fff37 	blx	r7
102ddd1c:	e2504000 	subs	r4, r0, #0
102ddd20:	0a00001e 	beq	102ddda0 <OnURCHandler_BTConnCnf+0x1e0>
102ddd24:	e59f31b8 	ldr	r3, [pc, #440]	; 102ddee4 <OnURCHandler_BTConnCnf+0x324>
102ddd28:	e28d2090 	add	r2, sp, #144	; 0x90
102ddd2c:	e59f11d4 	ldr	r1, [pc, #468]	; 102ddf08 <OnURCHandler_BTConnCnf+0x348>
102ddd30:	e5933000 	ldr	r3, [r3]
102ddd34:	e1a00006 	mov	r0, r6
102ddd38:	e12fff33 	blx	r3
102ddd3c:	e59f31b8 	ldr	r3, [pc, #440]	; 102ddefc <OnURCHandler_BTConnCnf+0x33c>
102ddd40:	e28d0090 	add	r0, sp, #144	; 0x90
102ddd44:	e12fff33 	blx	r3
102ddd48:	e59f31b0 	ldr	r3, [pc, #432]	; 102ddf00 <OnURCHandler_BTConnCnf+0x340>
102ddd4c:	e1a01000 	mov	r1, r0
102ddd50:	e28d0090 	add	r0, sp, #144	; 0x90
102ddd54:	e12fff33 	blx	r3
102ddd58:	e5952000 	ldr	r2, [r5]
102ddd5c:	e5923000 	ldr	r3, [r2]
102ddd60:	e1500003 	cmp	r0, r3
102ddd64:	e58d0054 	str	r0, [sp, #84]	; 0x54
102ddd68:	0a000055 	beq	102ddec4 <OnURCHandler_BTConnCnf+0x304>
102ddd6c:	e1a03005 	mov	r3, r5
102ddd70:	e285e074 	add	lr, r5, #116	; 0x74
102ddd74:	e1a02005 	mov	r2, r5
102ddd78:	ea000001 	b	102ddd84 <OnURCHandler_BTConnCnf+0x1c4>
102ddd7c:	e152000e 	cmp	r2, lr
102ddd80:	0a00001d 	beq	102dddfc <OnURCHandler_BTConnCnf+0x23c>
102ddd84:	e5b21004 	ldr	r1, [r2, #4]!
102ddd88:	e591c000 	ldr	ip, [r1]
102ddd8c:	e150000c 	cmp	r0, ip
102ddd90:	1afffff9 	bne	102ddd7c <OnURCHandler_BTConnCnf+0x1bc>
102ddd94:	e3e02000 	mvn	r2, #0
102ddd98:	e5812054 	str	r2, [r1, #84]	; 0x54
102ddd9c:	ea000016 	b	102dddfc <OnURCHandler_BTConnCnf+0x23c>
102ddda0:	e59f1164 	ldr	r1, [pc, #356]	; 102ddf0c <OnURCHandler_BTConnCnf+0x34c>
102ddda4:	e28d000c 	add	r0, sp, #12
102ddda8:	e12fff38 	blx	r8
102dddac:	e1a00006 	mov	r0, r6
102dddb0:	e28d100c 	add	r1, sp, #12
102dddb4:	e12fff37 	blx	r7
102dddb8:	e3500000 	cmp	r0, #0
102dddbc:	0affffce 	beq	102ddcfc <OnURCHandler_BTConnCnf+0x13c>
102dddc0:	e59f311c 	ldr	r3, [pc, #284]	; 102ddee4 <OnURCHandler_BTConnCnf+0x324>
102dddc4:	e59d2004 	ldr	r2, [sp, #4]
102dddc8:	e5933000 	ldr	r3, [r3]
102dddcc:	e1a00006 	mov	r0, r6
102dddd0:	e59f1138 	ldr	r1, [pc, #312]	; 102ddf10 <OnURCHandler_BTConnCnf+0x350>
102dddd4:	e12fff33 	blx	r3
102dddd8:	e1a02004 	mov	r2, r4
102ddddc:	e595c090 	ldr	ip, [r5, #144]	; 0x90
102ddde0:	e3a00008 	mov	r0, #8
102ddde4:	e59d1004 	ldr	r1, [sp, #4]
102ddde8:	e1a03004 	mov	r3, r4
102dddec:	e12fff3c 	blx	ip
102dddf0:	eaffffc1 	b	102ddcfc <OnURCHandler_BTConnCnf+0x13c>
102dddf4:	e153000e 	cmp	r3, lr
102dddf8:	0a000005 	beq	102dde14 <OnURCHandler_BTConnCnf+0x254>
102dddfc:	e5b32004 	ldr	r2, [r3, #4]!
102dde00:	e5921000 	ldr	r1, [r2]
102dde04:	e1500001 	cmp	r0, r1
102dde08:	1afffff9 	bne	102dddf4 <OnURCHandler_BTConnCnf+0x234>
102dde0c:	e3e03000 	mvn	r3, #0
102dde10:	e5823058 	str	r3, [r2, #88]	; 0x58
102dde14:	e3a02000 	mov	r2, #0
102dde18:	e595c090 	ldr	ip, [r5, #144]	; 0x90
102dde1c:	e3a00008 	mov	r0, #8
102dde20:	e3a01009 	mov	r1, #9
102dde24:	e1a03002 	mov	r3, r2
102dde28:	e12fff3c 	blx	ip
102dde2c:	eaffffb2 	b	102ddcfc <OnURCHandler_BTConnCnf+0x13c>
102dde30:	e28d2090 	add	r2, sp, #144	; 0x90
102dde34:	e59f10b8 	ldr	r1, [pc, #184]	; 102ddef4 <OnURCHandler_BTConnCnf+0x334>
102dde38:	e5973000 	ldr	r3, [r7]
102dde3c:	e1a00006 	mov	r0, r6
102dde40:	e12fff33 	blx	r3
102dde44:	e59f30b0 	ldr	r3, [pc, #176]	; 102ddefc <OnURCHandler_BTConnCnf+0x33c>
102dde48:	e28d0090 	add	r0, sp, #144	; 0x90
102dde4c:	e12fff33 	blx	r3
102dde50:	e59f30a8 	ldr	r3, [pc, #168]	; 102ddf00 <OnURCHandler_BTConnCnf+0x340>
102dde54:	e1a01000 	mov	r1, r0
102dde58:	e28d0090 	add	r0, sp, #144	; 0x90
102dde5c:	e12fff33 	blx	r3
102dde60:	e5952000 	ldr	r2, [r5]
102dde64:	e5923000 	ldr	r3, [r2]
102dde68:	e1500003 	cmp	r0, r3
102dde6c:	e58d0054 	str	r0, [sp, #84]	; 0x54
102dde70:	0a000013 	beq	102ddec4 <OnURCHandler_BTConnCnf+0x304>
102dde74:	e1a03005 	mov	r3, r5
102dde78:	e285e074 	add	lr, r5, #116	; 0x74
102dde7c:	e1a02005 	mov	r2, r5
102dde80:	ea000001 	b	102dde8c <OnURCHandler_BTConnCnf+0x2cc>
102dde84:	e152000e 	cmp	r2, lr
102dde88:	0a000008 	beq	102ddeb0 <OnURCHandler_BTConnCnf+0x2f0>
102dde8c:	e5b21004 	ldr	r1, [r2, #4]!
102dde90:	e591c000 	ldr	ip, [r1]
102dde94:	e150000c 	cmp	r0, ip
102dde98:	1afffff9 	bne	102dde84 <OnURCHandler_BTConnCnf+0x2c4>
102dde9c:	e3e02000 	mvn	r2, #0
102ddea0:	e5812054 	str	r2, [r1, #84]	; 0x54
102ddea4:	ea000001 	b	102ddeb0 <OnURCHandler_BTConnCnf+0x2f0>
102ddea8:	e153000e 	cmp	r3, lr
102ddeac:	0affffd8 	beq	102dde14 <OnURCHandler_BTConnCnf+0x254>
102ddeb0:	e5b32004 	ldr	r2, [r3, #4]!
102ddeb4:	e5921000 	ldr	r1, [r2]
102ddeb8:	e1500001 	cmp	r0, r1
102ddebc:	1afffff9 	bne	102ddea8 <OnURCHandler_BTConnCnf+0x2e8>
102ddec0:	eaffffd1 	b	102dde0c <OnURCHandler_BTConnCnf+0x24c>
102ddec4:	e3e03000 	mvn	r3, #0
102ddec8:	e5823054 	str	r3, [r2, #84]	; 0x54
102ddecc:	eaffffce 	b	102dde0c <OnURCHandler_BTConnCnf+0x24c>
102dded0:	f03d3958 	.word	0xf03d3958
102dded4:	102e6774 	.word	0x102e6774
102dded8:	102e7398 	.word	0x102e7398
102ddedc:	102e6474 	.word	0x102e6474
102ddee0:	102e1cc4 	.word	0x102e1cc4
102ddee4:	f03d672c 	.word	0xf03d672c
102ddee8:	102e80dc 	.word	0x102e80dc
102ddeec:	102e8028 	.word	0x102e8028
102ddef0:	102e8328 	.word	0x102e8328
102ddef4:	102e82a0 	.word	0x102e82a0
102ddef8:	102e82c4 	.word	0x102e82c4
102ddefc:	102e6624 	.word	0x102e6624
102ddf00:	102e2110 	.word	0x102e2110
102ddf04:	102e73a8 	.word	0x102e73a8
102ddf08:	102e8340 	.word	0x102e8340
102ddf0c:	102e7318 	.word	0x102e7318
102ddf10:	102e7ff4 	.word	0x102e7ff4

102ddf14 <RIL_BT_Disconnect>:
102ddf14:	e59f3094 	ldr	r3, [pc, #148]	; 102ddfb0 <RIL_BT_Disconnect+0x9c>
102ddf18:	e52de004 	push	{lr}		; (str lr, [sp, #-4]!)
102ddf1c:	e5932000 	ldr	r2, [r3]
102ddf20:	e24dd024 	sub	sp, sp, #36	; 0x24
102ddf24:	e5921000 	ldr	r1, [r2]
102ddf28:	e1500001 	cmp	r0, r1
102ddf2c:	0a000007 	beq	102ddf50 <RIL_BT_Disconnect+0x3c>
102ddf30:	e283c074 	add	ip, r3, #116	; 0x74
102ddf34:	ea000001 	b	102ddf40 <RIL_BT_Disconnect+0x2c>
102ddf38:	e153000c 	cmp	r3, ip
102ddf3c:	0a000017 	beq	102ddfa0 <RIL_BT_Disconnect+0x8c>
102ddf40:	e5b32004 	ldr	r2, [r3, #4]!
102ddf44:	e5921000 	ldr	r1, [r2]
102ddf48:	e1500001 	cmp	r0, r1
102ddf4c:	1afffff9 	bne	102ddf38 <RIL_BT_Disconnect+0x24>
102ddf50:	e5922054 	ldr	r2, [r2, #84]	; 0x54
102ddf54:	e3720001 	cmn	r2, #1
102ddf58:	0a000012 	beq	102ddfa8 <RIL_BT_Disconnect+0x94>
102ddf5c:	e59f3050 	ldr	r3, [pc, #80]	; 102ddfb4 <RIL_BT_Disconnect+0xa0>
102ddf60:	e59f1050 	ldr	r1, [pc, #80]	; 102ddfb8 <RIL_BT_Disconnect+0xa4>
102ddf64:	e5933000 	ldr	r3, [r3]
102ddf68:	e28d000c 	add	r0, sp, #12
102ddf6c:	e12fff33 	blx	r3
102ddf70:	e59f3044 	ldr	r3, [pc, #68]	; 102ddfbc <RIL_BT_Disconnect+0xa8>
102ddf74:	e28d000c 	add	r0, sp, #12
102ddf78:	e12fff33 	blx	r3
102ddf7c:	e3a03000 	mov	r3, #0
102ddf80:	e1a02003 	mov	r2, r3
102ddf84:	e58d3000 	str	r3, [sp]
102ddf88:	e59fc030 	ldr	ip, [pc, #48]	; 102ddfc0 <RIL_BT_Disconnect+0xac>
102ddf8c:	e1a01000 	mov	r1, r0
102ddf90:	e28d000c 	add	r0, sp, #12
102ddf94:	e12fff3c 	blx	ip
102ddf98:	e28dd024 	add	sp, sp, #36	; 0x24
102ddf9c:	e8bd8000 	ldmfd	sp!, {pc}
102ddfa0:	e3a02000 	mov	r2, #0
102ddfa4:	eaffffec 	b	102ddf5c <RIL_BT_Disconnect+0x48>
102ddfa8:	e3e00003 	mvn	r0, #3
102ddfac:	eafffff9 	b	102ddf98 <RIL_BT_Disconnect+0x84>
102ddfb0:	f03d3958 	.word	0xf03d3958
102ddfb4:	f03d6720 	.word	0xf03d6720
102ddfb8:	102e8358 	.word	0x102e8358
102ddfbc:	102e6624 	.word	0x102e6624
102ddfc0:	102e6158 	.word	0x102e6158

102ddfc4 <OnURCHandler_BTDisconn>:
102ddfc4:	e92d41f0 	push	{r4, r5, r6, r7, r8, lr}
102ddfc8:	e3a03000 	mov	r3, #0
102ddfcc:	e24dd0a0 	sub	sp, sp, #160	; 0xa0
102ddfd0:	e59f41dc 	ldr	r4, [pc, #476]	; 102de1b4 <OnURCHandler_BTDisconn+0x1f0>
102ddfd4:	e1a01003 	mov	r1, r3
102ddfd8:	e58d3008 	str	r3, [sp, #8]
102ddfdc:	e58d302c 	str	r3, [sp, #44]	; 0x2c
102ddfe0:	e58d3030 	str	r3, [sp, #48]	; 0x30
102ddfe4:	e58d3034 	str	r3, [sp, #52]	; 0x34
102ddfe8:	e58d3038 	str	r3, [sp, #56]	; 0x38
102ddfec:	e58d303c 	str	r3, [sp, #60]	; 0x3c
102ddff0:	e58d3040 	str	r3, [sp, #64]	; 0x40
102ddff4:	e58d3044 	str	r3, [sp, #68]	; 0x44
102ddff8:	e58d3048 	str	r3, [sp, #72]	; 0x48
102ddffc:	e58d304c 	str	r3, [sp, #76]	; 0x4c
102de000:	e58d3050 	str	r3, [sp, #80]	; 0x50
102de004:	e1a05000 	mov	r5, r0
102de008:	e59f31a8 	ldr	r3, [pc, #424]	; 102de1b8 <OnURCHandler_BTDisconn+0x1f4>
102de00c:	e28d0054 	add	r0, sp, #84	; 0x54
102de010:	e3a0204c 	mov	r2, #76	; 0x4c
102de014:	e12fff33 	blx	r3
102de018:	e5943090 	ldr	r3, [r4, #144]	; 0x90
102de01c:	e3530000 	cmp	r3, #0
102de020:	0a000049 	beq	102de14c <OnURCHandler_BTDisconn+0x188>
102de024:	e59f1190 	ldr	r1, [pc, #400]	; 102de1bc <OnURCHandler_BTDisconn+0x1f8>
102de028:	e28d000c 	add	r0, sp, #12
102de02c:	e59f718c 	ldr	r7, [pc, #396]	; 102de1c0 <OnURCHandler_BTDisconn+0x1fc>
102de030:	e12fff37 	blx	r7
102de034:	e59f6188 	ldr	r6, [pc, #392]	; 102de1c4 <OnURCHandler_BTDisconn+0x200>
102de038:	e1a00005 	mov	r0, r5
102de03c:	e28d100c 	add	r1, sp, #12
102de040:	e12fff36 	blx	r6
102de044:	e2508000 	subs	r8, r0, #0
102de048:	0a000041 	beq	102de154 <OnURCHandler_BTDisconn+0x190>
102de04c:	e59f6174 	ldr	r6, [pc, #372]	; 102de1c8 <OnURCHandler_BTDisconn+0x204>
102de050:	e28d3004 	add	r3, sp, #4
102de054:	e596c000 	ldr	ip, [r6]
102de058:	e59f116c 	ldr	r1, [pc, #364]	; 102de1cc <OnURCHandler_BTDisconn+0x208>
102de05c:	e1a0200d 	mov	r2, sp
102de060:	e1a00005 	mov	r0, r5
102de064:	e12fff3c 	blx	ip
102de068:	e59f1160 	ldr	r1, [pc, #352]	; 102de1d0 <OnURCHandler_BTDisconn+0x20c>
102de06c:	e28d2058 	add	r2, sp, #88	; 0x58
102de070:	e5963000 	ldr	r3, [r6]
102de074:	e1a00005 	mov	r0, r5
102de078:	e12fff33 	blx	r3
102de07c:	e59f1150 	ldr	r1, [pc, #336]	; 102de1d4 <OnURCHandler_BTDisconn+0x210>
102de080:	e28d2090 	add	r2, sp, #144	; 0x90
102de084:	e5963000 	ldr	r3, [r6]
102de088:	e1a00005 	mov	r0, r5
102de08c:	e12fff33 	blx	r3
102de090:	e28d202c 	add	r2, sp, #44	; 0x2c
102de094:	e59f113c 	ldr	r1, [pc, #316]	; 102de1d8 <OnURCHandler_BTDisconn+0x214>
102de098:	e5963000 	ldr	r3, [r6]
102de09c:	e1a00005 	mov	r0, r5
102de0a0:	e12fff33 	blx	r3
102de0a4:	e59f3130 	ldr	r3, [pc, #304]	; 102de1dc <OnURCHandler_BTDisconn+0x218>
102de0a8:	e28d0090 	add	r0, sp, #144	; 0x90
102de0ac:	e12fff33 	blx	r3
102de0b0:	e59f3128 	ldr	r3, [pc, #296]	; 102de1e0 <OnURCHandler_BTDisconn+0x21c>
102de0b4:	e1a01000 	mov	r1, r0
102de0b8:	e28d0090 	add	r0, sp, #144	; 0x90
102de0bc:	e12fff33 	blx	r3
102de0c0:	e5942000 	ldr	r2, [r4]
102de0c4:	e5923000 	ldr	r3, [r2]
102de0c8:	e1500003 	cmp	r0, r3
102de0cc:	e58d0054 	str	r0, [sp, #84]	; 0x54
102de0d0:	0a000034 	beq	102de1a8 <OnURCHandler_BTDisconn+0x1e4>
102de0d4:	e1a03004 	mov	r3, r4
102de0d8:	e284e074 	add	lr, r4, #116	; 0x74
102de0dc:	e1a02004 	mov	r2, r4
102de0e0:	ea000001 	b	102de0ec <OnURCHandler_BTDisconn+0x128>
102de0e4:	e152000e 	cmp	r2, lr
102de0e8:	0a00000b 	beq	102de11c <OnURCHandler_BTDisconn+0x158>
102de0ec:	e5b21004 	ldr	r1, [r2, #4]!
102de0f0:	e591c000 	ldr	ip, [r1]
102de0f4:	e150000c 	cmp	r0, ip
102de0f8:	1afffff9 	bne	102de0e4 <OnURCHandler_BTDisconn+0x120>
102de0fc:	e3e02000 	mvn	r2, #0
102de100:	e5812054 	str	r2, [r1, #84]	; 0x54
102de104:	e5b32004 	ldr	r2, [r3, #4]!
102de108:	e5921000 	ldr	r1, [r2]
102de10c:	e1500001 	cmp	r0, r1
102de110:	0a000005 	beq	102de12c <OnURCHandler_BTDisconn+0x168>
102de114:	e153000e 	cmp	r3, lr
102de118:	0a000005 	beq	102de134 <OnURCHandler_BTDisconn+0x170>
102de11c:	e5b32004 	ldr	r2, [r3, #4]!
102de120:	e5921000 	ldr	r1, [r2]
102de124:	e1500001 	cmp	r0, r1
102de128:	1afffff9 	bne	102de114 <OnURCHandler_BTDisconn+0x150>
102de12c:	e3e03000 	mvn	r3, #0
102de130:	e5823058 	str	r3, [r2, #88]	; 0x58
102de134:	e594c090 	ldr	ip, [r4, #144]	; 0x90
102de138:	e3a00007 	mov	r0, #7
102de13c:	e3a0100c 	mov	r1, #12
102de140:	e28d2054 	add	r2, sp, #84	; 0x54
102de144:	e3a03000 	mov	r3, #0
102de148:	e12fff3c 	blx	ip
102de14c:	e28dd0a0 	add	sp, sp, #160	; 0xa0
102de150:	e8bd81f0 	pop	{r4, r5, r6, r7, r8, pc}
102de154:	e59f1088 	ldr	r1, [pc, #136]	; 102de1e4 <OnURCHandler_BTDisconn+0x220>
102de158:	e28d000c 	add	r0, sp, #12
102de15c:	e12fff37 	blx	r7
102de160:	e1a00005 	mov	r0, r5
102de164:	e28d100c 	add	r1, sp, #12
102de168:	e12fff36 	blx	r6
102de16c:	e3500000 	cmp	r0, #0
102de170:	0afffff5 	beq	102de14c <OnURCHandler_BTDisconn+0x188>
102de174:	e59f304c 	ldr	r3, [pc, #76]	; 102de1c8 <OnURCHandler_BTDisconn+0x204>
102de178:	e28d2008 	add	r2, sp, #8
102de17c:	e5933000 	ldr	r3, [r3]
102de180:	e1a00005 	mov	r0, r5
102de184:	e59f105c 	ldr	r1, [pc, #92]	; 102de1e8 <OnURCHandler_BTDisconn+0x224>
102de188:	e12fff33 	blx	r3
102de18c:	e594c090 	ldr	ip, [r4, #144]	; 0x90
102de190:	e3a00007 	mov	r0, #7
102de194:	e59d1008 	ldr	r1, [sp, #8]
102de198:	e28d2054 	add	r2, sp, #84	; 0x54
102de19c:	e1a03008 	mov	r3, r8
102de1a0:	e12fff3c 	blx	ip
102de1a4:	eaffffe8 	b	102de14c <OnURCHandler_BTDisconn+0x188>
102de1a8:	e3e03000 	mvn	r3, #0
102de1ac:	e5823054 	str	r3, [r2, #84]	; 0x54
102de1b0:	eaffffdd 	b	102de12c <OnURCHandler_BTDisconn+0x168>
102de1b4:	f03d3958 	.word	0xf03d3958
102de1b8:	102e6774 	.word	0x102e6774
102de1bc:	102e73b8 	.word	0x102e73b8
102de1c0:	102e6474 	.word	0x102e6474
102de1c4:	102e1cc4 	.word	0x102e1cc4
102de1c8:	f03d672c 	.word	0xf03d672c
102de1cc:	102e836c 	.word	0x102e836c
102de1d0:	102e8384 	.word	0x102e8384
102de1d4:	102e82a0 	.word	0x102e82a0
102de1d8:	102e82c4 	.word	0x102e82c4
102de1dc:	102e6624 	.word	0x102e6624
102de1e0:	102e2110 	.word	0x102e2110
102de1e4:	102e73c8 	.word	0x102e73c8
102de1e8:	102e83a4 	.word	0x102e83a4

102de1ec <RIL_BT_SPP_Send>:
102de1ec:	e92d47f0 	push	{r4, r5, r6, r7, r8, r9, sl, lr}
102de1f0:	e2519000 	subs	r9, r1, #0
102de1f4:	e24dd020 	sub	sp, sp, #32
102de1f8:	e1a08002 	mov	r8, r2
102de1fc:	e1a0a003 	mov	sl, r3
102de200:	0a000027 	beq	102de2a4 <RIL_BT_SPP_Send+0xb8>
102de204:	e59f70a0 	ldr	r7, [pc, #160]	; 102de2ac <RIL_BT_SPP_Send+0xc0>
102de208:	e5974000 	ldr	r4, [r7]
102de20c:	e5943000 	ldr	r3, [r4]
102de210:	e1500003 	cmp	r0, r3
102de214:	0a000008 	beq	102de23c <RIL_BT_SPP_Send+0x50>
102de218:	e1a0c007 	mov	ip, r7
102de21c:	e2876074 	add	r6, r7, #116	; 0x74
102de220:	ea000001 	b	102de22c <RIL_BT_SPP_Send+0x40>
102de224:	e15c0006 	cmp	ip, r6
102de228:	0a00001b 	beq	102de29c <RIL_BT_SPP_Send+0xb0>
102de22c:	e5bc4004 	ldr	r4, [ip, #4]!
102de230:	e5945000 	ldr	r5, [r4]
102de234:	e1500005 	cmp	r0, r5
102de238:	1afffff9 	bne	102de224 <RIL_BT_SPP_Send+0x38>
102de23c:	e5942054 	ldr	r2, [r4, #84]	; 0x54
102de240:	e3720001 	cmn	r2, #1
102de244:	0a000016 	beq	102de2a4 <RIL_BT_SPP_Send+0xb8>
102de248:	e59f0060 	ldr	r0, [pc, #96]	; 102de2b0 <RIL_BT_SPP_Send+0xc4>
102de24c:	e59f1060 	ldr	r1, [pc, #96]	; 102de2b4 <RIL_BT_SPP_Send+0xc8>
102de250:	e590c000 	ldr	ip, [r0]
102de254:	e1a03008 	mov	r3, r8
102de258:	e28d000c 	add	r0, sp, #12
102de25c:	e5879088 	str	r9, [r7, #136]	; 0x88
102de260:	e587808c 	str	r8, [r7, #140]	; 0x8c
102de264:	e12fff3c 	blx	ip
102de268:	e59f3048 	ldr	r3, [pc, #72]	; 102de2b8 <RIL_BT_SPP_Send+0xcc>
102de26c:	e28d000c 	add	r0, sp, #12
102de270:	e12fff33 	blx	r3
102de274:	e3a03000 	mov	r3, #0
102de278:	e58d3000 	str	r3, [sp]
102de27c:	e59f2038 	ldr	r2, [pc, #56]	; 102de2bc <RIL_BT_SPP_Send+0xd0>
102de280:	e1a0300a 	mov	r3, sl
102de284:	e59fc034 	ldr	ip, [pc, #52]	; 102de2c0 <RIL_BT_SPP_Send+0xd4>
102de288:	e1a01000 	mov	r1, r0
102de28c:	e28d000c 	add	r0, sp, #12
102de290:	e12fff3c 	blx	ip
102de294:	e28dd020 	add	sp, sp, #32
102de298:	e8bd87f0 	pop	{r4, r5, r6, r7, r8, r9, sl, pc}
102de29c:	e3a02000 	mov	r2, #0
102de2a0:	eaffffe8 	b	102de248 <RIL_BT_SPP_Send+0x5c>
102de2a4:	e3e00003 	mvn	r0, #3
102de2a8:	eafffff9 	b	102de294 <RIL_BT_SPP_Send+0xa8>
102de2ac:	f03d3958 	.word	0xf03d3958
102de2b0:	f03d6720 	.word	0xf03d6720
102de2b4:	102e83b4 	.word	0x102e83b4
102de2b8:	102e6624 	.word	0x102e6624
102de2bc:	102dc1ac 	.word	0x102dc1ac
102de2c0:	102e6158 	.word	0x102e6158

102de2c4 <RIL_BT_SPP_Read>:
102de2c4:	e92d47f0 	push	{r4, r5, r6, r7, r8, r9, sl, lr}
102de2c8:	e2519000 	subs	r9, r1, #0
102de2cc:	e24dd020 	sub	sp, sp, #32
102de2d0:	e1a08002 	mov	r8, r2
102de2d4:	e1a0a003 	mov	sl, r3
102de2d8:	0a000028 	beq	102de380 <RIL_BT_SPP_Read+0xbc>
102de2dc:	e59f70a4 	ldr	r7, [pc, #164]	; 102de388 <RIL_BT_SPP_Read+0xc4>
102de2e0:	e5974000 	ldr	r4, [r7]
102de2e4:	e5943000 	ldr	r3, [r4]
102de2e8:	e1500003 	cmp	r0, r3
102de2ec:	0a000008 	beq	102de314 <RIL_BT_SPP_Read+0x50>
102de2f0:	e1a0c007 	mov	ip, r7
102de2f4:	e2876074 	add	r6, r7, #116	; 0x74
102de2f8:	ea000001 	b	102de304 <RIL_BT_SPP_Read+0x40>
102de2fc:	e15c0006 	cmp	ip, r6
102de300:	0a00001c 	beq	102de378 <RIL_BT_SPP_Read+0xb4>
102de304:	e5bc4004 	ldr	r4, [ip, #4]!
102de308:	e5945000 	ldr	r5, [r4]
102de30c:	e1500005 	cmp	r0, r5
102de310:	1afffff9 	bne	102de2fc <RIL_BT_SPP_Read+0x38>
102de314:	e5942054 	ldr	r2, [r4, #84]	; 0x54
102de318:	e3720001 	cmn	r2, #1
102de31c:	0a000017 	beq	102de380 <RIL_BT_SPP_Read+0xbc>
102de320:	e59f0064 	ldr	r0, [pc, #100]	; 102de38c <RIL_BT_SPP_Read+0xc8>
102de324:	e3a04000 	mov	r4, #0
102de328:	e590c000 	ldr	ip, [r0]
102de32c:	e59f105c 	ldr	r1, [pc, #92]	; 102de390 <RIL_BT_SPP_Read+0xcc>
102de330:	e1a03008 	mov	r3, r8
102de334:	e5874080 	str	r4, [r7, #128]	; 0x80
102de338:	e28d000c 	add	r0, sp, #12
102de33c:	e587907c 	str	r9, [r7, #124]	; 0x7c
102de340:	e5878094 	str	r8, [r7, #148]	; 0x94
102de344:	e12fff3c 	blx	ip
102de348:	e59f3044 	ldr	r3, [pc, #68]	; 102de394 <RIL_BT_SPP_Read+0xd0>
102de34c:	e28d000c 	add	r0, sp, #12
102de350:	e12fff33 	blx	r3
102de354:	e58d4000 	str	r4, [sp]
102de358:	e59f2038 	ldr	r2, [pc, #56]	; 102de398 <RIL_BT_SPP_Read+0xd4>
102de35c:	e1a0300a 	mov	r3, sl
102de360:	e59fc034 	ldr	ip, [pc, #52]	; 102de39c <RIL_BT_SPP_Read+0xd8>
102de364:	e1a01000 	mov	r1, r0
102de368:	e28d000c 	add	r0, sp, #12
102de36c:	e12fff3c 	blx	ip
102de370:	e28dd020 	add	sp, sp, #32
102de374:	e8bd87f0 	pop	{r4, r5, r6, r7, r8, r9, sl, pc}
102de378:	e3a02000 	mov	r2, #0
102de37c:	eaffffe7 	b	102de320 <RIL_BT_SPP_Read+0x5c>
102de380:	e3e00003 	mvn	r0, #3
102de384:	eafffff9 	b	102de370 <RIL_BT_SPP_Read+0xac>
102de388:	f03d3958 	.word	0xf03d3958
102de38c:	f03d6720 	.word	0xf03d6720
102de390:	102e83c8 	.word	0x102e83c8
102de394:	102e6624 	.word	0x102e6624
102de398:	102dbcc8 	.word	0x102dbcc8
102de39c:	102e6158 	.word	0x102e6158

102de3a0 <OnURCHandler_BTIndication>:
102de3a0:	e92d41f0 	push	{r4, r5, r6, r7, r8, lr}
102de3a4:	e3a04000 	mov	r4, #0
102de3a8:	e24dd0a8 	sub	sp, sp, #168	; 0xa8
102de3ac:	e1a01004 	mov	r1, r4
102de3b0:	e3a0204c 	mov	r2, #76	; 0x4c
102de3b4:	e59f5368 	ldr	r5, [pc, #872]	; 102de724 <OnURCHandler_BTIndication+0x384>
102de3b8:	e1a06000 	mov	r6, r0
102de3bc:	e59f7364 	ldr	r7, [pc, #868]	; 102de728 <OnURCHandler_BTIndication+0x388>
102de3c0:	e28d005c 	add	r0, sp, #92	; 0x5c
102de3c4:	e58d4008 	str	r4, [sp, #8]
102de3c8:	e1cd40bc 	strh	r4, [sp, #12]
102de3cc:	e5cd400e 	strb	r4, [sp, #14]
102de3d0:	e58d403c 	str	r4, [sp, #60]	; 0x3c
102de3d4:	e58d4040 	str	r4, [sp, #64]	; 0x40
102de3d8:	e58d4044 	str	r4, [sp, #68]	; 0x44
102de3dc:	e58d4048 	str	r4, [sp, #72]	; 0x48
102de3e0:	e58d404c 	str	r4, [sp, #76]	; 0x4c
102de3e4:	e58d4050 	str	r4, [sp, #80]	; 0x50
102de3e8:	e58d4054 	str	r4, [sp, #84]	; 0x54
102de3ec:	e1cd45b8 	strh	r4, [sp, #88]	; 0x58
102de3f0:	e12fff35 	blx	r5
102de3f4:	e28d0010 	add	r0, sp, #16
102de3f8:	e1a01004 	mov	r1, r4
102de3fc:	e3a0200a 	mov	r2, #10
102de400:	e12fff35 	blx	r5
102de404:	e5973090 	ldr	r3, [r7, #144]	; 0x90
102de408:	e1530004 	cmp	r3, r4
102de40c:	0a000009 	beq	102de438 <OnURCHandler_BTIndication+0x98>
102de410:	e59f1314 	ldr	r1, [pc, #788]	; 102de72c <OnURCHandler_BTIndication+0x38c>
102de414:	e59f3314 	ldr	r3, [pc, #788]	; 102de730 <OnURCHandler_BTIndication+0x390>
102de418:	e28d001c 	add	r0, sp, #28
102de41c:	e12fff33 	blx	r3
102de420:	e1a00006 	mov	r0, r6
102de424:	e28d101c 	add	r1, sp, #28
102de428:	e59f3304 	ldr	r3, [pc, #772]	; 102de734 <OnURCHandler_BTIndication+0x394>
102de42c:	e12fff33 	blx	r3
102de430:	e1500004 	cmp	r0, r4
102de434:	1a000001 	bne	102de440 <OnURCHandler_BTIndication+0xa0>
102de438:	e28dd0a8 	add	sp, sp, #168	; 0xa8
102de43c:	e8bd81f0 	pop	{r4, r5, r6, r7, r8, pc}
102de440:	e59f42f0 	ldr	r4, [pc, #752]	; 102de738 <OnURCHandler_BTIndication+0x398>
102de444:	e59f12f0 	ldr	r1, [pc, #752]	; 102de73c <OnURCHandler_BTIndication+0x39c>
102de448:	e28d2010 	add	r2, sp, #16
102de44c:	e5943000 	ldr	r3, [r4]
102de450:	e1a00006 	mov	r0, r6
102de454:	e12fff33 	blx	r3
102de458:	e59f52e0 	ldr	r5, [pc, #736]	; 102de740 <OnURCHandler_BTIndication+0x3a0>
102de45c:	e28d0010 	add	r0, sp, #16
102de460:	e59f12dc 	ldr	r1, [pc, #732]	; 102de744 <OnURCHandler_BTIndication+0x3a4>
102de464:	e12fff35 	blx	r5
102de468:	e2508000 	subs	r8, r0, #0
102de46c:	1a000021 	bne	102de4f8 <OnURCHandler_BTIndication+0x158>
102de470:	e28d203c 	add	r2, sp, #60	; 0x3c
102de474:	e5943000 	ldr	r3, [r4]
102de478:	e59f12c8 	ldr	r1, [pc, #712]	; 102de748 <OnURCHandler_BTIndication+0x3a8>
102de47c:	e1a00006 	mov	r0, r6
102de480:	e12fff33 	blx	r3
102de484:	e59f52c0 	ldr	r5, [pc, #704]	; 102de74c <OnURCHandler_BTIndication+0x3ac>
102de488:	e28d003c 	add	r0, sp, #60	; 0x3c
102de48c:	e12fff35 	blx	r5
102de490:	e28d2098 	add	r2, sp, #152	; 0x98
102de494:	e5943000 	ldr	r3, [r4]
102de498:	e350000c 	cmp	r0, #12
102de49c:	e1a00006 	mov	r0, r6
102de4a0:	0a00008a 	beq	102de6d0 <OnURCHandler_BTIndication+0x330>
102de4a4:	e59f12a4 	ldr	r1, [pc, #676]	; 102de750 <OnURCHandler_BTIndication+0x3b0>
102de4a8:	e12fff33 	blx	r3
102de4ac:	e28d2008 	add	r2, sp, #8
102de4b0:	e5943000 	ldr	r3, [r4]
102de4b4:	e59f1298 	ldr	r1, [pc, #664]	; 102de754 <OnURCHandler_BTIndication+0x3b4>
102de4b8:	e1a00006 	mov	r0, r6
102de4bc:	e12fff33 	blx	r3
102de4c0:	e28d0098 	add	r0, sp, #152	; 0x98
102de4c4:	e12fff35 	blx	r5
102de4c8:	e59f3288 	ldr	r3, [pc, #648]	; 102de758 <OnURCHandler_BTIndication+0x3b8>
102de4cc:	e1a01000 	mov	r1, r0
102de4d0:	e28d0098 	add	r0, sp, #152	; 0x98
102de4d4:	e12fff33 	blx	r3
102de4d8:	e597c090 	ldr	ip, [r7, #144]	; 0x90
102de4dc:	e28d205c 	add	r2, sp, #92	; 0x5c
102de4e0:	e28d3008 	add	r3, sp, #8
102de4e4:	e58d005c 	str	r0, [sp, #92]	; 0x5c
102de4e8:	e3a00005 	mov	r0, #5
102de4ec:	e1a01000 	mov	r1, r0
102de4f0:	e12fff3c 	blx	ip
102de4f4:	eaffffcf 	b	102de438 <OnURCHandler_BTIndication+0x98>
102de4f8:	e28d0010 	add	r0, sp, #16
102de4fc:	e59f1258 	ldr	r1, [pc, #600]	; 102de75c <OnURCHandler_BTIndication+0x3bc>
102de500:	e12fff35 	blx	r5
102de504:	e2508000 	subs	r8, r0, #0
102de508:	1a000018 	bne	102de570 <OnURCHandler_BTIndication+0x1d0>
102de50c:	e28d2060 	add	r2, sp, #96	; 0x60
102de510:	e5943000 	ldr	r3, [r4]
102de514:	e1a00006 	mov	r0, r6
102de518:	e59f1240 	ldr	r1, [pc, #576]	; 102de760 <OnURCHandler_BTIndication+0x3c0>
102de51c:	e12fff33 	blx	r3
102de520:	e28d2098 	add	r2, sp, #152	; 0x98
102de524:	e5943000 	ldr	r3, [r4]
102de528:	e59f1220 	ldr	r1, [pc, #544]	; 102de750 <OnURCHandler_BTIndication+0x3b0>
102de52c:	e1a00006 	mov	r0, r6
102de530:	e12fff33 	blx	r3
102de534:	e28d0098 	add	r0, sp, #152	; 0x98
102de538:	e59f320c 	ldr	r3, [pc, #524]	; 102de74c <OnURCHandler_BTIndication+0x3ac>
102de53c:	e12fff33 	blx	r3
102de540:	e59f3210 	ldr	r3, [pc, #528]	; 102de758 <OnURCHandler_BTIndication+0x3b8>
102de544:	e1a01000 	mov	r1, r0
102de548:	e28d0098 	add	r0, sp, #152	; 0x98
102de54c:	e12fff33 	blx	r3
102de550:	e597c090 	ldr	ip, [r7, #144]	; 0x90
102de554:	e3a0100a 	mov	r1, #10
102de558:	e28d205c 	add	r2, sp, #92	; 0x5c
102de55c:	e1a03008 	mov	r3, r8
102de560:	e58d005c 	str	r0, [sp, #92]	; 0x5c
102de564:	e3a00006 	mov	r0, #6
102de568:	e12fff3c 	blx	ip
102de56c:	eaffffb1 	b	102de438 <OnURCHandler_BTIndication+0x98>
102de570:	e28d0010 	add	r0, sp, #16
102de574:	e59f11e8 	ldr	r1, [pc, #488]	; 102de764 <OnURCHandler_BTIndication+0x3c4>
102de578:	e12fff35 	blx	r5
102de57c:	e3500000 	cmp	r0, #0
102de580:	0a000020 	beq	102de608 <OnURCHandler_BTIndication+0x268>
102de584:	e28d0010 	add	r0, sp, #16
102de588:	e59f11d8 	ldr	r1, [pc, #472]	; 102de768 <OnURCHandler_BTIndication+0x3c8>
102de58c:	e12fff35 	blx	r5
102de590:	e3500000 	cmp	r0, #0
102de594:	1affffa7 	bne	102de438 <OnURCHandler_BTIndication+0x98>
102de598:	e5943000 	ldr	r3, [r4]
102de59c:	e28d2004 	add	r2, sp, #4
102de5a0:	e1a00006 	mov	r0, r6
102de5a4:	e59f11c0 	ldr	r1, [pc, #448]	; 102de76c <OnURCHandler_BTIndication+0x3cc>
102de5a8:	e12fff33 	blx	r3
102de5ac:	e5972000 	ldr	r2, [r7]
102de5b0:	e59d0004 	ldr	r0, [sp, #4]
102de5b4:	e5923054 	ldr	r3, [r2, #84]	; 0x54
102de5b8:	e1500003 	cmp	r0, r3
102de5bc:	0a000008 	beq	102de5e4 <OnURCHandler_BTIndication+0x244>
102de5c0:	e1a03007 	mov	r3, r7
102de5c4:	e287c074 	add	ip, r7, #116	; 0x74
102de5c8:	ea000001 	b	102de5d4 <OnURCHandler_BTIndication+0x234>
102de5cc:	e153000c 	cmp	r3, ip
102de5d0:	0a00004e 	beq	102de710 <OnURCHandler_BTIndication+0x370>
102de5d4:	e5b32004 	ldr	r2, [r3, #4]!
102de5d8:	e5921054 	ldr	r1, [r2, #84]	; 0x54
102de5dc:	e1500001 	cmp	r0, r1
102de5e0:	1afffff9 	bne	102de5cc <OnURCHandler_BTIndication+0x22c>
102de5e4:	e5923000 	ldr	r3, [r2]
102de5e8:	e3a00004 	mov	r0, #4
102de5ec:	e58d305c 	str	r3, [sp, #92]	; 0x5c
102de5f0:	e597c090 	ldr	ip, [r7, #144]	; 0x90
102de5f4:	e3a0100d 	mov	r1, #13
102de5f8:	e08d2000 	add	r2, sp, r0
102de5fc:	e28d305c 	add	r3, sp, #92	; 0x5c
102de600:	e12fff3c 	blx	ip
102de604:	eaffff8b 	b	102de438 <OnURCHandler_BTIndication+0x98>
102de608:	e59f1160 	ldr	r1, [pc, #352]	; 102de770 <OnURCHandler_BTIndication+0x3d0>
102de60c:	e28d2098 	add	r2, sp, #152	; 0x98
102de610:	e5943000 	ldr	r3, [r4]
102de614:	e1a00006 	mov	r0, r6
102de618:	e12fff33 	blx	r3
102de61c:	e28d2060 	add	r2, sp, #96	; 0x60
102de620:	e59f114c 	ldr	r1, [pc, #332]	; 102de774 <OnURCHandler_BTIndication+0x3d4>
102de624:	e5943000 	ldr	r3, [r4]
102de628:	e1a00006 	mov	r0, r6
102de62c:	e12fff33 	blx	r3
102de630:	e59f3114 	ldr	r3, [pc, #276]	; 102de74c <OnURCHandler_BTIndication+0x3ac>
102de634:	e28d0098 	add	r0, sp, #152	; 0x98
102de638:	e12fff33 	blx	r3
102de63c:	e59f3114 	ldr	r3, [pc, #276]	; 102de758 <OnURCHandler_BTIndication+0x3b8>
102de640:	e1a01000 	mov	r1, r0
102de644:	e28d0098 	add	r0, sp, #152	; 0x98
102de648:	e12fff33 	blx	r3
102de64c:	e5972000 	ldr	r2, [r7]
102de650:	e5923000 	ldr	r3, [r2]
102de654:	e1500003 	cmp	r0, r3
102de658:	e58d005c 	str	r0, [sp, #92]	; 0x5c
102de65c:	0a00002d 	beq	102de718 <OnURCHandler_BTIndication+0x378>
102de660:	e1a03007 	mov	r3, r7
102de664:	e287e074 	add	lr, r7, #116	; 0x74
102de668:	e1a02007 	mov	r2, r7
102de66c:	ea000001 	b	102de678 <OnURCHandler_BTIndication+0x2d8>
102de670:	e152000e 	cmp	r2, lr
102de674:	0a000008 	beq	102de69c <OnURCHandler_BTIndication+0x2fc>
102de678:	e5b21004 	ldr	r1, [r2, #4]!
102de67c:	e591c000 	ldr	ip, [r1]
102de680:	e150000c 	cmp	r0, ip
102de684:	1afffff9 	bne	102de670 <OnURCHandler_BTIndication+0x2d0>
102de688:	e3e02000 	mvn	r2, #0
102de68c:	e5812054 	str	r2, [r1, #84]	; 0x54
102de690:	ea000001 	b	102de69c <OnURCHandler_BTIndication+0x2fc>
102de694:	e153000e 	cmp	r3, lr
102de698:	0a000005 	beq	102de6b4 <OnURCHandler_BTIndication+0x314>
102de69c:	e5b32004 	ldr	r2, [r3, #4]!
102de6a0:	e5921000 	ldr	r1, [r2]
102de6a4:	e1500001 	cmp	r0, r1
102de6a8:	1afffff9 	bne	102de694 <OnURCHandler_BTIndication+0x2f4>
102de6ac:	e3e03000 	mvn	r3, #0
102de6b0:	e5823058 	str	r3, [r2, #88]	; 0x58
102de6b4:	e597c090 	ldr	ip, [r7, #144]	; 0x90
102de6b8:	e3a00007 	mov	r0, #7
102de6bc:	e3a0100b 	mov	r1, #11
102de6c0:	e28d205c 	add	r2, sp, #92	; 0x5c
102de6c4:	e3a03000 	mov	r3, #0
102de6c8:	e12fff3c 	blx	ip
102de6cc:	eaffff59 	b	102de438 <OnURCHandler_BTIndication+0x98>
102de6d0:	e59f1070 	ldr	r1, [pc, #112]	; 102de748 <OnURCHandler_BTIndication+0x3a8>
102de6d4:	e12fff33 	blx	r3
102de6d8:	e28d0098 	add	r0, sp, #152	; 0x98
102de6dc:	e12fff35 	blx	r5
102de6e0:	e59f3070 	ldr	r3, [pc, #112]	; 102de758 <OnURCHandler_BTIndication+0x3b8>
102de6e4:	e1a01000 	mov	r1, r0
102de6e8:	e28d0098 	add	r0, sp, #152	; 0x98
102de6ec:	e12fff33 	blx	r3
102de6f0:	e597c090 	ldr	ip, [r7, #144]	; 0x90
102de6f4:	e3a01004 	mov	r1, #4
102de6f8:	e28d205c 	add	r2, sp, #92	; 0x5c
102de6fc:	e1a03008 	mov	r3, r8
102de700:	e58d005c 	str	r0, [sp, #92]	; 0x5c
102de704:	e3a00005 	mov	r0, #5
102de708:	e12fff3c 	blx	ip
102de70c:	eaffff49 	b	102de438 <OnURCHandler_BTIndication+0x98>
102de710:	e3a03000 	mov	r3, #0
102de714:	eaffffb3 	b	102de5e8 <OnURCHandler_BTIndication+0x248>
102de718:	e3e03000 	mvn	r3, #0
102de71c:	e5823054 	str	r3, [r2, #84]	; 0x54
102de720:	eaffffe1 	b	102de6ac <OnURCHandler_BTIndication+0x30c>
102de724:	102e6774 	.word	0x102e6774
102de728:	f03d3958 	.word	0xf03d3958
102de72c:	102e73d8 	.word	0x102e73d8
102de730:	102e6474 	.word	0x102e6474
102de734:	102e1cc4 	.word	0x102e1cc4
102de738:	f03d672c 	.word	0xf03d672c
102de73c:	102e803c 	.word	0x102e803c
102de740:	102e669c 	.word	0x102e669c
102de744:	102e83dc 	.word	0x102e83dc
102de748:	102e8178 	.word	0x102e8178
102de74c:	102e6624 	.word	0x102e6624
102de750:	102e83e4 	.word	0x102e83e4
102de754:	102e8404 	.word	0x102e8404
102de758:	102e2110 	.word	0x102e2110
102de75c:	102e8424 	.word	0x102e8424
102de760:	102e842c 	.word	0x102e842c
102de764:	102e8444 	.word	0x102e8444
102de768:	102e8490 	.word	0x102e8490
102de76c:	102e8498 	.word	0x102e8498
102de770:	102e844c 	.word	0x102e844c
102de774:	102e8470 	.word	0x102e8470

102de778 <Ql_RIL_RcvDataFrmCore>:
102de778:	e92d4008 	push	{r3, lr}
102de77c:	e59f3010 	ldr	r3, [pc, #16]	; 102de794 <Ql_RIL_RcvDataFrmCore+0x1c>
102de780:	e5933000 	ldr	r3, [r3]
102de784:	e3530000 	cmp	r3, #0
102de788:	08bd8008 	popeq	{r3, pc}
102de78c:	e12fff33 	blx	r3
102de790:	e8bd8008 	pop	{r3, pc}
102de794:	f03d39f0 	.word	0xf03d39f0

102de798 <ATResponse_GPSReadTS_Hdlr>:
102de798:	e92d40f0 	push	{r4, r5, r6, r7, lr}
102de79c:	e1a06002 	mov	r6, r2
102de7a0:	e24dd014 	sub	sp, sp, #20
102de7a4:	e59f40e0 	ldr	r4, [pc, #224]	; 102de88c <ATResponse_GPSReadTS_Hdlr+0xf4>
102de7a8:	e59f20e0 	ldr	r2, [pc, #224]	; 102de890 <ATResponse_GPSReadTS_Hdlr+0xf8>
102de7ac:	e1a05000 	mov	r5, r0
102de7b0:	e1a07001 	mov	r7, r1
102de7b4:	e12fff34 	blx	r4
102de7b8:	e3500000 	cmp	r0, #0
102de7bc:	0a00001c 	beq	102de834 <ATResponse_GPSReadTS_Hdlr+0x9c>
102de7c0:	e59f40cc 	ldr	r4, [pc, #204]	; 102de894 <ATResponse_GPSReadTS_Hdlr+0xfc>
102de7c4:	e59f10cc 	ldr	r1, [pc, #204]	; 102de898 <ATResponse_GPSReadTS_Hdlr+0x100>
102de7c8:	e1a00005 	mov	r0, r5
102de7cc:	e12fff34 	blx	r4
102de7d0:	e59f10c4 	ldr	r1, [pc, #196]	; 102de89c <ATResponse_GPSReadTS_Hdlr+0x104>
102de7d4:	e1a05000 	mov	r5, r0
102de7d8:	e12fff34 	blx	r4
102de7dc:	e3500000 	cmp	r0, #0
102de7e0:	13550000 	cmpne	r5, #0
102de7e4:	e1a04000 	mov	r4, r0
102de7e8:	0a00000e 	beq	102de828 <ATResponse_GPSReadTS_Hdlr+0x90>
102de7ec:	e3a01000 	mov	r1, #0
102de7f0:	e3a0200a 	mov	r2, #10
102de7f4:	e59f30a4 	ldr	r3, [pc, #164]	; 102de8a0 <ATResponse_GPSReadTS_Hdlr+0x108>
102de7f8:	e28d0004 	add	r0, sp, #4
102de7fc:	e12fff33 	blx	r3
102de800:	e0652004 	rsb	r2, r5, r4
102de804:	e2851001 	add	r1, r5, #1
102de808:	e2422001 	sub	r2, r2, #1
102de80c:	e59f3090 	ldr	r3, [pc, #144]	; 102de8a4 <ATResponse_GPSReadTS_Hdlr+0x10c>
102de810:	e28d0004 	add	r0, sp, #4
102de814:	e12fff33 	blx	r3
102de818:	e28d0004 	add	r0, sp, #4
102de81c:	e59f3084 	ldr	r3, [pc, #132]	; 102de8a8 <ATResponse_GPSReadTS_Hdlr+0x110>
102de820:	e12fff33 	blx	r3
102de824:	e5c60000 	strb	r0, [r6]
102de828:	e3a00001 	mov	r0, #1
102de82c:	e28dd014 	add	sp, sp, #20
102de830:	e8bd80f0 	pop	{r4, r5, r6, r7, pc}
102de834:	e1a00005 	mov	r0, r5
102de838:	e1a01007 	mov	r1, r7
102de83c:	e59f2068 	ldr	r2, [pc, #104]	; 102de8ac <ATResponse_GPSReadTS_Hdlr+0x114>
102de840:	e12fff34 	blx	r4
102de844:	e2504000 	subs	r4, r0, #0
102de848:	1a00000d 	bne	102de884 <ATResponse_GPSReadTS_Hdlr+0xec>
102de84c:	e1a00005 	mov	r0, r5
102de850:	e1a01007 	mov	r1, r7
102de854:	e59f2054 	ldr	r2, [pc, #84]	; 102de8b0 <ATResponse_GPSReadTS_Hdlr+0x118>
102de858:	e59f6054 	ldr	r6, [pc, #84]	; 102de8b4 <ATResponse_GPSReadTS_Hdlr+0x11c>
102de85c:	e12fff36 	blx	r6
102de860:	e3500000 	cmp	r0, #0
102de864:	11a00004 	movne	r0, r4
102de868:	1affffef 	bne	102de82c <ATResponse_GPSReadTS_Hdlr+0x94>
102de86c:	e1a00005 	mov	r0, r5
102de870:	e1a01007 	mov	r1, r7
102de874:	e59f203c 	ldr	r2, [pc, #60]	; 102de8b8 <ATResponse_GPSReadTS_Hdlr+0x120>
102de878:	e12fff36 	blx	r6
102de87c:	e3500000 	cmp	r0, #0
102de880:	0affffe8 	beq	102de828 <ATResponse_GPSReadTS_Hdlr+0x90>
102de884:	e3e00000 	mvn	r0, #0
102de888:	eaffffe7 	b	102de82c <ATResponse_GPSReadTS_Hdlr+0x94>
102de88c:	102e1e04 	.word	0x102e1e04
102de890:	102e851c 	.word	0x102e851c
102de894:	102e6884 	.word	0x102e6884
102de898:	102e88b8 	.word	0x102e88b8
102de89c:	102e89b4 	.word	0x102e89b4
102de8a0:	102e6774 	.word	0x102e6774
102de8a4:	102e6514 	.word	0x102e6514
102de8a8:	102e690c 	.word	0x102e690c
102de8ac:	102e7f38 	.word	0x102e7f38
102de8b0:	102e87c4 	.word	0x102e87c4
102de8b4:	102e1e90 	.word	0x102e1e90
102de8b8:	102e7f30 	.word	0x102e7f30

102de8bc <ATResponse_GPSRead_Hdlr>:
102de8bc:	e92d40f8 	push	{r3, r4, r5, r6, r7, lr}
102de8c0:	e1a07002 	mov	r7, r2
102de8c4:	e59f533c 	ldr	r5, [pc, #828]	; 102dec08 <ATResponse_GPSRead_Hdlr+0x34c>
102de8c8:	e59f233c 	ldr	r2, [pc, #828]	; 102dec0c <ATResponse_GPSRead_Hdlr+0x350>
102de8cc:	e1a04000 	mov	r4, r0
102de8d0:	e1a06001 	mov	r6, r1
102de8d4:	e12fff35 	blx	r5
102de8d8:	e3500000 	cmp	r0, #0
102de8dc:	e1a00004 	mov	r0, r4
102de8e0:	0a000008 	beq	102de908 <ATResponse_GPSRead_Hdlr+0x4c>
102de8e4:	e59f3324 	ldr	r3, [pc, #804]	; 102dec10 <ATResponse_GPSRead_Hdlr+0x354>
102de8e8:	e12fff33 	blx	r3
102de8ec:	e1a01004 	mov	r1, r4
102de8f0:	e59f331c 	ldr	r3, [pc, #796]	; 102dec14 <ATResponse_GPSRead_Hdlr+0x358>
102de8f4:	e1a02000 	mov	r2, r0
102de8f8:	e1a00007 	mov	r0, r7
102de8fc:	e12fff33 	blx	r3
102de900:	e3a00001 	mov	r0, #1
102de904:	e8bd80f8 	pop	{r3, r4, r5, r6, r7, pc}
102de908:	e1a01006 	mov	r1, r6
102de90c:	e59f22f8 	ldr	r2, [pc, #760]	; 102dec0c <ATResponse_GPSRead_Hdlr+0x350>
102de910:	e12fff35 	blx	r5
102de914:	e3500000 	cmp	r0, #0
102de918:	0a000007 	beq	102de93c <ATResponse_GPSRead_Hdlr+0x80>
102de91c:	e59f32ec 	ldr	r3, [pc, #748]	; 102dec10 <ATResponse_GPSRead_Hdlr+0x354>
102de920:	e1a00004 	mov	r0, r4
102de924:	e12fff33 	blx	r3
102de928:	e1a01004 	mov	r1, r4
102de92c:	e59f32e0 	ldr	r3, [pc, #736]	; 102dec14 <ATResponse_GPSRead_Hdlr+0x358>
102de930:	e1a02000 	mov	r2, r0
102de934:	e1a00007 	mov	r0, r7
102de938:	e12fff33 	blx	r3
102de93c:	e1a00004 	mov	r0, r4
102de940:	e1a01006 	mov	r1, r6
102de944:	e59f22cc 	ldr	r2, [pc, #716]	; 102dec18 <ATResponse_GPSRead_Hdlr+0x35c>
102de948:	e12fff35 	blx	r5
102de94c:	e3500000 	cmp	r0, #0
102de950:	0a000007 	beq	102de974 <ATResponse_GPSRead_Hdlr+0xb8>
102de954:	e59f32b4 	ldr	r3, [pc, #692]	; 102dec10 <ATResponse_GPSRead_Hdlr+0x354>
102de958:	e1a00004 	mov	r0, r4
102de95c:	e12fff33 	blx	r3
102de960:	e1a01004 	mov	r1, r4
102de964:	e59f32a8 	ldr	r3, [pc, #680]	; 102dec14 <ATResponse_GPSRead_Hdlr+0x358>
102de968:	e1a02000 	mov	r2, r0
102de96c:	e1a00007 	mov	r0, r7
102de970:	e12fff33 	blx	r3
102de974:	e1a00004 	mov	r0, r4
102de978:	e1a01006 	mov	r1, r6
102de97c:	e59f2298 	ldr	r2, [pc, #664]	; 102dec1c <ATResponse_GPSRead_Hdlr+0x360>
102de980:	e12fff35 	blx	r5
102de984:	e3500000 	cmp	r0, #0
102de988:	0a000007 	beq	102de9ac <ATResponse_GPSRead_Hdlr+0xf0>
102de98c:	e59f327c 	ldr	r3, [pc, #636]	; 102dec10 <ATResponse_GPSRead_Hdlr+0x354>
102de990:	e1a00004 	mov	r0, r4
102de994:	e12fff33 	blx	r3
102de998:	e1a01004 	mov	r1, r4
102de99c:	e59f3270 	ldr	r3, [pc, #624]	; 102dec14 <ATResponse_GPSRead_Hdlr+0x358>
102de9a0:	e1a02000 	mov	r2, r0
102de9a4:	e1a00007 	mov	r0, r7
102de9a8:	e12fff33 	blx	r3
102de9ac:	e1a00004 	mov	r0, r4
102de9b0:	e1a01006 	mov	r1, r6
102de9b4:	e59f2264 	ldr	r2, [pc, #612]	; 102dec20 <ATResponse_GPSRead_Hdlr+0x364>
102de9b8:	e12fff35 	blx	r5
102de9bc:	e3500000 	cmp	r0, #0
102de9c0:	0a000007 	beq	102de9e4 <ATResponse_GPSRead_Hdlr+0x128>
102de9c4:	e59f3244 	ldr	r3, [pc, #580]	; 102dec10 <ATResponse_GPSRead_Hdlr+0x354>
102de9c8:	e1a00004 	mov	r0, r4
102de9cc:	e12fff33 	blx	r3
102de9d0:	e1a01004 	mov	r1, r4
102de9d4:	e59f3238 	ldr	r3, [pc, #568]	; 102dec14 <ATResponse_GPSRead_Hdlr+0x358>
102de9d8:	e1a02000 	mov	r2, r0
102de9dc:	e1a00007 	mov	r0, r7
102de9e0:	e12fff33 	blx	r3
102de9e4:	e1a00004 	mov	r0, r4
102de9e8:	e1a01006 	mov	r1, r6
102de9ec:	e59f2230 	ldr	r2, [pc, #560]	; 102dec24 <ATResponse_GPSRead_Hdlr+0x368>
102de9f0:	e12fff35 	blx	r5
102de9f4:	e3500000 	cmp	r0, #0
102de9f8:	0a000007 	beq	102dea1c <ATResponse_GPSRead_Hdlr+0x160>
102de9fc:	e59f320c 	ldr	r3, [pc, #524]	; 102dec10 <ATResponse_GPSRead_Hdlr+0x354>
102dea00:	e1a00004 	mov	r0, r4
102dea04:	e12fff33 	blx	r3
102dea08:	e1a01004 	mov	r1, r4
102dea0c:	e59f3200 	ldr	r3, [pc, #512]	; 102dec14 <ATResponse_GPSRead_Hdlr+0x358>
102dea10:	e1a02000 	mov	r2, r0
102dea14:	e1a00007 	mov	r0, r7
102dea18:	e12fff33 	blx	r3
102dea1c:	e1a00004 	mov	r0, r4
102dea20:	e1a01006 	mov	r1, r6
102dea24:	e59f21fc 	ldr	r2, [pc, #508]	; 102dec28 <ATResponse_GPSRead_Hdlr+0x36c>
102dea28:	e12fff35 	blx	r5
102dea2c:	e3500000 	cmp	r0, #0
102dea30:	0a000007 	beq	102dea54 <ATResponse_GPSRead_Hdlr+0x198>
102dea34:	e59f31d4 	ldr	r3, [pc, #468]	; 102dec10 <ATResponse_GPSRead_Hdlr+0x354>
102dea38:	e1a00004 	mov	r0, r4
102dea3c:	e12fff33 	blx	r3
102dea40:	e1a01004 	mov	r1, r4
102dea44:	e59f31c8 	ldr	r3, [pc, #456]	; 102dec14 <ATResponse_GPSRead_Hdlr+0x358>
102dea48:	e1a02000 	mov	r2, r0
102dea4c:	e1a00007 	mov	r0, r7
102dea50:	e12fff33 	blx	r3
102dea54:	e1a00004 	mov	r0, r4
102dea58:	e1a01006 	mov	r1, r6
102dea5c:	e59f21c8 	ldr	r2, [pc, #456]	; 102dec2c <ATResponse_GPSRead_Hdlr+0x370>
102dea60:	e12fff35 	blx	r5
102dea64:	e3500000 	cmp	r0, #0
102dea68:	0a000007 	beq	102dea8c <ATResponse_GPSRead_Hdlr+0x1d0>
102dea6c:	e59f319c 	ldr	r3, [pc, #412]	; 102dec10 <ATResponse_GPSRead_Hdlr+0x354>
102dea70:	e1a00004 	mov	r0, r4
102dea74:	e12fff33 	blx	r3
102dea78:	e1a01004 	mov	r1, r4
102dea7c:	e59f3190 	ldr	r3, [pc, #400]	; 102dec14 <ATResponse_GPSRead_Hdlr+0x358>
102dea80:	e1a02000 	mov	r2, r0
102dea84:	e1a00007 	mov	r0, r7
102dea88:	e12fff33 	blx	r3
102dea8c:	e1a00004 	mov	r0, r4
102dea90:	e1a01006 	mov	r1, r6
102dea94:	e59f2194 	ldr	r2, [pc, #404]	; 102dec30 <ATResponse_GPSRead_Hdlr+0x374>
102dea98:	e12fff35 	blx	r5
102dea9c:	e3500000 	cmp	r0, #0
102deaa0:	0a000007 	beq	102deac4 <ATResponse_GPSRead_Hdlr+0x208>
102deaa4:	e59f3164 	ldr	r3, [pc, #356]	; 102dec10 <ATResponse_GPSRead_Hdlr+0x354>
102deaa8:	e1a00004 	mov	r0, r4
102deaac:	e12fff33 	blx	r3
102deab0:	e1a01004 	mov	r1, r4
102deab4:	e59f3158 	ldr	r3, [pc, #344]	; 102dec14 <ATResponse_GPSRead_Hdlr+0x358>
102deab8:	e1a02000 	mov	r2, r0
102deabc:	e1a00007 	mov	r0, r7
102deac0:	e12fff33 	blx	r3
102deac4:	e1a00004 	mov	r0, r4
102deac8:	e1a01006 	mov	r1, r6
102deacc:	e59f2160 	ldr	r2, [pc, #352]	; 102dec34 <ATResponse_GPSRead_Hdlr+0x378>
102dead0:	e12fff35 	blx	r5
102dead4:	e3500000 	cmp	r0, #0
102dead8:	0a000007 	beq	102deafc <ATResponse_GPSRead_Hdlr+0x240>
102deadc:	e59f312c 	ldr	r3, [pc, #300]	; 102dec10 <ATResponse_GPSRead_Hdlr+0x354>
102deae0:	e1a00004 	mov	r0, r4
102deae4:	e12fff33 	blx	r3
102deae8:	e1a01004 	mov	r1, r4
102deaec:	e59f3120 	ldr	r3, [pc, #288]	; 102dec14 <ATResponse_GPSRead_Hdlr+0x358>
102deaf0:	e1a02000 	mov	r2, r0
102deaf4:	e1a00007 	mov	r0, r7
102deaf8:	e12fff33 	blx	r3
102deafc:	e1a00004 	mov	r0, r4
102deb00:	e1a01006 	mov	r1, r6
102deb04:	e59f212c 	ldr	r2, [pc, #300]	; 102dec38 <ATResponse_GPSRead_Hdlr+0x37c>
102deb08:	e12fff35 	blx	r5
102deb0c:	e3500000 	cmp	r0, #0
102deb10:	0a000007 	beq	102deb34 <ATResponse_GPSRead_Hdlr+0x278>
102deb14:	e59f30f4 	ldr	r3, [pc, #244]	; 102dec10 <ATResponse_GPSRead_Hdlr+0x354>
102deb18:	e1a00004 	mov	r0, r4
102deb1c:	e12fff33 	blx	r3
102deb20:	e1a01004 	mov	r1, r4
102deb24:	e59f30e8 	ldr	r3, [pc, #232]	; 102dec14 <ATResponse_GPSRead_Hdlr+0x358>
102deb28:	e1a02000 	mov	r2, r0
102deb2c:	e1a00007 	mov	r0, r7
102deb30:	e12fff33 	blx	r3
102deb34:	e1a00004 	mov	r0, r4
102deb38:	e1a01006 	mov	r1, r6
102deb3c:	e59f20f8 	ldr	r2, [pc, #248]	; 102dec3c <ATResponse_GPSRead_Hdlr+0x380>
102deb40:	e12fff35 	blx	r5
102deb44:	e3500000 	cmp	r0, #0
102deb48:	0a000007 	beq	102deb6c <ATResponse_GPSRead_Hdlr+0x2b0>
102deb4c:	e59f30bc 	ldr	r3, [pc, #188]	; 102dec10 <ATResponse_GPSRead_Hdlr+0x354>
102deb50:	e1a00004 	mov	r0, r4
102deb54:	e12fff33 	blx	r3
102deb58:	e1a01004 	mov	r1, r4
102deb5c:	e59f30b0 	ldr	r3, [pc, #176]	; 102dec14 <ATResponse_GPSRead_Hdlr+0x358>
102deb60:	e1a02000 	mov	r2, r0
102deb64:	e1a00007 	mov	r0, r7
102deb68:	e12fff33 	blx	r3
102deb6c:	e1a00004 	mov	r0, r4
102deb70:	e1a01006 	mov	r1, r6
102deb74:	e59f20c4 	ldr	r2, [pc, #196]	; 102dec40 <ATResponse_GPSRead_Hdlr+0x384>
102deb78:	e12fff35 	blx	r5
102deb7c:	e3500000 	cmp	r0, #0
102deb80:	0a000007 	beq	102deba4 <ATResponse_GPSRead_Hdlr+0x2e8>
102deb84:	e59f3084 	ldr	r3, [pc, #132]	; 102dec10 <ATResponse_GPSRead_Hdlr+0x354>
102deb88:	e1a00004 	mov	r0, r4
102deb8c:	e12fff33 	blx	r3
102deb90:	e1a01004 	mov	r1, r4
102deb94:	e59f3078 	ldr	r3, [pc, #120]	; 102dec14 <ATResponse_GPSRead_Hdlr+0x358>
102deb98:	e1a02000 	mov	r2, r0
102deb9c:	e1a00007 	mov	r0, r7
102deba0:	e12fff33 	blx	r3
102deba4:	e1a00004 	mov	r0, r4
102deba8:	e1a01006 	mov	r1, r6
102debac:	e59f2090 	ldr	r2, [pc, #144]	; 102dec44 <ATResponse_GPSRead_Hdlr+0x388>
102debb0:	e12fff35 	blx	r5
102debb4:	e2505000 	subs	r5, r0, #0
102debb8:	1a000008 	bne	102debe0 <ATResponse_GPSRead_Hdlr+0x324>
102debbc:	e1a00004 	mov	r0, r4
102debc0:	e1a01006 	mov	r1, r6
102debc4:	e59f207c 	ldr	r2, [pc, #124]	; 102dec48 <ATResponse_GPSRead_Hdlr+0x38c>
102debc8:	e59f707c 	ldr	r7, [pc, #124]	; 102dec4c <ATResponse_GPSRead_Hdlr+0x390>
102debcc:	e12fff37 	blx	r7
102debd0:	e3500000 	cmp	r0, #0
102debd4:	0a000003 	beq	102debe8 <ATResponse_GPSRead_Hdlr+0x32c>
102debd8:	e1a00005 	mov	r0, r5
102debdc:	e8bd80f8 	pop	{r3, r4, r5, r6, r7, pc}
102debe0:	e3e00000 	mvn	r0, #0
102debe4:	e8bd80f8 	pop	{r3, r4, r5, r6, r7, pc}
102debe8:	e1a00004 	mov	r0, r4
102debec:	e1a01006 	mov	r1, r6
102debf0:	e59f2058 	ldr	r2, [pc, #88]	; 102dec50 <ATResponse_GPSRead_Hdlr+0x394>
102debf4:	e12fff37 	blx	r7
102debf8:	e3500000 	cmp	r0, #0
102debfc:	1afffff7 	bne	102debe0 <ATResponse_GPSRead_Hdlr+0x324>
102dec00:	e3a00001 	mov	r0, #1
102dec04:	e8bd80f8 	pop	{r3, r4, r5, r6, r7, pc}
102dec08:	102e1e04 	.word	0x102e1e04
102dec0c:	102e8528 	.word	0x102e8528
102dec10:	102e6624 	.word	0x102e6624
102dec14:	102e659c 	.word	0x102e659c
102dec18:	102e8530 	.word	0x102e8530
102dec1c:	102e8538 	.word	0x102e8538
102dec20:	102e8540 	.word	0x102e8540
102dec24:	102e8548 	.word	0x102e8548
102dec28:	102e8550 	.word	0x102e8550
102dec2c:	102e8558 	.word	0x102e8558
102dec30:	102e8560 	.word	0x102e8560
102dec34:	102e8568 	.word	0x102e8568
102dec38:	102e8570 	.word	0x102e8570
102dec3c:	102e8578 	.word	0x102e8578
102dec40:	102e8580 	.word	0x102e8580
102dec44:	102e7f38 	.word	0x102e7f38
102dec48:	102e87c4 	.word	0x102e87c4
102dec4c:	102e1e90 	.word	0x102e1e90
102dec50:	102e7f30 	.word	0x102e7f30

102dec54 <RIL_GPS_Open>:
102dec54:	e59f3084 	ldr	r3, [pc, #132]	; 102dece0 <RIL_GPS_Open+0x8c>
102dec58:	e92d4010 	push	{r4, lr}
102dec5c:	e1d330b0 	ldrh	r3, [r3]
102dec60:	e24dd040 	sub	sp, sp, #64	; 0x40
102dec64:	e1a04000 	mov	r4, r0
102dec68:	e1cd30bc 	strh	r3, [sp, #12]
102dec6c:	e28d000e 	add	r0, sp, #14
102dec70:	e3a01000 	mov	r1, #0
102dec74:	e3a02030 	mov	r2, #48	; 0x30
102dec78:	e59f3064 	ldr	r3, [pc, #100]	; 102dece4 <RIL_GPS_Open+0x90>
102dec7c:	e12fff33 	blx	r3
102dec80:	e3540001 	cmp	r4, #1
102dec84:	83e00032 	mvnhi	r0, #50	; 0x32
102dec88:	8a000012 	bhi	102decd8 <RIL_GPS_Open+0x84>
102dec8c:	e3a01000 	mov	r1, #0
102dec90:	e3a02032 	mov	r2, #50	; 0x32
102dec94:	e59f304c 	ldr	r3, [pc, #76]	; 102dece8 <RIL_GPS_Open+0x94>
102dec98:	e28d000c 	add	r0, sp, #12
102dec9c:	e12fff33 	blx	r3
102deca0:	e59f3044 	ldr	r3, [pc, #68]	; 102decec <RIL_GPS_Open+0x98>
102deca4:	e59f1044 	ldr	r1, [pc, #68]	; 102decf0 <RIL_GPS_Open+0x9c>
102deca8:	e1a02004 	mov	r2, r4
102decac:	e5933000 	ldr	r3, [r3]
102decb0:	e28d000c 	add	r0, sp, #12
102decb4:	e12fff33 	blx	r3
102decb8:	e3a03000 	mov	r3, #0
102decbc:	e1a02003 	mov	r2, r3
102decc0:	e58d3000 	str	r3, [sp]
102decc4:	e59fc028 	ldr	ip, [pc, #40]	; 102decf4 <RIL_GPS_Open+0xa0>
102decc8:	e1a01800 	lsl	r1, r0, #16
102deccc:	e1a01821 	lsr	r1, r1, #16
102decd0:	e28d000c 	add	r0, sp, #12
102decd4:	e12fff3c 	blx	ip
102decd8:	e28dd040 	add	sp, sp, #64	; 0x40
102decdc:	e8bd8010 	pop	{r4, pc}
102dece0:	102e73e4 	.word	0x102e73e4
102dece4:	102e5325 	.word	0x102e5325
102dece8:	102e6774 	.word	0x102e6774
102decec:	f03d6720 	.word	0xf03d6720
102decf0:	102e8588 	.word	0x102e8588
102decf4:	102e6158 	.word	0x102e6158

102decf8 <RIL_GPS_Read>:
102decf8:	e92d4070 	push	{r4, r5, r6, lr}
102decfc:	e59f30f8 	ldr	r3, [pc, #248]	; 102dedfc <RIL_GPS_Read+0x104>
102ded00:	e24dde42 	sub	sp, sp, #1056	; 0x420
102ded04:	e24dd008 	sub	sp, sp, #8
102ded08:	e1d3c0b0 	ldrh	ip, [r3]
102ded0c:	e28dee42 	add	lr, sp, #1056	; 0x420
102ded10:	e59f30e8 	ldr	r3, [pc, #232]	; 102dee00 <RIL_GPS_Read+0x108>
102ded14:	e28ee008 	add	lr, lr, #8
102ded18:	e18ec0b3 	strh	ip, [lr, r3]
102ded1c:	e1a04000 	mov	r4, r0
102ded20:	e59f30dc 	ldr	r3, [pc, #220]	; 102dee04 <RIL_GPS_Read+0x10c>
102ded24:	e3a02030 	mov	r2, #48	; 0x30
102ded28:	e1a06001 	mov	r6, r1
102ded2c:	e28d000e 	add	r0, sp, #14
102ded30:	e3a01000 	mov	r1, #0
102ded34:	e12fff33 	blx	r3
102ded38:	e59f50c8 	ldr	r5, [pc, #200]	; 102dee08 <RIL_GPS_Read+0x110>
102ded3c:	e3a01000 	mov	r1, #0
102ded40:	e3a02032 	mov	r2, #50	; 0x32
102ded44:	e28d000c 	add	r0, sp, #12
102ded48:	e12fff35 	blx	r5
102ded4c:	e3a01000 	mov	r1, #0
102ded50:	e3a02ffa 	mov	r2, #1000	; 0x3e8
102ded54:	e28d0040 	add	r0, sp, #64	; 0x40
102ded58:	e12fff35 	blx	r5
102ded5c:	e59f30a8 	ldr	r3, [pc, #168]	; 102dee0c <RIL_GPS_Read+0x114>
102ded60:	e1a00004 	mov	r0, r4
102ded64:	e12fff33 	blx	r3
102ded68:	e59f30a0 	ldr	r3, [pc, #160]	; 102dee10 <RIL_GPS_Read+0x118>
102ded6c:	e59f10a0 	ldr	r1, [pc, #160]	; 102dee14 <RIL_GPS_Read+0x11c>
102ded70:	e1a02000 	mov	r2, r0
102ded74:	e1a00004 	mov	r0, r4
102ded78:	e12fff33 	blx	r3
102ded7c:	e59f3094 	ldr	r3, [pc, #148]	; 102dee18 <RIL_GPS_Read+0x120>
102ded80:	e5933000 	ldr	r3, [r3]
102ded84:	e3500000 	cmp	r0, #0
102ded88:	e28d000c 	add	r0, sp, #12
102ded8c:	1a000014 	bne	102dede4 <RIL_GPS_Read+0xec>
102ded90:	e59f1084 	ldr	r1, [pc, #132]	; 102dee1c <RIL_GPS_Read+0x124>
102ded94:	e12fff33 	blx	r3
102ded98:	e1a00800 	lsl	r0, r0, #16
102ded9c:	e1a01820 	lsr	r1, r0, #16
102deda0:	e3a03000 	mov	r3, #0
102deda4:	e58d3000 	str	r3, [sp]
102deda8:	e28d000c 	add	r0, sp, #12
102dedac:	e59f206c 	ldr	r2, [pc, #108]	; 102dee20 <RIL_GPS_Read+0x128>
102dedb0:	e28d3040 	add	r3, sp, #64	; 0x40
102dedb4:	e59fc068 	ldr	ip, [pc, #104]	; 102dee24 <RIL_GPS_Read+0x12c>
102dedb8:	e12fff3c 	blx	ip
102dedbc:	e2504000 	subs	r4, r0, #0
102dedc0:	1a000003 	bne	102dedd4 <RIL_GPS_Read+0xdc>
102dedc4:	e1a00006 	mov	r0, r6
102dedc8:	e28d1040 	add	r1, sp, #64	; 0x40
102dedcc:	e59f3054 	ldr	r3, [pc, #84]	; 102dee28 <RIL_GPS_Read+0x130>
102dedd0:	e12fff33 	blx	r3
102dedd4:	e1a00004 	mov	r0, r4
102dedd8:	e28dd028 	add	sp, sp, #40	; 0x28
102deddc:	e28ddb01 	add	sp, sp, #1024	; 0x400
102dede0:	e8bd8070 	pop	{r4, r5, r6, pc}
102dede4:	e59f1040 	ldr	r1, [pc, #64]	; 102dee2c <RIL_GPS_Read+0x134>
102dede8:	e1a02004 	mov	r2, r4
102dedec:	e12fff33 	blx	r3
102dedf0:	e1a00800 	lsl	r0, r0, #16
102dedf4:	e1a01820 	lsr	r1, r0, #16
102dedf8:	eaffffe8 	b	102deda0 <RIL_GPS_Read+0xa8>
102dedfc:	102e73e4 	.word	0x102e73e4
102dee00:	fffffbe4 	.word	0xfffffbe4
102dee04:	102e5325 	.word	0x102e5325
102dee08:	102e6774 	.word	0x102e6774
102dee0c:	102e6624 	.word	0x102e6624
102dee10:	102e6704 	.word	0x102e6704
102dee14:	102e8598 	.word	0x102e8598
102dee18:	f03d6720 	.word	0xf03d6720
102dee1c:	102e859c 	.word	0x102e859c
102dee20:	102de8bc 	.word	0x102de8bc
102dee24:	102e6158 	.word	0x102e6158
102dee28:	102e6474 	.word	0x102e6474
102dee2c:	102e85a8 	.word	0x102e85a8

102dee30 <RIL_GPS_Read_TimeSync_Status>:
102dee30:	e59f3084 	ldr	r3, [pc, #132]	; 102deebc <RIL_GPS_Read_TimeSync_Status+0x8c>
102dee34:	e92d4010 	push	{r4, lr}
102dee38:	e1d330b0 	ldrh	r3, [r3]
102dee3c:	e24dd040 	sub	sp, sp, #64	; 0x40
102dee40:	e1a04000 	mov	r4, r0
102dee44:	e1cd30bc 	strh	r3, [sp, #12]
102dee48:	e3a01000 	mov	r1, #0
102dee4c:	e3a02030 	mov	r2, #48	; 0x30
102dee50:	e28d000e 	add	r0, sp, #14
102dee54:	e59f3064 	ldr	r3, [pc, #100]	; 102deec0 <RIL_GPS_Read_TimeSync_Status+0x90>
102dee58:	e12fff33 	blx	r3
102dee5c:	e3a02032 	mov	r2, #50	; 0x32
102dee60:	e3a01000 	mov	r1, #0
102dee64:	e28d000c 	add	r0, sp, #12
102dee68:	e59f3054 	ldr	r3, [pc, #84]	; 102deec4 <RIL_GPS_Read_TimeSync_Status+0x94>
102dee6c:	e12fff33 	blx	r3
102dee70:	e59f3050 	ldr	r3, [pc, #80]	; 102deec8 <RIL_GPS_Read_TimeSync_Status+0x98>
102dee74:	e59f1050 	ldr	r1, [pc, #80]	; 102deecc <RIL_GPS_Read_TimeSync_Status+0x9c>
102dee78:	e5933000 	ldr	r3, [r3]
102dee7c:	e28d000c 	add	r0, sp, #12
102dee80:	e12fff33 	blx	r3
102dee84:	e3a03000 	mov	r3, #0
102dee88:	e58d3000 	str	r3, [sp]
102dee8c:	e59f203c 	ldr	r2, [pc, #60]	; 102deed0 <RIL_GPS_Read_TimeSync_Status+0xa0>
102dee90:	e28d300b 	add	r3, sp, #11
102dee94:	e59fc038 	ldr	ip, [pc, #56]	; 102deed4 <RIL_GPS_Read_TimeSync_Status+0xa4>
102dee98:	e1a01800 	lsl	r1, r0, #16
102dee9c:	e1a01821 	lsr	r1, r1, #16
102deea0:	e28d000c 	add	r0, sp, #12
102deea4:	e12fff3c 	blx	ip
102deea8:	e3500000 	cmp	r0, #0
102deeac:	05dd300b 	ldrbeq	r3, [sp, #11]
102deeb0:	05c43000 	strbeq	r3, [r4]
102deeb4:	e28dd040 	add	sp, sp, #64	; 0x40
102deeb8:	e8bd8010 	pop	{r4, pc}
102deebc:	102e73e4 	.word	0x102e73e4
102deec0:	102e5325 	.word	0x102e5325
102deec4:	102e6774 	.word	0x102e6774
102deec8:	f03d6720 	.word	0xf03d6720
102deecc:	102e85c0 	.word	0x102e85c0
102deed0:	102de798 	.word	0x102de798
102deed4:	102e6158 	.word	0x102e6158

102deed8 <OnURCHandler_GPSCMD>:
102deed8:	e92d4070 	push	{r4, r5, r6, lr}
102deedc:	e59f3054 	ldr	r3, [pc, #84]	; 102def38 <OnURCHandler_GPSCMD+0x60>
102deee0:	e59f4054 	ldr	r4, [pc, #84]	; 102def3c <OnURCHandler_GPSCMD+0x64>
102deee4:	e1a05000 	mov	r5, r0
102deee8:	e5946000 	ldr	r6, [r4]
102deeec:	e893000f 	ldm	r3, {r0, r1, r2, r3}
102deef0:	e24dd010 	sub	sp, sp, #16
102deef4:	e1a0c00d 	mov	ip, sp
102deef8:	e3560000 	cmp	r6, #0
102deefc:	e8ac0007 	stmia	ip!, {r0, r1, r2}
102def00:	e1cc30b0 	strh	r3, [ip]
102def04:	0a000005 	beq	102def20 <OnURCHandler_GPSCMD+0x48>
102def08:	e1a00005 	mov	r0, r5
102def0c:	e1a0100d 	mov	r1, sp
102def10:	e59f3028 	ldr	r3, [pc, #40]	; 102def40 <OnURCHandler_GPSCMD+0x68>
102def14:	e12fff33 	blx	r3
102def18:	e3500000 	cmp	r0, #0
102def1c:	1a000001 	bne	102def28 <OnURCHandler_GPSCMD+0x50>
102def20:	e28dd010 	add	sp, sp, #16
102def24:	e8bd8070 	pop	{r4, r5, r6, pc}
102def28:	e5943000 	ldr	r3, [r4]
102def2c:	e1a00005 	mov	r0, r5
102def30:	e12fff33 	blx	r3
102def34:	eafffff9 	b	102def20 <OnURCHandler_GPSCMD+0x48>
102def38:	102e7418 	.word	0x102e7418
102def3c:	f03d39f4 	.word	0xf03d39f4
102def40:	102e1cc4 	.word	0x102e1cc4

102def44 <RIL_GPS_CMD_Send>:
102def44:	e2900000 	adds	r0, r0, #0
102def48:	13a00001 	movne	r0, #1
102def4c:	e92d4030 	push	{r4, r5, lr}
102def50:	e3510000 	cmp	r1, #0
102def54:	11a04000 	movne	r4, r0
102def58:	03804001 	orreq	r4, r0, #1
102def5c:	e3540000 	cmp	r4, #0
102def60:	e24dd0d4 	sub	sp, sp, #212	; 0xd4
102def64:	e1a05001 	mov	r5, r1
102def68:	e1a03002 	mov	r3, r2
102def6c:	1a000019 	bne	102defd8 <RIL_GPS_CMD_Send+0x94>
102def70:	e59fc068 	ldr	ip, [pc, #104]	; 102defe0 <RIL_GPS_CMD_Send+0x9c>
102def74:	e1a01004 	mov	r1, r4
102def78:	e58c3000 	str	r3, [ip]
102def7c:	e3a020c8 	mov	r2, #200	; 0xc8
102def80:	e59f305c 	ldr	r3, [pc, #92]	; 102defe4 <RIL_GPS_CMD_Send+0xa0>
102def84:	e28d0008 	add	r0, sp, #8
102def88:	e12fff33 	blx	r3
102def8c:	e59f0054 	ldr	r0, [pc, #84]	; 102defe8 <RIL_GPS_CMD_Send+0xa4>
102def90:	e59f1054 	ldr	r1, [pc, #84]	; 102defec <RIL_GPS_CMD_Send+0xa8>
102def94:	e590c000 	ldr	ip, [r0]
102def98:	e1a02004 	mov	r2, r4
102def9c:	e1a03005 	mov	r3, r5
102defa0:	e28d0008 	add	r0, sp, #8
102defa4:	e12fff3c 	blx	ip
102defa8:	e59f3040 	ldr	r3, [pc, #64]	; 102deff0 <RIL_GPS_CMD_Send+0xac>
102defac:	e28d0008 	add	r0, sp, #8
102defb0:	e12fff33 	blx	r3
102defb4:	e1a02004 	mov	r2, r4
102defb8:	e58d4000 	str	r4, [sp]
102defbc:	e1a03004 	mov	r3, r4
102defc0:	e59fc02c 	ldr	ip, [pc, #44]	; 102deff4 <RIL_GPS_CMD_Send+0xb0>
102defc4:	e1a01000 	mov	r1, r0
102defc8:	e28d0008 	add	r0, sp, #8
102defcc:	e12fff3c 	blx	ip
102defd0:	e28dd0d4 	add	sp, sp, #212	; 0xd4
102defd4:	e8bd8030 	pop	{r4, r5, pc}
102defd8:	e3e00003 	mvn	r0, #3
102defdc:	eafffffb 	b	102defd0 <RIL_GPS_CMD_Send+0x8c>
102defe0:	f03d39f4 	.word	0xf03d39f4
102defe4:	102e6774 	.word	0x102e6774
102defe8:	f03d6720 	.word	0xf03d6720
102defec:	102e85cc 	.word	0x102e85cc
102deff0:	102e6624 	.word	0x102e6624
102deff4:	102e6158 	.word	0x102e6158

102deff8 <RIL_GPS_EPO_Enable>:
102deff8:	e92d4030 	push	{r4, r5, lr}
102deffc:	e3500001 	cmp	r0, #1
102df000:	e24dd044 	sub	sp, sp, #68	; 0x44
102df004:	e3a04000 	mov	r4, #0
102df008:	e1a05000 	mov	r5, r0
102df00c:	e58d400c 	str	r4, [sp, #12]
102df010:	e58d4010 	str	r4, [sp, #16]
102df014:	e58d4014 	str	r4, [sp, #20]
102df018:	e58d4018 	str	r4, [sp, #24]
102df01c:	e58d401c 	str	r4, [sp, #28]
102df020:	e58d4020 	str	r4, [sp, #32]
102df024:	e58d4024 	str	r4, [sp, #36]	; 0x24
102df028:	e58d4028 	str	r4, [sp, #40]	; 0x28
102df02c:	e58d402c 	str	r4, [sp, #44]	; 0x2c
102df030:	e58d4030 	str	r4, [sp, #48]	; 0x30
102df034:	e58d4034 	str	r4, [sp, #52]	; 0x34
102df038:	e58d4038 	str	r4, [sp, #56]	; 0x38
102df03c:	e1cd43bc 	strh	r4, [sp, #60]	; 0x3c
102df040:	83e00003 	mvnhi	r0, #3
102df044:	8a000012 	bhi	102df094 <RIL_GPS_EPO_Enable+0x9c>
102df048:	e1a01004 	mov	r1, r4
102df04c:	e3a02032 	mov	r2, #50	; 0x32
102df050:	e59f3044 	ldr	r3, [pc, #68]	; 102df09c <RIL_GPS_EPO_Enable+0xa4>
102df054:	e28d000c 	add	r0, sp, #12
102df058:	e12fff33 	blx	r3
102df05c:	e59f303c 	ldr	r3, [pc, #60]	; 102df0a0 <RIL_GPS_EPO_Enable+0xa8>
102df060:	e59f103c 	ldr	r1, [pc, #60]	; 102df0a4 <RIL_GPS_EPO_Enable+0xac>
102df064:	e1a02005 	mov	r2, r5
102df068:	e5933000 	ldr	r3, [r3]
102df06c:	e28d000c 	add	r0, sp, #12
102df070:	e12fff33 	blx	r3
102df074:	e1a02004 	mov	r2, r4
102df078:	e58d4000 	str	r4, [sp]
102df07c:	e1a03004 	mov	r3, r4
102df080:	e59fc020 	ldr	ip, [pc, #32]	; 102df0a8 <RIL_GPS_EPO_Enable+0xb0>
102df084:	e1a01800 	lsl	r1, r0, #16
102df088:	e1a01821 	lsr	r1, r1, #16
102df08c:	e28d000c 	add	r0, sp, #12
102df090:	e12fff3c 	blx	ip
102df094:	e28dd044 	add	sp, sp, #68	; 0x44
102df098:	e8bd8030 	pop	{r4, r5, pc}
102df09c:	102e6774 	.word	0x102e6774
102df0a0:	f03d6720 	.word	0xf03d6720
102df0a4:	102e85e4 	.word	0x102e85e4
102df0a8:	102e6158 	.word	0x102e6158

102df0ac <RIL_GPS_EPO_Aid>:
102df0ac:	e92d4010 	push	{r4, lr}
102df0b0:	e3a04000 	mov	r4, #0
102df0b4:	e24dd040 	sub	sp, sp, #64	; 0x40
102df0b8:	e3a02032 	mov	r2, #50	; 0x32
102df0bc:	e1a01004 	mov	r1, r4
102df0c0:	e28d000c 	add	r0, sp, #12
102df0c4:	e59f3070 	ldr	r3, [pc, #112]	; 102df13c <RIL_GPS_EPO_Aid+0x90>
102df0c8:	e58d400c 	str	r4, [sp, #12]
102df0cc:	e58d4010 	str	r4, [sp, #16]
102df0d0:	e58d4014 	str	r4, [sp, #20]
102df0d4:	e58d4018 	str	r4, [sp, #24]
102df0d8:	e58d401c 	str	r4, [sp, #28]
102df0dc:	e58d4020 	str	r4, [sp, #32]
102df0e0:	e58d4024 	str	r4, [sp, #36]	; 0x24
102df0e4:	e58d4028 	str	r4, [sp, #40]	; 0x28
102df0e8:	e58d402c 	str	r4, [sp, #44]	; 0x2c
102df0ec:	e58d4030 	str	r4, [sp, #48]	; 0x30
102df0f0:	e58d4034 	str	r4, [sp, #52]	; 0x34
102df0f4:	e58d4038 	str	r4, [sp, #56]	; 0x38
102df0f8:	e1cd43bc 	strh	r4, [sp, #60]	; 0x3c
102df0fc:	e12fff33 	blx	r3
102df100:	e59f3038 	ldr	r3, [pc, #56]	; 102df140 <RIL_GPS_EPO_Aid+0x94>
102df104:	e59f1038 	ldr	r1, [pc, #56]	; 102df144 <RIL_GPS_EPO_Aid+0x98>
102df108:	e5933000 	ldr	r3, [r3]
102df10c:	e28d000c 	add	r0, sp, #12
102df110:	e12fff33 	blx	r3
102df114:	e1a02004 	mov	r2, r4
102df118:	e58d4000 	str	r4, [sp]
102df11c:	e1a03004 	mov	r3, r4
102df120:	e59fc020 	ldr	ip, [pc, #32]	; 102df148 <RIL_GPS_EPO_Aid+0x9c>
102df124:	e1a01800 	lsl	r1, r0, #16
102df128:	e1a01821 	lsr	r1, r1, #16
102df12c:	e28d000c 	add	r0, sp, #12
102df130:	e12fff3c 	blx	ip
102df134:	e28dd040 	add	sp, sp, #64	; 0x40
102df138:	e8bd8010 	pop	{r4, pc}
102df13c:	102e6774 	.word	0x102e6774
102df140:	f03d6720 	.word	0xf03d6720
102df144:	102e85f4 	.word	0x102e85f4
102df148:	102e6158 	.word	0x102e6158

102df14c <RIL_GPS_EPO_Config_APN>:
102df14c:	e92d47f0 	push	{r4, r5, r6, r7, r8, r9, sl, lr}
102df150:	e3a04000 	mov	r4, #0
102df154:	e24dd040 	sub	sp, sp, #64	; 0x40
102df158:	e59f60e0 	ldr	r6, [pc, #224]	; 102df240 <RIL_GPS_EPO_Config_APN+0xf4>
102df15c:	e1a09000 	mov	r9, r0
102df160:	e1a0a001 	mov	sl, r1
102df164:	e1a08002 	mov	r8, r2
102df168:	e1a01004 	mov	r1, r4
102df16c:	e3a02032 	mov	r2, #50	; 0x32
102df170:	e28d000c 	add	r0, sp, #12
102df174:	e59f70c8 	ldr	r7, [pc, #200]	; 102df244 <RIL_GPS_EPO_Config_APN+0xf8>
102df178:	e58d400c 	str	r4, [sp, #12]
102df17c:	e58d4010 	str	r4, [sp, #16]
102df180:	e58d4014 	str	r4, [sp, #20]
102df184:	e58d4018 	str	r4, [sp, #24]
102df188:	e58d401c 	str	r4, [sp, #28]
102df18c:	e58d4020 	str	r4, [sp, #32]
102df190:	e58d4024 	str	r4, [sp, #36]	; 0x24
102df194:	e58d4028 	str	r4, [sp, #40]	; 0x28
102df198:	e58d402c 	str	r4, [sp, #44]	; 0x2c
102df19c:	e58d4030 	str	r4, [sp, #48]	; 0x30
102df1a0:	e58d4034 	str	r4, [sp, #52]	; 0x34
102df1a4:	e58d4038 	str	r4, [sp, #56]	; 0x38
102df1a8:	e1cd43bc 	strh	r4, [sp, #60]	; 0x3c
102df1ac:	e12fff37 	blx	r7
102df1b0:	e59f1090 	ldr	r1, [pc, #144]	; 102df248 <RIL_GPS_EPO_Config_APN+0xfc>
102df1b4:	e5963000 	ldr	r3, [r6]
102df1b8:	e28d000c 	add	r0, sp, #12
102df1bc:	e12fff33 	blx	r3
102df1c0:	e59f5084 	ldr	r5, [pc, #132]	; 102df24c <RIL_GPS_EPO_Config_APN+0x100>
102df1c4:	e1a02004 	mov	r2, r4
102df1c8:	e58d4000 	str	r4, [sp]
102df1cc:	e1a03004 	mov	r3, r4
102df1d0:	e1a01800 	lsl	r1, r0, #16
102df1d4:	e1a01821 	lsr	r1, r1, #16
102df1d8:	e28d000c 	add	r0, sp, #12
102df1dc:	e12fff35 	blx	r5
102df1e0:	e2504000 	subs	r4, r0, #0
102df1e4:	1a000012 	bne	102df234 <RIL_GPS_EPO_Config_APN+0xe8>
102df1e8:	e1a01004 	mov	r1, r4
102df1ec:	e3a02032 	mov	r2, #50	; 0x32
102df1f0:	e28d000c 	add	r0, sp, #12
102df1f4:	e12fff37 	blx	r7
102df1f8:	e59f1050 	ldr	r1, [pc, #80]	; 102df250 <RIL_GPS_EPO_Config_APN+0x104>
102df1fc:	e1a02009 	mov	r2, r9
102df200:	e1a0300a 	mov	r3, sl
102df204:	e596c000 	ldr	ip, [r6]
102df208:	e58d8000 	str	r8, [sp]
102df20c:	e28d000c 	add	r0, sp, #12
102df210:	e12fff3c 	blx	ip
102df214:	e1a02004 	mov	r2, r4
102df218:	e58d4000 	str	r4, [sp]
102df21c:	e1a03004 	mov	r3, r4
102df220:	e1a01800 	lsl	r1, r0, #16
102df224:	e1a01821 	lsr	r1, r1, #16
102df228:	e28d000c 	add	r0, sp, #12
102df22c:	e12fff35 	blx	r5
102df230:	e1a04000 	mov	r4, r0
102df234:	e1a00004 	mov	r0, r4
102df238:	e28dd040 	add	sp, sp, #64	; 0x40
102df23c:	e8bd87f0 	pop	{r4, r5, r6, r7, r8, r9, sl, pc}
102df240:	f03d6720 	.word	0xf03d6720
102df244:	102e6774 	.word	0x102e6774
102df248:	102e8600 	.word	0x102e8600
102df24c:	102e6158 	.word	0x102e6158
102df250:	102e8610 	.word	0x102e8610

102df254 <RIL_GetInitCmdCnt>:
102df254:	e3a00006 	mov	r0, #6
102df258:	e12fff1e 	bx	lr

102df25c <RIL_GetLimitedCmdCnt>:
102df25c:	e3a00002 	mov	r0, #2
102df260:	e12fff1e 	bx	lr

102df264 <RIL_GetLocation>:
102df264:	e59f30b0 	ldr	r3, [pc, #176]	; 102df31c <RIL_GetLocation+0xb8>
102df268:	e92d41f0 	push	{r4, r5, r6, r7, r8, lr}
102df26c:	e59f70ac 	ldr	r7, [pc, #172]	; 102df320 <RIL_GetLocation+0xbc>
102df270:	e24dd0d0 	sub	sp, sp, #208	; 0xd0
102df274:	e3a020c8 	mov	r2, #200	; 0xc8
102df278:	e5830000 	str	r0, [r3]
102df27c:	e3a01000 	mov	r1, #0
102df280:	e28d0008 	add	r0, sp, #8
102df284:	e59f8098 	ldr	r8, [pc, #152]	; 102df324 <RIL_GetLocation+0xc0>
102df288:	e12fff38 	blx	r8
102df28c:	e59f1094 	ldr	r1, [pc, #148]	; 102df328 <RIL_GetLocation+0xc4>
102df290:	e5973000 	ldr	r3, [r7]
102df294:	e28d0008 	add	r0, sp, #8
102df298:	e12fff33 	blx	r3
102df29c:	e59f6088 	ldr	r6, [pc, #136]	; 102df32c <RIL_GetLocation+0xc8>
102df2a0:	e28d0008 	add	r0, sp, #8
102df2a4:	e12fff36 	blx	r6
102df2a8:	e3a03000 	mov	r3, #0
102df2ac:	e1a02003 	mov	r2, r3
102df2b0:	e58d3000 	str	r3, [sp]
102df2b4:	e59f5074 	ldr	r5, [pc, #116]	; 102df330 <RIL_GetLocation+0xcc>
102df2b8:	e1a01000 	mov	r1, r0
102df2bc:	e28d0008 	add	r0, sp, #8
102df2c0:	e12fff35 	blx	r5
102df2c4:	e2504000 	subs	r4, r0, #0
102df2c8:	1a000010 	bne	102df310 <RIL_GetLocation+0xac>
102df2cc:	e3a020c8 	mov	r2, #200	; 0xc8
102df2d0:	e1a01004 	mov	r1, r4
102df2d4:	e28d0008 	add	r0, sp, #8
102df2d8:	e12fff38 	blx	r8
102df2dc:	e59f1050 	ldr	r1, [pc, #80]	; 102df334 <RIL_GetLocation+0xd0>
102df2e0:	e5973000 	ldr	r3, [r7]
102df2e4:	e28d0008 	add	r0, sp, #8
102df2e8:	e12fff33 	blx	r3
102df2ec:	e28d0008 	add	r0, sp, #8
102df2f0:	e12fff36 	blx	r6
102df2f4:	e1a02004 	mov	r2, r4
102df2f8:	e58d4000 	str	r4, [sp]
102df2fc:	e1a03004 	mov	r3, r4
102df300:	e1a01000 	mov	r1, r0
102df304:	e28d0008 	add	r0, sp, #8
102df308:	e12fff35 	blx	r5
102df30c:	e1a04000 	mov	r4, r0
102df310:	e1a00004 	mov	r0, r4
102df314:	e28dd0d0 	add	sp, sp, #208	; 0xd0
102df318:	e8bd81f0 	pop	{r4, r5, r6, r7, r8, pc}
102df31c:	f03d3a70 	.word	0xf03d3a70
102df320:	f03d6720 	.word	0xf03d6720
102df324:	102e6774 	.word	0x102e6774
102df328:	102e8684 	.word	0x102e8684
102df32c:	102e6624 	.word	0x102e6624
102df330:	102e6158 	.word	0x102e6158
102df334:	102e869c 	.word	0x102e869c

102df338 <RIL_GetLocationByCell>:
102df338:	e59f30cc 	ldr	r3, [pc, #204]	; 102df40c <RIL_GetLocationByCell+0xd4>
102df33c:	e92d45f0 	push	{r4, r5, r6, r7, r8, sl, lr}
102df340:	e59f80c8 	ldr	r8, [pc, #200]	; 102df410 <RIL_GetLocationByCell+0xd8>
102df344:	e24dd0dc 	sub	sp, sp, #220	; 0xdc
102df348:	e1a05000 	mov	r5, r0
102df34c:	e3a020c8 	mov	r2, #200	; 0xc8
102df350:	e5831000 	str	r1, [r3]
102df354:	e59fa0b8 	ldr	sl, [pc, #184]	; 102df414 <RIL_GetLocationByCell+0xdc>
102df358:	e3a01000 	mov	r1, #0
102df35c:	e28d0010 	add	r0, sp, #16
102df360:	e12fff3a 	blx	sl
102df364:	e5983000 	ldr	r3, [r8]
102df368:	e59f10a8 	ldr	r1, [pc, #168]	; 102df418 <RIL_GetLocationByCell+0xe0>
102df36c:	e28d0010 	add	r0, sp, #16
102df370:	e12fff33 	blx	r3
102df374:	e59f70a0 	ldr	r7, [pc, #160]	; 102df41c <RIL_GetLocationByCell+0xe4>
102df378:	e28d0010 	add	r0, sp, #16
102df37c:	e12fff37 	blx	r7
102df380:	e3a04000 	mov	r4, #0
102df384:	e1a03004 	mov	r3, r4
102df388:	e1a02004 	mov	r2, r4
102df38c:	e58d4000 	str	r4, [sp]
102df390:	e59f6088 	ldr	r6, [pc, #136]	; 102df420 <RIL_GetLocationByCell+0xe8>
102df394:	e1a01000 	mov	r1, r0
102df398:	e28d0010 	add	r0, sp, #16
102df39c:	e12fff36 	blx	r6
102df3a0:	e1a01004 	mov	r1, r4
102df3a4:	e28d0010 	add	r0, sp, #16
102df3a8:	e3a020c8 	mov	r2, #200	; 0xc8
102df3ac:	e12fff3a 	blx	sl
102df3b0:	e1d5e0b0 	ldrh	lr, [r5]
102df3b4:	e1d5a0b2 	ldrh	sl, [r5, #2]
102df3b8:	e1d5c0fc 	ldrsh	ip, [r5, #12]
102df3bc:	e1d500be 	ldrh	r0, [r5, #14]
102df3c0:	e5952008 	ldr	r2, [r5, #8]
102df3c4:	e5953004 	ldr	r3, [r5, #4]
102df3c8:	e59f1054 	ldr	r1, [pc, #84]	; 102df424 <RIL_GetLocationByCell+0xec>
102df3cc:	e88d4400 	stm	sp, {sl, lr}
102df3d0:	e58dc008 	str	ip, [sp, #8]
102df3d4:	e58d000c 	str	r0, [sp, #12]
102df3d8:	e598c000 	ldr	ip, [r8]
102df3dc:	e28d0010 	add	r0, sp, #16
102df3e0:	e12fff3c 	blx	ip
102df3e4:	e28d0010 	add	r0, sp, #16
102df3e8:	e12fff37 	blx	r7
102df3ec:	e1a02004 	mov	r2, r4
102df3f0:	e58d4000 	str	r4, [sp]
102df3f4:	e1a03004 	mov	r3, r4
102df3f8:	e1a01000 	mov	r1, r0
102df3fc:	e28d0010 	add	r0, sp, #16
102df400:	e12fff36 	blx	r6
102df404:	e28dd0dc 	add	sp, sp, #220	; 0xdc
102df408:	e8bd85f0 	pop	{r4, r5, r6, r7, r8, sl, pc}
102df40c:	f03d3a70 	.word	0xf03d3a70
102df410:	f03d6720 	.word	0xf03d6720
102df414:	102e6774 	.word	0x102e6774
102df418:	102e8684 	.word	0x102e8684
102df41c:	102e6624 	.word	0x102e6624
102df420:	102e6158 	.word	0x102e6158
102df424:	102e86ac 	.word	0x102e86ac

102df428 <OnURCHandler_QCELLLocation>:
102df428:	e92d41f0 	push	{r4, r5, r6, r7, r8, lr}
102df42c:	e59f50a8 	ldr	r5, [pc, #168]	; 102df4dc <OnURCHandler_QCELLLocation+0xb4>
102df430:	e24dd028 	sub	sp, sp, #40	; 0x28
102df434:	e5953000 	ldr	r3, [r5]
102df438:	e1a04000 	mov	r4, r0
102df43c:	e3530000 	cmp	r3, #0
102df440:	0a000009 	beq	102df46c <OnURCHandler_QCELLLocation+0x44>
102df444:	e59f1094 	ldr	r1, [pc, #148]	; 102df4e0 <OnURCHandler_QCELLLocation+0xb8>
102df448:	e59f3094 	ldr	r3, [pc, #148]	; 102df4e4 <OnURCHandler_QCELLLocation+0xbc>
102df44c:	e28d0008 	add	r0, sp, #8
102df450:	e12fff33 	blx	r3
102df454:	e1a00004 	mov	r0, r4
102df458:	e28d1008 	add	r1, sp, #8
102df45c:	e59f3084 	ldr	r3, [pc, #132]	; 102df4e8 <OnURCHandler_QCELLLocation+0xc0>
102df460:	e12fff33 	blx	r3
102df464:	e3500000 	cmp	r0, #0
102df468:	1a000001 	bne	102df474 <OnURCHandler_QCELLLocation+0x4c>
102df46c:	e28dd028 	add	sp, sp, #40	; 0x28
102df470:	e8bd81f0 	pop	{r4, r5, r6, r7, r8, pc}
102df474:	e59f8070 	ldr	r8, [pc, #112]	; 102df4ec <OnURCHandler_QCELLLocation+0xc4>
102df478:	e28d2008 	add	r2, sp, #8
102df47c:	e5983000 	ldr	r3, [r8]
102df480:	e59f1068 	ldr	r1, [pc, #104]	; 102df4f0 <OnURCHandler_QCELLLocation+0xc8>
102df484:	e1a00004 	mov	r0, r4
102df488:	e12fff33 	blx	r3
102df48c:	e59f7060 	ldr	r7, [pc, #96]	; 102df4f4 <OnURCHandler_QCELLLocation+0xcc>
102df490:	e28d0008 	add	r0, sp, #8
102df494:	e12fff37 	blx	r7
102df498:	e59f6058 	ldr	r6, [pc, #88]	; 102df4f8 <OnURCHandler_QCELLLocation+0xd0>
102df49c:	e12fff36 	blx	r6
102df4a0:	e5983000 	ldr	r3, [r8]
102df4a4:	e28d2008 	add	r2, sp, #8
102df4a8:	e59f104c 	ldr	r1, [pc, #76]	; 102df4fc <OnURCHandler_QCELLLocation+0xd4>
102df4ac:	e58d0000 	str	r0, [sp]
102df4b0:	e1a00004 	mov	r0, r4
102df4b4:	e12fff33 	blx	r3
102df4b8:	e28d0008 	add	r0, sp, #8
102df4bc:	e12fff37 	blx	r7
102df4c0:	e12fff36 	blx	r6
102df4c4:	e5953000 	ldr	r3, [r5]
102df4c8:	e1a0100d 	mov	r1, sp
102df4cc:	e58d0004 	str	r0, [sp, #4]
102df4d0:	e3a00000 	mov	r0, #0
102df4d4:	e12fff33 	blx	r3
102df4d8:	eaffffe3 	b	102df46c <OnURCHandler_QCELLLocation+0x44>
102df4dc:	f03d3a70 	.word	0xf03d3a70
102df4e0:	102e7428 	.word	0x102e7428
102df4e4:	102e6474 	.word	0x102e6474
102df4e8:	102e1cc4 	.word	0x102e1cc4
102df4ec:	f03d672c 	.word	0xf03d672c
102df4f0:	102e7fa0 	.word	0x102e7fa0
102df4f4:	102e63dc 	.word	0x102e63dc
102df4f8:	102e553c 	.word	0x102e553c
102df4fc:	102e7fb0 	.word	0x102e7fb0

102df500 <ATRsp_COPS_Handler>:
102df500:	e92d41f0 	push	{r4, r5, r6, r7, r8, lr}
102df504:	e1a06002 	mov	r6, r2
102df508:	e59f50e8 	ldr	r5, [pc, #232]	; 102df5f8 <ATRsp_COPS_Handler+0xf8>
102df50c:	e59f20e8 	ldr	r2, [pc, #232]	; 102df5fc <ATRsp_COPS_Handler+0xfc>
102df510:	e1a08000 	mov	r8, r0
102df514:	e1a07001 	mov	r7, r1
102df518:	e12fff35 	blx	r5
102df51c:	e2504000 	subs	r4, r0, #0
102df520:	0a00001b 	beq	102df594 <ATRsp_COPS_Handler+0x94>
102df524:	e59f30d4 	ldr	r3, [pc, #212]	; 102df600 <ATRsp_COPS_Handler+0x100>
102df528:	e59f00d4 	ldr	r0, [pc, #212]	; 102df604 <ATRsp_COPS_Handler+0x104>
102df52c:	e12fff33 	blx	r3
102df530:	e59f50d0 	ldr	r5, [pc, #208]	; 102df608 <ATRsp_COPS_Handler+0x108>
102df534:	e59f10d0 	ldr	r1, [pc, #208]	; 102df60c <ATRsp_COPS_Handler+0x10c>
102df538:	e0844000 	add	r4, r4, r0
102df53c:	e1a00004 	mov	r0, r4
102df540:	e12fff35 	blx	r5
102df544:	e3540000 	cmp	r4, #0
102df548:	0a00000e 	beq	102df588 <ATRsp_COPS_Handler+0x88>
102df54c:	e2807001 	add	r7, r0, #1
102df550:	e1a00007 	mov	r0, r7
102df554:	e59f10b0 	ldr	r1, [pc, #176]	; 102df60c <ATRsp_COPS_Handler+0x10c>
102df558:	e12fff35 	blx	r5
102df55c:	e3500000 	cmp	r0, #0
102df560:	08bd81f0 	popeq	{r4, r5, r6, r7, r8, pc}
102df564:	e0675000 	rsb	r5, r7, r0
102df568:	e1a01007 	mov	r1, r7
102df56c:	e1a00006 	mov	r0, r6
102df570:	e1a02005 	mov	r2, r5
102df574:	e59f3094 	ldr	r3, [pc, #148]	; 102df610 <ATRsp_COPS_Handler+0x110>
102df578:	e12fff33 	blx	r3
102df57c:	e3a00000 	mov	r0, #0
102df580:	e7c60005 	strb	r0, [r6, r5]
102df584:	e8bd81f0 	pop	{r4, r5, r6, r7, r8, pc}
102df588:	e5c64000 	strb	r4, [r6]
102df58c:	e1a00004 	mov	r0, r4
102df590:	e8bd81f0 	pop	{r4, r5, r6, r7, r8, pc}
102df594:	e1a00008 	mov	r0, r8
102df598:	e1a01007 	mov	r1, r7
102df59c:	e59f2070 	ldr	r2, [pc, #112]	; 102df614 <ATRsp_COPS_Handler+0x114>
102df5a0:	e59f6070 	ldr	r6, [pc, #112]	; 102df618 <ATRsp_COPS_Handler+0x118>
102df5a4:	e12fff36 	blx	r6
102df5a8:	e3500000 	cmp	r0, #0
102df5ac:	0a000001 	beq	102df5b8 <ATRsp_COPS_Handler+0xb8>
102df5b0:	e1a00004 	mov	r0, r4
102df5b4:	e8bd81f0 	pop	{r4, r5, r6, r7, r8, pc}
102df5b8:	e1a00008 	mov	r0, r8
102df5bc:	e1a01007 	mov	r1, r7
102df5c0:	e59f2054 	ldr	r2, [pc, #84]	; 102df61c <ATRsp_COPS_Handler+0x11c>
102df5c4:	e12fff36 	blx	r6
102df5c8:	e3500000 	cmp	r0, #0
102df5cc:	1a000007 	bne	102df5f0 <ATRsp_COPS_Handler+0xf0>
102df5d0:	e1a00008 	mov	r0, r8
102df5d4:	e1a01007 	mov	r1, r7
102df5d8:	e59f2040 	ldr	r2, [pc, #64]	; 102df620 <ATRsp_COPS_Handler+0x120>
102df5dc:	e12fff35 	blx	r5
102df5e0:	e3500000 	cmp	r0, #0
102df5e4:	1a000001 	bne	102df5f0 <ATRsp_COPS_Handler+0xf0>
102df5e8:	e3a00001 	mov	r0, #1
102df5ec:	e8bd81f0 	pop	{r4, r5, r6, r7, r8, pc}
102df5f0:	e3e00000 	mvn	r0, #0
102df5f4:	e8bd81f0 	pop	{r4, r5, r6, r7, r8, pc}
102df5f8:	102e1e04 	.word	0x102e1e04
102df5fc:	102e86d0 	.word	0x102e86d0
102df600:	102e6624 	.word	0x102e6624
102df604:	102e86d8 	.word	0x102e86d8
102df608:	102e6884 	.word	0x102e6884
102df60c:	102e8210 	.word	0x102e8210
102df610:	102e67fc 	.word	0x102e67fc
102df614:	102e87c4 	.word	0x102e87c4
102df618:	102e1e90 	.word	0x102e1e90
102df61c:	102e7f30 	.word	0x102e7f30
102df620:	102e7fe8 	.word	0x102e7fe8

102df624 <ATRsp_QIDEACT_Hdlr>:
102df624:	e92d4070 	push	{r4, r5, r6, lr}
102df628:	e59f203c 	ldr	r2, [pc, #60]	; 102df66c <ATRsp_QIDEACT_Hdlr+0x48>
102df62c:	e59f403c 	ldr	r4, [pc, #60]	; 102df670 <ATRsp_QIDEACT_Hdlr+0x4c>
102df630:	e1a06000 	mov	r6, r0
102df634:	e1a05001 	mov	r5, r1
102df638:	e12fff34 	blx	r4
102df63c:	e3500000 	cmp	r0, #0
102df640:	0a000001 	beq	102df64c <ATRsp_QIDEACT_Hdlr+0x28>
102df644:	e3a00000 	mov	r0, #0
102df648:	e8bd8070 	pop	{r4, r5, r6, pc}
102df64c:	e1a00006 	mov	r0, r6
102df650:	e1a01005 	mov	r1, r5
102df654:	e59f2018 	ldr	r2, [pc, #24]	; 102df674 <ATRsp_QIDEACT_Hdlr+0x50>
102df658:	e12fff34 	blx	r4
102df65c:	e3500000 	cmp	r0, #0
102df660:	03a00001 	moveq	r0, #1
102df664:	13e00000 	mvnne	r0, #0
102df668:	e8bd8070 	pop	{r4, r5, r6, pc}
102df66c:	102e86e0 	.word	0x102e86e0
102df670:	102e1e90 	.word	0x102e1e90
102df674:	102e7f30 	.word	0x102e7f30

102df678 <ATResponse_CSQ_Handler>:
102df678:	e92d41f0 	push	{r4, r5, r6, r7, r8, lr}
102df67c:	e1a05002 	mov	r5, r2
102df680:	e59f4098 	ldr	r4, [pc, #152]	; 102df720 <ATResponse_CSQ_Handler+0xa8>
102df684:	e59f2098 	ldr	r2, [pc, #152]	; 102df724 <ATResponse_CSQ_Handler+0xac>
102df688:	e1a07000 	mov	r7, r0
102df68c:	e1a06001 	mov	r6, r1
102df690:	e12fff34 	blx	r4
102df694:	e2508000 	subs	r8, r0, #0
102df698:	0a000007 	beq	102df6bc <ATResponse_CSQ_Handler+0x44>
102df69c:	e59f3084 	ldr	r3, [pc, #132]	; 102df728 <ATResponse_CSQ_Handler+0xb0>
102df6a0:	e1a02005 	mov	r2, r5
102df6a4:	e593c000 	ldr	ip, [r3]
102df6a8:	e59f107c 	ldr	r1, [pc, #124]	; 102df72c <ATResponse_CSQ_Handler+0xb4>
102df6ac:	e2853004 	add	r3, r5, #4
102df6b0:	e12fff3c 	blx	ip
102df6b4:	e3a00001 	mov	r0, #1
102df6b8:	e8bd81f0 	pop	{r4, r5, r6, r7, r8, pc}
102df6bc:	e1a00007 	mov	r0, r7
102df6c0:	e1a01006 	mov	r1, r6
102df6c4:	e59f2064 	ldr	r2, [pc, #100]	; 102df730 <ATResponse_CSQ_Handler+0xb8>
102df6c8:	e59f5064 	ldr	r5, [pc, #100]	; 102df734 <ATResponse_CSQ_Handler+0xbc>
102df6cc:	e12fff35 	blx	r5
102df6d0:	e3500000 	cmp	r0, #0
102df6d4:	0a000001 	beq	102df6e0 <ATResponse_CSQ_Handler+0x68>
102df6d8:	e1a00008 	mov	r0, r8
102df6dc:	e8bd81f0 	pop	{r4, r5, r6, r7, r8, pc}
102df6e0:	e1a00007 	mov	r0, r7
102df6e4:	e1a01006 	mov	r1, r6
102df6e8:	e59f2048 	ldr	r2, [pc, #72]	; 102df738 <ATResponse_CSQ_Handler+0xc0>
102df6ec:	e12fff35 	blx	r5
102df6f0:	e3500000 	cmp	r0, #0
102df6f4:	1a000007 	bne	102df718 <ATResponse_CSQ_Handler+0xa0>
102df6f8:	e1a00007 	mov	r0, r7
102df6fc:	e1a01006 	mov	r1, r6
102df700:	e59f2034 	ldr	r2, [pc, #52]	; 102df73c <ATResponse_CSQ_Handler+0xc4>
102df704:	e12fff34 	blx	r4
102df708:	e3500000 	cmp	r0, #0
102df70c:	03a00001 	moveq	r0, #1
102df710:	13e00000 	mvnne	r0, #0
102df714:	e8bd81f0 	pop	{r4, r5, r6, r7, r8, pc}
102df718:	e3e00000 	mvn	r0, #0
102df71c:	e8bd81f0 	pop	{r4, r5, r6, r7, r8, pc}
102df720:	102e1e04 	.word	0x102e1e04
102df724:	102e86ec 	.word	0x102e86ec
102df728:	f03d672c 	.word	0xf03d672c
102df72c:	102e86f4 	.word	0x102e86f4
102df730:	102e87c4 	.word	0x102e87c4
102df734:	102e1e90 	.word	0x102e1e90
102df738:	102e7f30 	.word	0x102e7f30
102df73c:	102e7fe8 	.word	0x102e7fe8

102df740 <ATResponse_CGREG_Handler>:
102df740:	e92d41f0 	push	{r4, r5, r6, r7, r8, lr}
102df744:	e1a05002 	mov	r5, r2
102df748:	e24dd008 	sub	sp, sp, #8
102df74c:	e59f409c 	ldr	r4, [pc, #156]	; 102df7f0 <ATResponse_CGREG_Handler+0xb0>
102df750:	e59f209c 	ldr	r2, [pc, #156]	; 102df7f4 <ATResponse_CGREG_Handler+0xb4>
102df754:	e1a07000 	mov	r7, r0
102df758:	e1a06001 	mov	r6, r1
102df75c:	e12fff34 	blx	r4
102df760:	e2508000 	subs	r8, r0, #0
102df764:	0a00000a 	beq	102df794 <ATResponse_CGREG_Handler+0x54>
102df768:	e28d2008 	add	r2, sp, #8
102df76c:	e3a03000 	mov	r3, #0
102df770:	e5223004 	str	r3, [r2, #-4]!
102df774:	e59f307c 	ldr	r3, [pc, #124]	; 102df7f8 <ATResponse_CGREG_Handler+0xb8>
102df778:	e59f107c 	ldr	r1, [pc, #124]	; 102df7fc <ATResponse_CGREG_Handler+0xbc>
102df77c:	e5934000 	ldr	r4, [r3]
102df780:	e1a03005 	mov	r3, r5
102df784:	e12fff34 	blx	r4
102df788:	e3a00001 	mov	r0, #1
102df78c:	e28dd008 	add	sp, sp, #8
102df790:	e8bd81f0 	pop	{r4, r5, r6, r7, r8, pc}
102df794:	e1a00007 	mov	r0, r7
102df798:	e1a01006 	mov	r1, r6
102df79c:	e59f205c 	ldr	r2, [pc, #92]	; 102df800 <ATResponse_CGREG_Handler+0xc0>
102df7a0:	e59f505c 	ldr	r5, [pc, #92]	; 102df804 <ATResponse_CGREG_Handler+0xc4>
102df7a4:	e12fff35 	blx	r5
102df7a8:	e3500000 	cmp	r0, #0
102df7ac:	11a00008 	movne	r0, r8
102df7b0:	1afffff5 	bne	102df78c <ATResponse_CGREG_Handler+0x4c>
102df7b4:	e1a00007 	mov	r0, r7
102df7b8:	e1a01006 	mov	r1, r6
102df7bc:	e59f2044 	ldr	r2, [pc, #68]	; 102df808 <ATResponse_CGREG_Handler+0xc8>
102df7c0:	e12fff35 	blx	r5
102df7c4:	e3500000 	cmp	r0, #0
102df7c8:	13e00000 	mvnne	r0, #0
102df7cc:	1affffee 	bne	102df78c <ATResponse_CGREG_Handler+0x4c>
102df7d0:	e1a00007 	mov	r0, r7
102df7d4:	e1a01006 	mov	r1, r6
102df7d8:	e59f202c 	ldr	r2, [pc, #44]	; 102df80c <ATResponse_CGREG_Handler+0xcc>
102df7dc:	e12fff34 	blx	r4
102df7e0:	e3500000 	cmp	r0, #0
102df7e4:	03a00001 	moveq	r0, #1
102df7e8:	13e00000 	mvnne	r0, #0
102df7ec:	eaffffe6 	b	102df78c <ATResponse_CGREG_Handler+0x4c>
102df7f0:	102e1e04 	.word	0x102e1e04
102df7f4:	102e8708 	.word	0x102e8708
102df7f8:	f03d672c 	.word	0xf03d672c
102df7fc:	102e86f4 	.word	0x102e86f4
102df800:	102e87c4 	.word	0x102e87c4
102df804:	102e1e90 	.word	0x102e1e90
102df808:	102e7f30 	.word	0x102e7f30
102df80c:	102e7fe8 	.word	0x102e7fe8

102df810 <ATResponse_CREG_Handler>:
102df810:	e92d41f0 	push	{r4, r5, r6, r7, r8, lr}
102df814:	e1a05002 	mov	r5, r2
102df818:	e24dd008 	sub	sp, sp, #8
102df81c:	e59f409c 	ldr	r4, [pc, #156]	; 102df8c0 <ATResponse_CREG_Handler+0xb0>
102df820:	e59f209c 	ldr	r2, [pc, #156]	; 102df8c4 <ATResponse_CREG_Handler+0xb4>
102df824:	e1a07000 	mov	r7, r0
102df828:	e1a06001 	mov	r6, r1
102df82c:	e12fff34 	blx	r4
102df830:	e2508000 	subs	r8, r0, #0
102df834:	0a00000a 	beq	102df864 <ATResponse_CREG_Handler+0x54>
102df838:	e28d2008 	add	r2, sp, #8
102df83c:	e3a03000 	mov	r3, #0
102df840:	e5223004 	str	r3, [r2, #-4]!
102df844:	e59f307c 	ldr	r3, [pc, #124]	; 102df8c8 <ATResponse_CREG_Handler+0xb8>
102df848:	e59f107c 	ldr	r1, [pc, #124]	; 102df8cc <ATResponse_CREG_Handler+0xbc>
102df84c:	e5934000 	ldr	r4, [r3]
102df850:	e1a03005 	mov	r3, r5
102df854:	e12fff34 	blx	r4
102df858:	e3a00001 	mov	r0, #1
102df85c:	e28dd008 	add	sp, sp, #8
102df860:	e8bd81f0 	pop	{r4, r5, r6, r7, r8, pc}
102df864:	e1a00007 	mov	r0, r7
102df868:	e1a01006 	mov	r1, r6
102df86c:	e59f205c 	ldr	r2, [pc, #92]	; 102df8d0 <ATResponse_CREG_Handler+0xc0>
102df870:	e59f505c 	ldr	r5, [pc, #92]	; 102df8d4 <ATResponse_CREG_Handler+0xc4>
102df874:	e12fff35 	blx	r5
102df878:	e3500000 	cmp	r0, #0
102df87c:	11a00008 	movne	r0, r8
102df880:	1afffff5 	bne	102df85c <ATResponse_CREG_Handler+0x4c>
102df884:	e1a00007 	mov	r0, r7
102df888:	e1a01006 	mov	r1, r6
102df88c:	e59f2044 	ldr	r2, [pc, #68]	; 102df8d8 <ATResponse_CREG_Handler+0xc8>
102df890:	e12fff35 	blx	r5
102df894:	e3500000 	cmp	r0, #0
102df898:	13e00000 	mvnne	r0, #0
102df89c:	1affffee 	bne	102df85c <ATResponse_CREG_Handler+0x4c>
102df8a0:	e1a00007 	mov	r0, r7
102df8a4:	e1a01006 	mov	r1, r6
102df8a8:	e59f202c 	ldr	r2, [pc, #44]	; 102df8dc <ATResponse_CREG_Handler+0xcc>
102df8ac:	e12fff34 	blx	r4
102df8b0:	e3500000 	cmp	r0, #0
102df8b4:	03a00001 	moveq	r0, #1
102df8b8:	13e00000 	mvnne	r0, #0
102df8bc:	eaffffe6 	b	102df85c <ATResponse_CREG_Handler+0x4c>
102df8c0:	102e1e04 	.word	0x102e1e04
102df8c4:	102e8710 	.word	0x102e8710
102df8c8:	f03d672c 	.word	0xf03d672c
102df8cc:	102e86f4 	.word	0x102e86f4
102df8d0:	102e87c4 	.word	0x102e87c4
102df8d4:	102e1e90 	.word	0x102e1e90
102df8d8:	102e7f30 	.word	0x102e7f30
102df8dc:	102e7fe8 	.word	0x102e7fe8

102df8e0 <RIL_NW_GetGSMState>:
102df8e0:	e59f305c 	ldr	r3, [pc, #92]	; 102df944 <RIL_NW_GetGSMState+0x64>
102df8e4:	e92d4030 	push	{r4, r5, lr}
102df8e8:	e1a05000 	mov	r5, r0
102df8ec:	e8930007 	ldm	r3, {r0, r1, r2}
102df8f0:	e24dd01c 	sub	sp, sp, #28
102df8f4:	e28d300c 	add	r3, sp, #12
102df8f8:	e8a30003 	stmia	r3!, {r0, r1}
102df8fc:	e3a04000 	mov	r4, #0
102df900:	e1c320b0 	strh	r2, [r3]
102df904:	e28d000c 	add	r0, sp, #12
102df908:	e59f3038 	ldr	r3, [pc, #56]	; 102df948 <RIL_NW_GetGSMState+0x68>
102df90c:	e58d4008 	str	r4, [sp, #8]
102df910:	e12fff33 	blx	r3
102df914:	e28d3008 	add	r3, sp, #8
102df918:	e58d4000 	str	r4, [sp]
102df91c:	e59f2028 	ldr	r2, [pc, #40]	; 102df94c <RIL_NW_GetGSMState+0x6c>
102df920:	e59fc028 	ldr	ip, [pc, #40]	; 102df950 <RIL_NW_GetGSMState+0x70>
102df924:	e1a01000 	mov	r1, r0
102df928:	e28d000c 	add	r0, sp, #12
102df92c:	e12fff3c 	blx	ip
102df930:	e3500000 	cmp	r0, #0
102df934:	059d3008 	ldreq	r3, [sp, #8]
102df938:	05853000 	streq	r3, [r5]
102df93c:	e28dd01c 	add	sp, sp, #28
102df940:	e8bd8030 	pop	{r4, r5, pc}
102df944:	102e7438 	.word	0x102e7438
102df948:	102e6624 	.word	0x102e6624
102df94c:	102df810 	.word	0x102df810
102df950:	102e6158 	.word	0x102e6158

102df954 <RIL_NW_GetGPRSState>:
102df954:	e59f3064 	ldr	r3, [pc, #100]	; 102df9c0 <RIL_NW_GetGPRSState+0x6c>
102df958:	e92d4030 	push	{r4, r5, lr}
102df95c:	e1a05000 	mov	r5, r0
102df960:	e8930007 	ldm	r3, {r0, r1, r2}
102df964:	e24dd01c 	sub	sp, sp, #28
102df968:	e28d300c 	add	r3, sp, #12
102df96c:	e8a30003 	stmia	r3!, {r0, r1}
102df970:	e1a01822 	lsr	r1, r2, #16
102df974:	e0c320b2 	strh	r2, [r3], #2
102df978:	e3a04000 	mov	r4, #0
102df97c:	e5c31000 	strb	r1, [r3]
102df980:	e28d000c 	add	r0, sp, #12
102df984:	e59f3038 	ldr	r3, [pc, #56]	; 102df9c4 <RIL_NW_GetGPRSState+0x70>
102df988:	e58d4008 	str	r4, [sp, #8]
102df98c:	e12fff33 	blx	r3
102df990:	e28d3008 	add	r3, sp, #8
102df994:	e58d4000 	str	r4, [sp]
102df998:	e59f2028 	ldr	r2, [pc, #40]	; 102df9c8 <RIL_NW_GetGPRSState+0x74>
102df99c:	e59fc028 	ldr	ip, [pc, #40]	; 102df9cc <RIL_NW_GetGPRSState+0x78>
102df9a0:	e1a01000 	mov	r1, r0
102df9a4:	e28d000c 	add	r0, sp, #12
102df9a8:	e12fff3c 	blx	ip
102df9ac:	e3500000 	cmp	r0, #0
102df9b0:	059d3008 	ldreq	r3, [sp, #8]
102df9b4:	05853000 	streq	r3, [r5]
102df9b8:	e28dd01c 	add	sp, sp, #28
102df9bc:	e8bd8030 	pop	{r4, r5, pc}
102df9c0:	102e7444 	.word	0x102e7444
102df9c4:	102e6624 	.word	0x102e6624
102df9c8:	102df740 	.word	0x102df740
102df9cc:	102e6158 	.word	0x102e6158

102df9d0 <RIL_NW_GetSignalQuality>:
102df9d0:	e59f3074 	ldr	r3, [pc, #116]	; 102dfa4c <RIL_NW_GetSignalQuality+0x7c>
102df9d4:	e92d4070 	push	{r4, r5, r6, lr}
102df9d8:	e1a06000 	mov	r6, r0
102df9dc:	e24dd018 	sub	sp, sp, #24
102df9e0:	e1a05001 	mov	r5, r1
102df9e4:	e8930003 	ldm	r3, {r0, r1}
102df9e8:	e28d4008 	add	r4, sp, #8
102df9ec:	e8840003 	stm	r4, {r0, r1}
102df9f0:	e3a02008 	mov	r2, #8
102df9f4:	e3a01000 	mov	r1, #0
102df9f8:	e28d0010 	add	r0, sp, #16
102df9fc:	e59f304c 	ldr	r3, [pc, #76]	; 102dfa50 <RIL_NW_GetSignalQuality+0x80>
102dfa00:	e12fff33 	blx	r3
102dfa04:	e1a00004 	mov	r0, r4
102dfa08:	e59f3044 	ldr	r3, [pc, #68]	; 102dfa54 <RIL_NW_GetSignalQuality+0x84>
102dfa0c:	e12fff33 	blx	r3
102dfa10:	e3a03000 	mov	r3, #0
102dfa14:	e58d3000 	str	r3, [sp]
102dfa18:	e59f2038 	ldr	r2, [pc, #56]	; 102dfa58 <RIL_NW_GetSignalQuality+0x88>
102dfa1c:	e28d3010 	add	r3, sp, #16
102dfa20:	e59fc034 	ldr	ip, [pc, #52]	; 102dfa5c <RIL_NW_GetSignalQuality+0x8c>
102dfa24:	e1a01000 	mov	r1, r0
102dfa28:	e1a00004 	mov	r0, r4
102dfa2c:	e12fff3c 	blx	ip
102dfa30:	e3500000 	cmp	r0, #0
102dfa34:	059d3010 	ldreq	r3, [sp, #16]
102dfa38:	05863000 	streq	r3, [r6]
102dfa3c:	059d3014 	ldreq	r3, [sp, #20]
102dfa40:	05853000 	streq	r3, [r5]
102dfa44:	e28dd018 	add	sp, sp, #24
102dfa48:	e8bd8070 	pop	{r4, r5, r6, pc}
102dfa4c:	102e7450 	.word	0x102e7450
102dfa50:	102e6774 	.word	0x102e6774
102dfa54:	102e6624 	.word	0x102e6624
102dfa58:	102df678 	.word	0x102df678
102dfa5c:	102e6158 	.word	0x102e6158

102dfa60 <RIL_NW_SetGPRSContext>:
102dfa60:	e92d4010 	push	{r4, lr}
102dfa64:	e24dd020 	sub	sp, sp, #32
102dfa68:	e1a04000 	mov	r4, r0
102dfa6c:	e3a01000 	mov	r1, #0
102dfa70:	e3a02014 	mov	r2, #20
102dfa74:	e28d000c 	add	r0, sp, #12
102dfa78:	e59f3048 	ldr	r3, [pc, #72]	; 102dfac8 <RIL_NW_SetGPRSContext+0x68>
102dfa7c:	e12fff33 	blx	r3
102dfa80:	e59f3044 	ldr	r3, [pc, #68]	; 102dfacc <RIL_NW_SetGPRSContext+0x6c>
102dfa84:	e1a02004 	mov	r2, r4
102dfa88:	e59f1040 	ldr	r1, [pc, #64]	; 102dfad0 <RIL_NW_SetGPRSContext+0x70>
102dfa8c:	e5933000 	ldr	r3, [r3]
102dfa90:	e28d000c 	add	r0, sp, #12
102dfa94:	e12fff33 	blx	r3
102dfa98:	e28d000c 	add	r0, sp, #12
102dfa9c:	e59f3030 	ldr	r3, [pc, #48]	; 102dfad4 <RIL_NW_SetGPRSContext+0x74>
102dfaa0:	e12fff33 	blx	r3
102dfaa4:	e3a03000 	mov	r3, #0
102dfaa8:	e1a02003 	mov	r2, r3
102dfaac:	e58d3000 	str	r3, [sp]
102dfab0:	e59fc020 	ldr	ip, [pc, #32]	; 102dfad8 <RIL_NW_SetGPRSContext+0x78>
102dfab4:	e1a01000 	mov	r1, r0
102dfab8:	e28d000c 	add	r0, sp, #12
102dfabc:	e12fff3c 	blx	ip
102dfac0:	e28dd020 	add	sp, sp, #32
102dfac4:	e8bd8010 	pop	{r4, pc}
102dfac8:	102e6774 	.word	0x102e6774
102dfacc:	f03d6720 	.word	0xf03d6720
102dfad0:	102e8718 	.word	0x102e8718
102dfad4:	102e6624 	.word	0x102e6624
102dfad8:	102e6158 	.word	0x102e6158

102dfadc <RIL_NW_SetAPN>:
102dfadc:	e92d40f0 	push	{r4, r5, r6, r7, lr}
102dfae0:	e24dd0d4 	sub	sp, sp, #212	; 0xd4
102dfae4:	e1a04001 	mov	r4, r1
102dfae8:	e1a05002 	mov	r5, r2
102dfaec:	e1a06000 	mov	r6, r0
102dfaf0:	e3a01000 	mov	r1, #0
102dfaf4:	e28d0008 	add	r0, sp, #8
102dfaf8:	e3a020c8 	mov	r2, #200	; 0xc8
102dfafc:	e59fc0d0 	ldr	ip, [pc, #208]	; 102dfbd4 <RIL_NW_SetAPN+0xf8>
102dfb00:	e1a07003 	mov	r7, r3
102dfb04:	e12fff3c 	blx	ip
102dfb08:	e2943000 	adds	r3, r4, #0
102dfb0c:	13a03001 	movne	r3, #1
102dfb10:	e3550000 	cmp	r5, #0
102dfb14:	13540000 	cmpne	r4, #0
102dfb18:	0a00000b 	beq	102dfb4c <RIL_NW_SetAPN+0x70>
102dfb1c:	e3570000 	cmp	r7, #0
102dfb20:	e58d5000 	str	r5, [sp]
102dfb24:	0a00001d 	beq	102dfba0 <RIL_NW_SetAPN+0xc4>
102dfb28:	e59f30a8 	ldr	r3, [pc, #168]	; 102dfbd8 <RIL_NW_SetAPN+0xfc>
102dfb2c:	e58d7004 	str	r7, [sp, #4]
102dfb30:	e28d0008 	add	r0, sp, #8
102dfb34:	e593c000 	ldr	ip, [r3]
102dfb38:	e59f109c 	ldr	r1, [pc, #156]	; 102dfbdc <RIL_NW_SetAPN+0x100>
102dfb3c:	e1a02006 	mov	r2, r6
102dfb40:	e1a03004 	mov	r3, r4
102dfb44:	e12fff3c 	blx	ip
102dfb48:	ea000008 	b	102dfb70 <RIL_NW_SetAPN+0x94>
102dfb4c:	e3530000 	cmp	r3, #0
102dfb50:	e28d0008 	add	r0, sp, #8
102dfb54:	e59f307c 	ldr	r3, [pc, #124]	; 102dfbd8 <RIL_NW_SetAPN+0xfc>
102dfb58:	0a000018 	beq	102dfbc0 <RIL_NW_SetAPN+0xe4>
102dfb5c:	e593c000 	ldr	ip, [r3]
102dfb60:	e59f1074 	ldr	r1, [pc, #116]	; 102dfbdc <RIL_NW_SetAPN+0x100>
102dfb64:	e1a02006 	mov	r2, r6
102dfb68:	e1a03004 	mov	r3, r4
102dfb6c:	e12fff3c 	blx	ip
102dfb70:	e28d0008 	add	r0, sp, #8
102dfb74:	e59f3064 	ldr	r3, [pc, #100]	; 102dfbe0 <RIL_NW_SetAPN+0x104>
102dfb78:	e12fff33 	blx	r3
102dfb7c:	e3a03000 	mov	r3, #0
102dfb80:	e1a02003 	mov	r2, r3
102dfb84:	e58d3000 	str	r3, [sp]
102dfb88:	e59fc054 	ldr	ip, [pc, #84]	; 102dfbe4 <RIL_NW_SetAPN+0x108>
102dfb8c:	e1a01000 	mov	r1, r0
102dfb90:	e28d0008 	add	r0, sp, #8
102dfb94:	e12fff3c 	blx	ip
102dfb98:	e28dd0d4 	add	sp, sp, #212	; 0xd4
102dfb9c:	e8bd80f0 	pop	{r4, r5, r6, r7, pc}
102dfba0:	e59f3030 	ldr	r3, [pc, #48]	; 102dfbd8 <RIL_NW_SetAPN+0xfc>
102dfba4:	e28d0008 	add	r0, sp, #8
102dfba8:	e593c000 	ldr	ip, [r3]
102dfbac:	e59f1028 	ldr	r1, [pc, #40]	; 102dfbdc <RIL_NW_SetAPN+0x100>
102dfbb0:	e1a02006 	mov	r2, r6
102dfbb4:	e1a03004 	mov	r3, r4
102dfbb8:	e12fff3c 	blx	ip
102dfbbc:	eaffffeb 	b	102dfb70 <RIL_NW_SetAPN+0x94>
102dfbc0:	e5933000 	ldr	r3, [r3]
102dfbc4:	e59f101c 	ldr	r1, [pc, #28]	; 102dfbe8 <RIL_NW_SetAPN+0x10c>
102dfbc8:	e1a02006 	mov	r2, r6
102dfbcc:	e12fff33 	blx	r3
102dfbd0:	eaffffe6 	b	102dfb70 <RIL_NW_SetAPN+0x94>
102dfbd4:	102e6774 	.word	0x102e6774
102dfbd8:	f03d6720 	.word	0xf03d6720
102dfbdc:	102e8728 	.word	0x102e8728
102dfbe0:	102e6624 	.word	0x102e6624
102dfbe4:	102e6158 	.word	0x102e6158
102dfbe8:	102e873c 	.word	0x102e873c

102dfbec <RIL_NW_GetIpStatusByName>:
102dfbec:	e92d4070 	push	{r4, r5, r6, lr}
102dfbf0:	e1a02001 	mov	r2, r1
102dfbf4:	e1a05001 	mov	r5, r1
102dfbf8:	e59f4150 	ldr	r4, [pc, #336]	; 102dfd50 <RIL_NW_GetIpStatusByName+0x164>
102dfbfc:	e59f1150 	ldr	r1, [pc, #336]	; 102dfd54 <RIL_NW_GetIpStatusByName+0x168>
102dfc00:	e1a06000 	mov	r6, r0
102dfc04:	e12fff34 	blx	r4
102dfc08:	e3500000 	cmp	r0, #0
102dfc0c:	1a000001 	bne	102dfc18 <RIL_NW_GetIpStatusByName+0x2c>
102dfc10:	e3a00000 	mov	r0, #0
102dfc14:	e8bd8070 	pop	{r4, r5, r6, pc}
102dfc18:	e1a00006 	mov	r0, r6
102dfc1c:	e59f1134 	ldr	r1, [pc, #308]	; 102dfd58 <RIL_NW_GetIpStatusByName+0x16c>
102dfc20:	e1a02005 	mov	r2, r5
102dfc24:	e12fff34 	blx	r4
102dfc28:	e3500000 	cmp	r0, #0
102dfc2c:	1a000001 	bne	102dfc38 <RIL_NW_GetIpStatusByName+0x4c>
102dfc30:	e3a00001 	mov	r0, #1
102dfc34:	e8bd8070 	pop	{r4, r5, r6, pc}
102dfc38:	e1a00006 	mov	r0, r6
102dfc3c:	e59f1118 	ldr	r1, [pc, #280]	; 102dfd5c <RIL_NW_GetIpStatusByName+0x170>
102dfc40:	e1a02005 	mov	r2, r5
102dfc44:	e12fff34 	blx	r4
102dfc48:	e3500000 	cmp	r0, #0
102dfc4c:	1a000001 	bne	102dfc58 <RIL_NW_GetIpStatusByName+0x6c>
102dfc50:	e3a00002 	mov	r0, #2
102dfc54:	e8bd8070 	pop	{r4, r5, r6, pc}
102dfc58:	e1a00006 	mov	r0, r6
102dfc5c:	e59f10fc 	ldr	r1, [pc, #252]	; 102dfd60 <RIL_NW_GetIpStatusByName+0x174>
102dfc60:	e1a02005 	mov	r2, r5
102dfc64:	e12fff34 	blx	r4
102dfc68:	e3500000 	cmp	r0, #0
102dfc6c:	1a000001 	bne	102dfc78 <RIL_NW_GetIpStatusByName+0x8c>
102dfc70:	e3a00003 	mov	r0, #3
102dfc74:	e8bd8070 	pop	{r4, r5, r6, pc}
102dfc78:	e1a00006 	mov	r0, r6
102dfc7c:	e59f10e0 	ldr	r1, [pc, #224]	; 102dfd64 <RIL_NW_GetIpStatusByName+0x178>
102dfc80:	e1a02005 	mov	r2, r5
102dfc84:	e12fff34 	blx	r4
102dfc88:	e3500000 	cmp	r0, #0
102dfc8c:	1a000001 	bne	102dfc98 <RIL_NW_GetIpStatusByName+0xac>
102dfc90:	e3a00004 	mov	r0, #4
102dfc94:	e8bd8070 	pop	{r4, r5, r6, pc}
102dfc98:	e1a00006 	mov	r0, r6
102dfc9c:	e59f10c4 	ldr	r1, [pc, #196]	; 102dfd68 <RIL_NW_GetIpStatusByName+0x17c>
102dfca0:	e1a02005 	mov	r2, r5
102dfca4:	e12fff34 	blx	r4
102dfca8:	e3500000 	cmp	r0, #0
102dfcac:	1a000001 	bne	102dfcb8 <RIL_NW_GetIpStatusByName+0xcc>
102dfcb0:	e3a00005 	mov	r0, #5
102dfcb4:	e8bd8070 	pop	{r4, r5, r6, pc}
102dfcb8:	e1a00006 	mov	r0, r6
102dfcbc:	e59f10a8 	ldr	r1, [pc, #168]	; 102dfd6c <RIL_NW_GetIpStatusByName+0x180>
102dfcc0:	e1a02005 	mov	r2, r5
102dfcc4:	e12fff34 	blx	r4
102dfcc8:	e3500000 	cmp	r0, #0
102dfccc:	1a000001 	bne	102dfcd8 <RIL_NW_GetIpStatusByName+0xec>
102dfcd0:	e3a00006 	mov	r0, #6
102dfcd4:	e8bd8070 	pop	{r4, r5, r6, pc}
102dfcd8:	e1a00006 	mov	r0, r6
102dfcdc:	e59f108c 	ldr	r1, [pc, #140]	; 102dfd70 <RIL_NW_GetIpStatusByName+0x184>
102dfce0:	e1a02005 	mov	r2, r5
102dfce4:	e12fff34 	blx	r4
102dfce8:	e3500000 	cmp	r0, #0
102dfcec:	0afffff7 	beq	102dfcd0 <RIL_NW_GetIpStatusByName+0xe4>
102dfcf0:	e1a00006 	mov	r0, r6
102dfcf4:	e59f1078 	ldr	r1, [pc, #120]	; 102dfd74 <RIL_NW_GetIpStatusByName+0x188>
102dfcf8:	e1a02005 	mov	r2, r5
102dfcfc:	e12fff34 	blx	r4
102dfd00:	e3500000 	cmp	r0, #0
102dfd04:	1a000001 	bne	102dfd10 <RIL_NW_GetIpStatusByName+0x124>
102dfd08:	e3a00007 	mov	r0, #7
102dfd0c:	e8bd8070 	pop	{r4, r5, r6, pc}
102dfd10:	e1a00006 	mov	r0, r6
102dfd14:	e59f105c 	ldr	r1, [pc, #92]	; 102dfd78 <RIL_NW_GetIpStatusByName+0x18c>
102dfd18:	e1a02005 	mov	r2, r5
102dfd1c:	e12fff34 	blx	r4
102dfd20:	e3500000 	cmp	r0, #0
102dfd24:	1a000001 	bne	102dfd30 <RIL_NW_GetIpStatusByName+0x144>
102dfd28:	e3a00008 	mov	r0, #8
102dfd2c:	e8bd8070 	pop	{r4, r5, r6, pc}
102dfd30:	e1a00006 	mov	r0, r6
102dfd34:	e59f1040 	ldr	r1, [pc, #64]	; 102dfd7c <RIL_NW_GetIpStatusByName+0x190>
102dfd38:	e1a02005 	mov	r2, r5
102dfd3c:	e12fff34 	blx	r4
102dfd40:	e3500000 	cmp	r0, #0
102dfd44:	1affffb1 	bne	102dfc10 <RIL_NW_GetIpStatusByName+0x24>
102dfd48:	e3a00009 	mov	r0, #9
102dfd4c:	e8bd8070 	pop	{r4, r5, r6, pc}
102dfd50:	102e6704 	.word	0x102e6704
102dfd54:	102e874c 	.word	0x102e874c
102dfd58:	102e8758 	.word	0x102e8758
102dfd5c:	102e8764 	.word	0x102e8764
102dfd60:	102e8770 	.word	0x102e8770
102dfd64:	102e8778 	.word	0x102e8778
102dfd68:	102e8784 	.word	0x102e8784
102dfd6c:	102e8790 	.word	0x102e8790
102dfd70:	102e87a0 	.word	0x102e87a0
102dfd74:	102e87b0 	.word	0x102e87b0
102dfd78:	102e87bc 	.word	0x102e87bc
102dfd7c:	102e87c8 	.word	0x102e87c8

102dfd80 <ATResponse_IPStatus_Handler>:
102dfd80:	e92d41f0 	push	{r4, r5, r6, r7, r8, lr}
102dfd84:	e59f30ec 	ldr	r3, [pc, #236]	; 102dfe78 <ATResponse_IPStatus_Handler+0xf8>
102dfd88:	e24dd020 	sub	sp, sp, #32
102dfd8c:	e1a07002 	mov	r7, r2
102dfd90:	e59f20e4 	ldr	r2, [pc, #228]	; 102dfe7c <ATResponse_IPStatus_Handler+0xfc>
102dfd94:	e1a06000 	mov	r6, r0
102dfd98:	e1a04001 	mov	r4, r1
102dfd9c:	e12fff33 	blx	r3
102dfda0:	e2505000 	subs	r5, r0, #0
102dfda4:	0a000023 	beq	102dfe38 <ATResponse_IPStatus_Handler+0xb8>
102dfda8:	e3a03000 	mov	r3, #0
102dfdac:	e59f00c8 	ldr	r0, [pc, #200]	; 102dfe7c <ATResponse_IPStatus_Handler+0xfc>
102dfdb0:	e59f60c8 	ldr	r6, [pc, #200]	; 102dfe80 <ATResponse_IPStatus_Handler+0x100>
102dfdb4:	e58d3000 	str	r3, [sp]
102dfdb8:	e58d3004 	str	r3, [sp, #4]
102dfdbc:	e58d3008 	str	r3, [sp, #8]
102dfdc0:	e58d300c 	str	r3, [sp, #12]
102dfdc4:	e58d3010 	str	r3, [sp, #16]
102dfdc8:	e58d3014 	str	r3, [sp, #20]
102dfdcc:	e58d3018 	str	r3, [sp, #24]
102dfdd0:	e1cd31bc 	strh	r3, [sp, #28]
102dfdd4:	e12fff36 	blx	r6
102dfdd8:	e59f10a4 	ldr	r1, [pc, #164]	; 102dfe84 <ATResponse_IPStatus_Handler+0x104>
102dfddc:	e59f30a4 	ldr	r3, [pc, #164]	; 102dfe88 <ATResponse_IPStatus_Handler+0x108>
102dfde0:	e1a0400d 	mov	r4, sp
102dfde4:	e0855000 	add	r5, r5, r0
102dfde8:	e1a00005 	mov	r0, r5
102dfdec:	e12fff33 	blx	r3
102dfdf0:	e3550000 	cmp	r5, #0
102dfdf4:	e1a02000 	mov	r2, r0
102dfdf8:	0a000004 	beq	102dfe10 <ATResponse_IPStatus_Handler+0x90>
102dfdfc:	e1a01005 	mov	r1, r5
102dfe00:	e1a0000d 	mov	r0, sp
102dfe04:	e0652002 	rsb	r2, r5, r2
102dfe08:	e59f307c 	ldr	r3, [pc, #124]	; 102dfe8c <ATResponse_IPStatus_Handler+0x10c>
102dfe0c:	e12fff33 	blx	r3
102dfe10:	e1a0000d 	mov	r0, sp
102dfe14:	e12fff36 	blx	r6
102dfe18:	e1a01000 	mov	r1, r0
102dfe1c:	e1a0000d 	mov	r0, sp
102dfe20:	ebffff71 	bl	102dfbec <RIL_NW_GetIpStatusByName>
102dfe24:	e3a03000 	mov	r3, #0
102dfe28:	e5870000 	str	r0, [r7]
102dfe2c:	e1a00003 	mov	r0, r3
102dfe30:	e28dd020 	add	sp, sp, #32
102dfe34:	e8bd81f0 	pop	{r4, r5, r6, r7, r8, pc}
102dfe38:	e1a00006 	mov	r0, r6
102dfe3c:	e1a01004 	mov	r1, r4
102dfe40:	e59f2048 	ldr	r2, [pc, #72]	; 102dfe90 <ATResponse_IPStatus_Handler+0x110>
102dfe44:	e59f5048 	ldr	r5, [pc, #72]	; 102dfe94 <ATResponse_IPStatus_Handler+0x114>
102dfe48:	e12fff35 	blx	r5
102dfe4c:	e2508000 	subs	r8, r0, #0
102dfe50:	13a03001 	movne	r3, #1
102dfe54:	1afffff4 	bne	102dfe2c <ATResponse_IPStatus_Handler+0xac>
102dfe58:	e1a00006 	mov	r0, r6
102dfe5c:	e1a01004 	mov	r1, r4
102dfe60:	e59f2030 	ldr	r2, [pc, #48]	; 102dfe98 <ATResponse_IPStatus_Handler+0x118>
102dfe64:	e12fff35 	blx	r5
102dfe68:	e3e03000 	mvn	r3, #0
102dfe6c:	e3500000 	cmp	r0, #0
102dfe70:	15878000 	strne	r8, [r7]
102dfe74:	eaffffec 	b	102dfe2c <ATResponse_IPStatus_Handler+0xac>
102dfe78:	102e1e04 	.word	0x102e1e04
102dfe7c:	102e87d4 	.word	0x102e87d4
102dfe80:	102e6624 	.word	0x102e6624
102dfe84:	102e89b4 	.word	0x102e89b4
102dfe88:	102e6884 	.word	0x102e6884
102dfe8c:	102e67fc 	.word	0x102e67fc
102dfe90:	102e87c4 	.word	0x102e87c4
102dfe94:	102e1e90 	.word	0x102e1e90
102dfe98:	102e7f30 	.word	0x102e7f30

102dfe9c <RIL_NW_GetIPStatus>:
102dfe9c:	e52de004 	push	{lr}		; (str lr, [sp, #-4]!)
102dfea0:	e24dd014 	sub	sp, sp, #20
102dfea4:	e3a02000 	mov	r2, #0
102dfea8:	e28d3010 	add	r3, sp, #16
102dfeac:	e5232004 	str	r2, [r3, #-4]!
102dfeb0:	e3a0100a 	mov	r1, #10
102dfeb4:	e58d2000 	str	r2, [sp]
102dfeb8:	e59fc018 	ldr	ip, [pc, #24]	; 102dfed8 <RIL_NW_GetIPStatus+0x3c>
102dfebc:	e59f2018 	ldr	r2, [pc, #24]	; 102dfedc <RIL_NW_GetIPStatus+0x40>
102dfec0:	e59f0018 	ldr	r0, [pc, #24]	; 102dfee0 <RIL_NW_GetIPStatus+0x44>
102dfec4:	e12fff3c 	blx	ip
102dfec8:	e3500000 	cmp	r0, #0
102dfecc:	059d000c 	ldreq	r0, [sp, #12]
102dfed0:	e28dd014 	add	sp, sp, #20
102dfed4:	e8bd8000 	ldmfd	sp!, {pc}
102dfed8:	102e6158 	.word	0x102e6158
102dfedc:	102dfd80 	.word	0x102dfd80
102dfee0:	102e7458 	.word	0x102e7458

102dfee4 <RIL_NW_OpenPDPContext>:
102dfee4:	e92d4070 	push	{r4, r5, r6, lr}
102dfee8:	e59f608c 	ldr	r6, [pc, #140]	; 102dff7c <RIL_NW_OpenPDPContext+0x98>
102dfeec:	e24dd020 	sub	sp, sp, #32
102dfef0:	e59f1088 	ldr	r1, [pc, #136]	; 102dff80 <RIL_NW_OpenPDPContext+0x9c>
102dfef4:	e5963000 	ldr	r3, [r6]
102dfef8:	e28d000c 	add	r0, sp, #12
102dfefc:	e12fff33 	blx	r3
102dff00:	e3a03000 	mov	r3, #0
102dff04:	e1a02003 	mov	r2, r3
102dff08:	e58d3000 	str	r3, [sp]
102dff0c:	e59f5070 	ldr	r5, [pc, #112]	; 102dff84 <RIL_NW_OpenPDPContext+0xa0>
102dff10:	e1a01000 	mov	r1, r0
102dff14:	e28d000c 	add	r0, sp, #12
102dff18:	e12fff35 	blx	r5
102dff1c:	e2504000 	subs	r4, r0, #0
102dff20:	1a000012 	bne	102dff70 <RIL_NW_OpenPDPContext+0x8c>
102dff24:	e3a00064 	mov	r0, #100	; 0x64
102dff28:	e59f3058 	ldr	r3, [pc, #88]	; 102dff88 <RIL_NW_OpenPDPContext+0xa4>
102dff2c:	e12fff33 	blx	r3
102dff30:	e1a01004 	mov	r1, r4
102dff34:	e3a02014 	mov	r2, #20
102dff38:	e59f304c 	ldr	r3, [pc, #76]	; 102dff8c <RIL_NW_OpenPDPContext+0xa8>
102dff3c:	e28d000c 	add	r0, sp, #12
102dff40:	e12fff33 	blx	r3
102dff44:	e59f1044 	ldr	r1, [pc, #68]	; 102dff90 <RIL_NW_OpenPDPContext+0xac>
102dff48:	e5963000 	ldr	r3, [r6]
102dff4c:	e28d000c 	add	r0, sp, #12
102dff50:	e12fff33 	blx	r3
102dff54:	e1a02004 	mov	r2, r4
102dff58:	e58d4000 	str	r4, [sp]
102dff5c:	e1a03004 	mov	r3, r4
102dff60:	e1a01000 	mov	r1, r0
102dff64:	e28d000c 	add	r0, sp, #12
102dff68:	e12fff35 	blx	r5
102dff6c:	e1a04000 	mov	r4, r0
102dff70:	e1a00004 	mov	r0, r4
102dff74:	e28dd020 	add	sp, sp, #32
102dff78:	e8bd8070 	pop	{r4, r5, r6, pc}
102dff7c:	f03d6720 	.word	0xf03d6720
102dff80:	102e7464 	.word	0x102e7464
102dff84:	102e6158 	.word	0x102e6158
102dff88:	102e6990 	.word	0x102e6990
102dff8c:	102e6774 	.word	0x102e6774
102dff90:	102e7474 	.word	0x102e7474

102dff94 <RIL_NW_ClosePDPContext>:
102dff94:	e59f204c 	ldr	r2, [pc, #76]	; 102dffe8 <RIL_NW_ClosePDPContext+0x54>
102dff98:	e92d4010 	push	{r4, lr}
102dff9c:	e8920007 	ldm	r2, {r0, r1, r2}
102dffa0:	e24dd020 	sub	sp, sp, #32
102dffa4:	e28d300c 	add	r3, sp, #12
102dffa8:	e3a04000 	mov	r4, #0
102dffac:	e8830007 	stm	r3, {r0, r1, r2}
102dffb0:	e1a00003 	mov	r0, r3
102dffb4:	e59f3030 	ldr	r3, [pc, #48]	; 102dffec <RIL_NW_ClosePDPContext+0x58>
102dffb8:	e58d4018 	str	r4, [sp, #24]
102dffbc:	e58d401c 	str	r4, [sp, #28]
102dffc0:	e12fff33 	blx	r3
102dffc4:	e58d4000 	str	r4, [sp]
102dffc8:	e59f2020 	ldr	r2, [pc, #32]	; 102dfff0 <RIL_NW_ClosePDPContext+0x5c>
102dffcc:	e1a03004 	mov	r3, r4
102dffd0:	e59fc01c 	ldr	ip, [pc, #28]	; 102dfff4 <RIL_NW_ClosePDPContext+0x60>
102dffd4:	e1a01000 	mov	r1, r0
102dffd8:	e59f0018 	ldr	r0, [pc, #24]	; 102dfff8 <RIL_NW_ClosePDPContext+0x64>
102dffdc:	e12fff3c 	blx	ip
102dffe0:	e28dd020 	add	sp, sp, #32
102dffe4:	e8bd8010 	pop	{r4, pc}
102dffe8:	102e7480 	.word	0x102e7480
102dffec:	102e6624 	.word	0x102e6624
102dfff0:	102df624 	.word	0x102df624
102dfff4:	102e6158 	.word	0x102e6158
102dfff8:	102e87e0 	.word	0x102e87e0

102dfffc <RIL_NW_GetOperator>:
102dfffc:	e59f205c 	ldr	r2, [pc, #92]	; 102e0060 <RIL_NW_GetOperator+0x64>
102e0000:	e92d4010 	push	{r4, lr}
102e0004:	e1a04000 	mov	r4, r0
102e0008:	e8920007 	ldm	r2, {r0, r1, r2}
102e000c:	e24dd018 	sub	sp, sp, #24
102e0010:	e28dc00c 	add	ip, sp, #12
102e0014:	e3540000 	cmp	r4, #0
102e0018:	e8ac0003 	stmia	ip!, {r0, r1}
102e001c:	e1cc20b0 	strh	r2, [ip]
102e0020:	0a00000c 	beq	102e0058 <RIL_NW_GetOperator+0x5c>
102e0024:	e59f3038 	ldr	r3, [pc, #56]	; 102e0064 <RIL_NW_GetOperator+0x68>
102e0028:	e28d000c 	add	r0, sp, #12
102e002c:	e12fff33 	blx	r3
102e0030:	e3a03000 	mov	r3, #0
102e0034:	e58d3000 	str	r3, [sp]
102e0038:	e59f2028 	ldr	r2, [pc, #40]	; 102e0068 <RIL_NW_GetOperator+0x6c>
102e003c:	e1a03004 	mov	r3, r4
102e0040:	e59fc024 	ldr	ip, [pc, #36]	; 102e006c <RIL_NW_GetOperator+0x70>
102e0044:	e1a01000 	mov	r1, r0
102e0048:	e28d000c 	add	r0, sp, #12
102e004c:	e12fff3c 	blx	ip
102e0050:	e28dd018 	add	sp, sp, #24
102e0054:	e8bd8010 	pop	{r4, pc}
102e0058:	e3e00003 	mvn	r0, #3
102e005c:	eafffffb 	b	102e0050 <RIL_NW_GetOperator+0x54>
102e0060:	102e7494 	.word	0x102e7494
102e0064:	102e6624 	.word	0x102e6624
102e0068:	102df500 	.word	0x102df500
102e006c:	102e6158 	.word	0x102e6158

102e0070 <OnURCHandler_NTPCMD>:
102e0070:	e92d4030 	push	{r4, r5, lr}
102e0074:	e59f3054 	ldr	r3, [pc, #84]	; 102e00d0 <OnURCHandler_NTPCMD+0x60>
102e0078:	e59f4054 	ldr	r4, [pc, #84]	; 102e00d4 <OnURCHandler_NTPCMD+0x64>
102e007c:	e1a05000 	mov	r5, r0
102e0080:	e594c000 	ldr	ip, [r4]
102e0084:	e8930007 	ldm	r3, {r0, r1, r2}
102e0088:	e24dd014 	sub	sp, sp, #20
102e008c:	e28d3004 	add	r3, sp, #4
102e0090:	e35c0000 	cmp	ip, #0
102e0094:	e8a30003 	stmia	r3!, {r0, r1}
102e0098:	e1c320b0 	strh	r2, [r3]
102e009c:	0a000005 	beq	102e00b8 <OnURCHandler_NTPCMD+0x48>
102e00a0:	e1a00005 	mov	r0, r5
102e00a4:	e28d1004 	add	r1, sp, #4
102e00a8:	e59f3028 	ldr	r3, [pc, #40]	; 102e00d8 <OnURCHandler_NTPCMD+0x68>
102e00ac:	e12fff33 	blx	r3
102e00b0:	e3500000 	cmp	r0, #0
102e00b4:	1a000001 	bne	102e00c0 <OnURCHandler_NTPCMD+0x50>
102e00b8:	e28dd014 	add	sp, sp, #20
102e00bc:	e8bd8030 	pop	{r4, r5, pc}
102e00c0:	e5943000 	ldr	r3, [r4]
102e00c4:	e1a00005 	mov	r0, r5
102e00c8:	e12fff33 	blx	r3
102e00cc:	eafffff9 	b	102e00b8 <OnURCHandler_NTPCMD+0x48>
102e00d0:	102e74a0 	.word	0x102e74a0
102e00d4:	f03d3a74 	.word	0xf03d3a74
102e00d8:	102e1cc4 	.word	0x102e1cc4

102e00dc <RIL_NTP_START>:
102e00dc:	e92d4030 	push	{r4, r5, lr}
102e00e0:	e2505000 	subs	r5, r0, #0
102e00e4:	e24dd0d4 	sub	sp, sp, #212	; 0xd4
102e00e8:	e1a04001 	mov	r4, r1
102e00ec:	e1a03002 	mov	r3, r2
102e00f0:	0a000019 	beq	102e015c <RIL_NTP_START+0x80>
102e00f4:	e59fc068 	ldr	ip, [pc, #104]	; 102e0164 <RIL_NTP_START+0x88>
102e00f8:	e3a01000 	mov	r1, #0
102e00fc:	e58c3000 	str	r3, [ip]
102e0100:	e3a020c8 	mov	r2, #200	; 0xc8
102e0104:	e59f305c 	ldr	r3, [pc, #92]	; 102e0168 <RIL_NTP_START+0x8c>
102e0108:	e28d0008 	add	r0, sp, #8
102e010c:	e12fff33 	blx	r3
102e0110:	e59f0054 	ldr	r0, [pc, #84]	; 102e016c <RIL_NTP_START+0x90>
102e0114:	e59f1054 	ldr	r1, [pc, #84]	; 102e0170 <RIL_NTP_START+0x94>
102e0118:	e590c000 	ldr	ip, [r0]
102e011c:	e1a02005 	mov	r2, r5
102e0120:	e1a03004 	mov	r3, r4
102e0124:	e28d0008 	add	r0, sp, #8
102e0128:	e12fff3c 	blx	ip
102e012c:	e59f3040 	ldr	r3, [pc, #64]	; 102e0174 <RIL_NTP_START+0x98>
102e0130:	e28d0008 	add	r0, sp, #8
102e0134:	e12fff33 	blx	r3
102e0138:	e3a03000 	mov	r3, #0
102e013c:	e1a02003 	mov	r2, r3
102e0140:	e58d3000 	str	r3, [sp]
102e0144:	e59fc02c 	ldr	ip, [pc, #44]	; 102e0178 <RIL_NTP_START+0x9c>
102e0148:	e1a01000 	mov	r1, r0
102e014c:	e28d0008 	add	r0, sp, #8
102e0150:	e12fff3c 	blx	ip
102e0154:	e28dd0d4 	add	sp, sp, #212	; 0xd4
102e0158:	e8bd8030 	pop	{r4, r5, pc}
102e015c:	e3e00003 	mvn	r0, #3
102e0160:	eafffffb 	b	102e0154 <RIL_NTP_START+0x78>
102e0164:	f03d3a74 	.word	0xf03d3a74
102e0168:	102e6774 	.word	0x102e6774
102e016c:	f03d6720 	.word	0xf03d6720
102e0170:	102e87ec 	.word	0x102e87ec
102e0174:	102e6624 	.word	0x102e6624
102e0178:	102e6158 	.word	0x102e6158

102e017c <ATRsp_CCID_Handler>:
102e017c:	e92d41f0 	push	{r4, r5, r6, r7, r8, lr}
102e0180:	e1a05002 	mov	r5, r2
102e0184:	e59f4094 	ldr	r4, [pc, #148]	; 102e0220 <ATRsp_CCID_Handler+0xa4>
102e0188:	e59f2094 	ldr	r2, [pc, #148]	; 102e0224 <ATRsp_CCID_Handler+0xa8>
102e018c:	e1a07000 	mov	r7, r0
102e0190:	e1a06001 	mov	r6, r1
102e0194:	e12fff34 	blx	r4
102e0198:	e2508000 	subs	r8, r0, #0
102e019c:	0a000006 	beq	102e01bc <ATRsp_CCID_Handler+0x40>
102e01a0:	e59f3080 	ldr	r3, [pc, #128]	; 102e0228 <ATRsp_CCID_Handler+0xac>
102e01a4:	e59f1080 	ldr	r1, [pc, #128]	; 102e022c <ATRsp_CCID_Handler+0xb0>
102e01a8:	e5933000 	ldr	r3, [r3]
102e01ac:	e1a02005 	mov	r2, r5
102e01b0:	e12fff33 	blx	r3
102e01b4:	e3a00001 	mov	r0, #1
102e01b8:	e8bd81f0 	pop	{r4, r5, r6, r7, r8, pc}
102e01bc:	e1a00007 	mov	r0, r7
102e01c0:	e1a01006 	mov	r1, r6
102e01c4:	e59f2064 	ldr	r2, [pc, #100]	; 102e0230 <ATRsp_CCID_Handler+0xb4>
102e01c8:	e59f5064 	ldr	r5, [pc, #100]	; 102e0234 <ATRsp_CCID_Handler+0xb8>
102e01cc:	e12fff35 	blx	r5
102e01d0:	e3500000 	cmp	r0, #0
102e01d4:	0a000001 	beq	102e01e0 <ATRsp_CCID_Handler+0x64>
102e01d8:	e1a00008 	mov	r0, r8
102e01dc:	e8bd81f0 	pop	{r4, r5, r6, r7, r8, pc}
102e01e0:	e1a00007 	mov	r0, r7
102e01e4:	e1a01006 	mov	r1, r6
102e01e8:	e59f2048 	ldr	r2, [pc, #72]	; 102e0238 <ATRsp_CCID_Handler+0xbc>
102e01ec:	e12fff35 	blx	r5
102e01f0:	e3500000 	cmp	r0, #0
102e01f4:	1a000007 	bne	102e0218 <ATRsp_CCID_Handler+0x9c>
102e01f8:	e1a00007 	mov	r0, r7
102e01fc:	e1a01006 	mov	r1, r6
102e0200:	e59f2034 	ldr	r2, [pc, #52]	; 102e023c <ATRsp_CCID_Handler+0xc0>
102e0204:	e12fff34 	blx	r4
102e0208:	e3500000 	cmp	r0, #0
102e020c:	03a00001 	moveq	r0, #1
102e0210:	13e00000 	mvnne	r0, #0
102e0214:	e8bd81f0 	pop	{r4, r5, r6, r7, r8, pc}
102e0218:	e3e00000 	mvn	r0, #0
102e021c:	e8bd81f0 	pop	{r4, r5, r6, r7, r8, pc}
102e0220:	102e1e04 	.word	0x102e1e04
102e0224:	102e8800 	.word	0x102e8800
102e0228:	f03d672c 	.word	0xf03d672c
102e022c:	102e8808 	.word	0x102e8808
102e0230:	102e87c4 	.word	0x102e87c4
102e0234:	102e1e90 	.word	0x102e1e90
102e0238:	102e7f30 	.word	0x102e7f30
102e023c:	102e7fe8 	.word	0x102e7fe8

102e0240 <ATRsp_IMSI_Handler>:
102e0240:	e92d40f8 	push	{r3, r4, r5, r6, r7, lr}
102e0244:	e1a07002 	mov	r7, r2
102e0248:	e59f4074 	ldr	r4, [pc, #116]	; 102e02c4 <ATRsp_IMSI_Handler+0x84>
102e024c:	e59f2074 	ldr	r2, [pc, #116]	; 102e02c8 <ATRsp_IMSI_Handler+0x88>
102e0250:	e1a06000 	mov	r6, r0
102e0254:	e1a05001 	mov	r5, r1
102e0258:	e12fff34 	blx	r4
102e025c:	e3500000 	cmp	r0, #0
102e0260:	0a000001 	beq	102e026c <ATRsp_IMSI_Handler+0x2c>
102e0264:	e3a00000 	mov	r0, #0
102e0268:	e8bd80f8 	pop	{r3, r4, r5, r6, r7, pc}
102e026c:	e1a00006 	mov	r0, r6
102e0270:	e1a01005 	mov	r1, r5
102e0274:	e59f2050 	ldr	r2, [pc, #80]	; 102e02cc <ATRsp_IMSI_Handler+0x8c>
102e0278:	e12fff34 	blx	r4
102e027c:	e3500000 	cmp	r0, #0
102e0280:	1a00000d 	bne	102e02bc <ATRsp_IMSI_Handler+0x7c>
102e0284:	e1a00006 	mov	r0, r6
102e0288:	e1a01005 	mov	r1, r5
102e028c:	e59f203c 	ldr	r2, [pc, #60]	; 102e02d0 <ATRsp_IMSI_Handler+0x90>
102e0290:	e59f303c 	ldr	r3, [pc, #60]	; 102e02d4 <ATRsp_IMSI_Handler+0x94>
102e0294:	e12fff33 	blx	r3
102e0298:	e3500000 	cmp	r0, #0
102e029c:	1a000006 	bne	102e02bc <ATRsp_IMSI_Handler+0x7c>
102e02a0:	e1a00007 	mov	r0, r7
102e02a4:	e1a01006 	mov	r1, r6
102e02a8:	e2452002 	sub	r2, r5, #2
102e02ac:	e59f3024 	ldr	r3, [pc, #36]	; 102e02d8 <ATRsp_IMSI_Handler+0x98>
102e02b0:	e12fff33 	blx	r3
102e02b4:	e3a00001 	mov	r0, #1
102e02b8:	e8bd80f8 	pop	{r3, r4, r5, r6, r7, pc}
102e02bc:	e3e00000 	mvn	r0, #0
102e02c0:	e8bd80f8 	pop	{r3, r4, r5, r6, r7, pc}
102e02c4:	102e1e90 	.word	0x102e1e90
102e02c8:	102e87c4 	.word	0x102e87c4
102e02cc:	102e7f30 	.word	0x102e7f30
102e02d0:	102e7fe8 	.word	0x102e7fe8
102e02d4:	102e1e04 	.word	0x102e1e04
102e02d8:	102e67fc 	.word	0x102e67fc

102e02dc <RIL_SIM_GetSimStateByName>:
102e02dc:	e92d4070 	push	{r4, r5, r6, lr}
102e02e0:	e1a02001 	mov	r2, r1
102e02e4:	e1a05001 	mov	r5, r1
102e02e8:	e59f4130 	ldr	r4, [pc, #304]	; 102e0420 <RIL_SIM_GetSimStateByName+0x144>
102e02ec:	e59f1130 	ldr	r1, [pc, #304]	; 102e0424 <RIL_SIM_GetSimStateByName+0x148>
102e02f0:	e1a06000 	mov	r6, r0
102e02f4:	e12fff34 	blx	r4
102e02f8:	e3500000 	cmp	r0, #0
102e02fc:	1a000001 	bne	102e0308 <RIL_SIM_GetSimStateByName+0x2c>
102e0300:	e3a00001 	mov	r0, #1
102e0304:	e8bd8070 	pop	{r4, r5, r6, pc}
102e0308:	e1a00006 	mov	r0, r6
102e030c:	e59f1114 	ldr	r1, [pc, #276]	; 102e0428 <RIL_SIM_GetSimStateByName+0x14c>
102e0310:	e1a02005 	mov	r2, r5
102e0314:	e12fff34 	blx	r4
102e0318:	e3500000 	cmp	r0, #0
102e031c:	08bd8070 	popeq	{r4, r5, r6, pc}
102e0320:	e1a00006 	mov	r0, r6
102e0324:	e59f1100 	ldr	r1, [pc, #256]	; 102e042c <RIL_SIM_GetSimStateByName+0x150>
102e0328:	e1a02005 	mov	r2, r5
102e032c:	e12fff34 	blx	r4
102e0330:	e3500000 	cmp	r0, #0
102e0334:	1a000001 	bne	102e0340 <RIL_SIM_GetSimStateByName+0x64>
102e0338:	e3a00002 	mov	r0, #2
102e033c:	e8bd8070 	pop	{r4, r5, r6, pc}
102e0340:	e1a00006 	mov	r0, r6
102e0344:	e59f10e4 	ldr	r1, [pc, #228]	; 102e0430 <RIL_SIM_GetSimStateByName+0x154>
102e0348:	e1a02005 	mov	r2, r5
102e034c:	e12fff34 	blx	r4
102e0350:	e3500000 	cmp	r0, #0
102e0354:	1a000001 	bne	102e0360 <RIL_SIM_GetSimStateByName+0x84>
102e0358:	e3a00003 	mov	r0, #3
102e035c:	e8bd8070 	pop	{r4, r5, r6, pc}
102e0360:	e1a00006 	mov	r0, r6
102e0364:	e59f10c8 	ldr	r1, [pc, #200]	; 102e0434 <RIL_SIM_GetSimStateByName+0x158>
102e0368:	e1a02005 	mov	r2, r5
102e036c:	e12fff34 	blx	r4
102e0370:	e3500000 	cmp	r0, #0
102e0374:	1a000001 	bne	102e0380 <RIL_SIM_GetSimStateByName+0xa4>
102e0378:	e3a00004 	mov	r0, #4
102e037c:	e8bd8070 	pop	{r4, r5, r6, pc}
102e0380:	e1a00006 	mov	r0, r6
102e0384:	e59f10ac 	ldr	r1, [pc, #172]	; 102e0438 <RIL_SIM_GetSimStateByName+0x15c>
102e0388:	e1a02005 	mov	r2, r5
102e038c:	e12fff34 	blx	r4
102e0390:	e3500000 	cmp	r0, #0
102e0394:	1a000001 	bne	102e03a0 <RIL_SIM_GetSimStateByName+0xc4>
102e0398:	e3a00005 	mov	r0, #5
102e039c:	e8bd8070 	pop	{r4, r5, r6, pc}
102e03a0:	e1a00006 	mov	r0, r6
102e03a4:	e59f1090 	ldr	r1, [pc, #144]	; 102e043c <RIL_SIM_GetSimStateByName+0x160>
102e03a8:	e1a02005 	mov	r2, r5
102e03ac:	e12fff34 	blx	r4
102e03b0:	e3500000 	cmp	r0, #0
102e03b4:	1a000001 	bne	102e03c0 <RIL_SIM_GetSimStateByName+0xe4>
102e03b8:	e3a00006 	mov	r0, #6
102e03bc:	e8bd8070 	pop	{r4, r5, r6, pc}
102e03c0:	e1a00006 	mov	r0, r6
102e03c4:	e59f1074 	ldr	r1, [pc, #116]	; 102e0440 <RIL_SIM_GetSimStateByName+0x164>
102e03c8:	e1a02005 	mov	r2, r5
102e03cc:	e12fff34 	blx	r4
102e03d0:	e3500000 	cmp	r0, #0
102e03d4:	1a000001 	bne	102e03e0 <RIL_SIM_GetSimStateByName+0x104>
102e03d8:	e3a00007 	mov	r0, #7
102e03dc:	e8bd8070 	pop	{r4, r5, r6, pc}
102e03e0:	e1a00006 	mov	r0, r6
102e03e4:	e59f1058 	ldr	r1, [pc, #88]	; 102e0444 <RIL_SIM_GetSimStateByName+0x168>
102e03e8:	e1a02005 	mov	r2, r5
102e03ec:	e12fff34 	blx	r4
102e03f0:	e3500000 	cmp	r0, #0
102e03f4:	1a000001 	bne	102e0400 <RIL_SIM_GetSimStateByName+0x124>
102e03f8:	e3a00008 	mov	r0, #8
102e03fc:	e8bd8070 	pop	{r4, r5, r6, pc}
102e0400:	e1a00006 	mov	r0, r6
102e0404:	e59f103c 	ldr	r1, [pc, #60]	; 102e0448 <RIL_SIM_GetSimStateByName+0x16c>
102e0408:	e1a02005 	mov	r2, r5
102e040c:	e12fff34 	blx	r4
102e0410:	e3500000 	cmp	r0, #0
102e0414:	03a00009 	moveq	r0, #9
102e0418:	13a0000a 	movne	r0, #10
102e041c:	e8bd8070 	pop	{r4, r5, r6, pc}
102e0420:	102e6704 	.word	0x102e6704
102e0424:	102e887c 	.word	0x102e887c
102e0428:	102e881c 	.word	0x102e881c
102e042c:	102e882c 	.word	0x102e882c
102e0430:	102e8834 	.word	0x102e8834
102e0434:	102e883c 	.word	0x102e883c
102e0438:	102e8848 	.word	0x102e8848
102e043c:	102e8854 	.word	0x102e8854
102e0440:	102e8860 	.word	0x102e8860
102e0444:	102e886c 	.word	0x102e886c
102e0448:	102e8878 	.word	0x102e8878

102e044c <ATResponse_CPIN_Handler>:
102e044c:	e92d45f0 	push	{r4, r5, r6, r7, r8, sl, lr}
102e0450:	e1a06002 	mov	r6, r2
102e0454:	e24dd06c 	sub	sp, sp, #108	; 0x6c
102e0458:	e59f5128 	ldr	r5, [pc, #296]	; 102e0588 <ATResponse_CPIN_Handler+0x13c>
102e045c:	e59f2128 	ldr	r2, [pc, #296]	; 102e058c <ATResponse_CPIN_Handler+0x140>
102e0460:	e1a08000 	mov	r8, r0
102e0464:	e1a07001 	mov	r7, r1
102e0468:	e12fff35 	blx	r5
102e046c:	e2504000 	subs	r4, r0, #0
102e0470:	0a00001e 	beq	102e04f0 <ATResponse_CPIN_Handler+0xa4>
102e0474:	e3a02064 	mov	r2, #100	; 0x64
102e0478:	e3a01000 	mov	r1, #0
102e047c:	e59f310c 	ldr	r3, [pc, #268]	; 102e0590 <ATResponse_CPIN_Handler+0x144>
102e0480:	e28d0004 	add	r0, sp, #4
102e0484:	e12fff33 	blx	r3
102e0488:	e59f5104 	ldr	r5, [pc, #260]	; 102e0594 <ATResponse_CPIN_Handler+0x148>
102e048c:	e59f0104 	ldr	r0, [pc, #260]	; 102e0598 <ATResponse_CPIN_Handler+0x14c>
102e0490:	e12fff35 	blx	r5
102e0494:	e59f1100 	ldr	r1, [pc, #256]	; 102e059c <ATResponse_CPIN_Handler+0x150>
102e0498:	e59f3100 	ldr	r3, [pc, #256]	; 102e05a0 <ATResponse_CPIN_Handler+0x154>
102e049c:	e0844000 	add	r4, r4, r0
102e04a0:	e1a00004 	mov	r0, r4
102e04a4:	e12fff33 	blx	r3
102e04a8:	e3540000 	cmp	r4, #0
102e04ac:	e1a02000 	mov	r2, r0
102e04b0:	0a000004 	beq	102e04c8 <ATResponse_CPIN_Handler+0x7c>
102e04b4:	e1a01004 	mov	r1, r4
102e04b8:	e28d0004 	add	r0, sp, #4
102e04bc:	e0642002 	rsb	r2, r4, r2
102e04c0:	e59f30dc 	ldr	r3, [pc, #220]	; 102e05a4 <ATResponse_CPIN_Handler+0x158>
102e04c4:	e12fff33 	blx	r3
102e04c8:	e28d0004 	add	r0, sp, #4
102e04cc:	e12fff35 	blx	r5
102e04d0:	e3a04000 	mov	r4, #0
102e04d4:	e1a01000 	mov	r1, r0
102e04d8:	e28d0004 	add	r0, sp, #4
102e04dc:	ebffff7e 	bl	102e02dc <RIL_SIM_GetSimStateByName>
102e04e0:	e5860000 	str	r0, [r6]
102e04e4:	e1a00004 	mov	r0, r4
102e04e8:	e28dd06c 	add	sp, sp, #108	; 0x6c
102e04ec:	e8bd85f0 	pop	{r4, r5, r6, r7, r8, sl, pc}
102e04f0:	e1a00008 	mov	r0, r8
102e04f4:	e1a01007 	mov	r1, r7
102e04f8:	e59f20a8 	ldr	r2, [pc, #168]	; 102e05a8 <ATResponse_CPIN_Handler+0x15c>
102e04fc:	e59fa0a8 	ldr	sl, [pc, #168]	; 102e05ac <ATResponse_CPIN_Handler+0x160>
102e0500:	e12fff3a 	blx	sl
102e0504:	e3500000 	cmp	r0, #0
102e0508:	1afffff5 	bne	102e04e4 <ATResponse_CPIN_Handler+0x98>
102e050c:	e1a00008 	mov	r0, r8
102e0510:	e1a01007 	mov	r1, r7
102e0514:	e59f2094 	ldr	r2, [pc, #148]	; 102e05b0 <ATResponse_CPIN_Handler+0x164>
102e0518:	e12fff3a 	blx	sl
102e051c:	e2504000 	subs	r4, r0, #0
102e0520:	1a000016 	bne	102e0580 <ATResponse_CPIN_Handler+0x134>
102e0524:	e1a00008 	mov	r0, r8
102e0528:	e1a01007 	mov	r1, r7
102e052c:	e59f2080 	ldr	r2, [pc, #128]	; 102e05b4 <ATResponse_CPIN_Handler+0x168>
102e0530:	e12fff35 	blx	r5
102e0534:	e3500000 	cmp	r0, #0
102e0538:	03a04001 	moveq	r4, #1
102e053c:	0affffe8 	beq	102e04e4 <ATResponse_CPIN_Handler+0x98>
102e0540:	e59f3070 	ldr	r3, [pc, #112]	; 102e05b8 <ATResponse_CPIN_Handler+0x16c>
102e0544:	e28d2068 	add	r2, sp, #104	; 0x68
102e0548:	e5224068 	str	r4, [r2, #-104]!	; 0xffffff98
102e054c:	e5933000 	ldr	r3, [r3]
102e0550:	e59f1064 	ldr	r1, [pc, #100]	; 102e05bc <ATResponse_CPIN_Handler+0x170>
102e0554:	e1a0200d 	mov	r2, sp
102e0558:	e12fff33 	blx	r3
102e055c:	e59d3000 	ldr	r3, [sp]
102e0560:	e243300a 	sub	r3, r3, #10
102e0564:	e3530008 	cmp	r3, #8
102e0568:	8a000004 	bhi	102e0580 <ATResponse_CPIN_Handler+0x134>
102e056c:	e59f204c 	ldr	r2, [pc, #76]	; 102e05c0 <ATResponse_CPIN_Handler+0x174>
102e0570:	e7923103 	ldr	r3, [r2, r3, lsl #2]
102e0574:	e5863000 	str	r3, [r6]
102e0578:	e3e04000 	mvn	r4, #0
102e057c:	eaffffd8 	b	102e04e4 <ATResponse_CPIN_Handler+0x98>
102e0580:	e3a0300a 	mov	r3, #10
102e0584:	eafffffa 	b	102e0574 <ATResponse_CPIN_Handler+0x128>
102e0588:	102e1e04 	.word	0x102e1e04
102e058c:	102e8884 	.word	0x102e8884
102e0590:	102e5325 	.word	0x102e5325
102e0594:	102e6624 	.word	0x102e6624
102e0598:	102e888c 	.word	0x102e888c
102e059c:	102e89b4 	.word	0x102e89b4
102e05a0:	102e6884 	.word	0x102e6884
102e05a4:	102e67fc 	.word	0x102e67fc
102e05a8:	102e87c4 	.word	0x102e87c4
102e05ac:	102e1e90 	.word	0x102e1e90
102e05b0:	102e7f30 	.word	0x102e7f30
102e05b4:	102e7fe8 	.word	0x102e7fe8
102e05b8:	f03d672c 	.word	0xf03d672c
102e05bc:	102e8894 	.word	0x102e8894
102e05c0:	102e74ac 	.word	0x102e74ac

102e05c4 <RIL_SIM_GetSimState>:
102e05c4:	e59f305c 	ldr	r3, [pc, #92]	; 102e0628 <RIL_SIM_GetSimState+0x64>
102e05c8:	e92d4030 	push	{r4, r5, lr}
102e05cc:	e1a05000 	mov	r5, r0
102e05d0:	e8930007 	ldm	r3, {r0, r1, r2}
102e05d4:	e24dd01c 	sub	sp, sp, #28
102e05d8:	e28d300c 	add	r3, sp, #12
102e05dc:	e8a30003 	stmia	r3!, {r0, r1}
102e05e0:	e3a04000 	mov	r4, #0
102e05e4:	e1c320b0 	strh	r2, [r3]
102e05e8:	e28d000c 	add	r0, sp, #12
102e05ec:	e59f3038 	ldr	r3, [pc, #56]	; 102e062c <RIL_SIM_GetSimState+0x68>
102e05f0:	e58d4008 	str	r4, [sp, #8]
102e05f4:	e12fff33 	blx	r3
102e05f8:	e28d3008 	add	r3, sp, #8
102e05fc:	e58d4000 	str	r4, [sp]
102e0600:	e59f2028 	ldr	r2, [pc, #40]	; 102e0630 <RIL_SIM_GetSimState+0x6c>
102e0604:	e59fc028 	ldr	ip, [pc, #40]	; 102e0634 <RIL_SIM_GetSimState+0x70>
102e0608:	e1a01000 	mov	r1, r0
102e060c:	e28d000c 	add	r0, sp, #12
102e0610:	e12fff3c 	blx	ip
102e0614:	e3500000 	cmp	r0, #0
102e0618:	059d3008 	ldreq	r3, [sp, #8]
102e061c:	05853000 	streq	r3, [r5]
102e0620:	e28dd01c 	add	sp, sp, #28
102e0624:	e8bd8030 	pop	{r4, r5, pc}
102e0628:	102e74d0 	.word	0x102e74d0
102e062c:	102e6624 	.word	0x102e6624
102e0630:	102e044c 	.word	0x102e044c
102e0634:	102e6158 	.word	0x102e6158

102e0638 <RIL_SIM_GetIMSI>:
102e0638:	e59f205c 	ldr	r2, [pc, #92]	; 102e069c <RIL_SIM_GetIMSI+0x64>
102e063c:	e92d4010 	push	{r4, lr}
102e0640:	e1a04000 	mov	r4, r0
102e0644:	e8920007 	ldm	r2, {r0, r1, r2}
102e0648:	e24dd018 	sub	sp, sp, #24
102e064c:	e28dc00c 	add	ip, sp, #12
102e0650:	e3540000 	cmp	r4, #0
102e0654:	e8ac0003 	stmia	ip!, {r0, r1}
102e0658:	e5cc2000 	strb	r2, [ip]
102e065c:	0a00000c 	beq	102e0694 <RIL_SIM_GetIMSI+0x5c>
102e0660:	e59f3038 	ldr	r3, [pc, #56]	; 102e06a0 <RIL_SIM_GetIMSI+0x68>
102e0664:	e28d000c 	add	r0, sp, #12
102e0668:	e12fff33 	blx	r3
102e066c:	e3a03000 	mov	r3, #0
102e0670:	e58d3000 	str	r3, [sp]
102e0674:	e59f2028 	ldr	r2, [pc, #40]	; 102e06a4 <RIL_SIM_GetIMSI+0x6c>
102e0678:	e1a03004 	mov	r3, r4
102e067c:	e59fc024 	ldr	ip, [pc, #36]	; 102e06a8 <RIL_SIM_GetIMSI+0x70>
102e0680:	e1a01000 	mov	r1, r0
102e0684:	e28d000c 	add	r0, sp, #12
102e0688:	e12fff3c 	blx	ip
102e068c:	e28dd018 	add	sp, sp, #24
102e0690:	e8bd8010 	pop	{r4, pc}
102e0694:	e3e00003 	mvn	r0, #3
102e0698:	eafffffb 	b	102e068c <RIL_SIM_GetIMSI+0x54>
102e069c:	102e74dc 	.word	0x102e74dc
102e06a0:	102e6624 	.word	0x102e6624
102e06a4:	102e0240 	.word	0x102e0240
102e06a8:	102e6158 	.word	0x102e6158

102e06ac <RIL_SIM_GetCCID>:
102e06ac:	e59f205c 	ldr	r2, [pc, #92]	; 102e0710 <RIL_SIM_GetCCID+0x64>
102e06b0:	e92d4010 	push	{r4, lr}
102e06b4:	e1a04000 	mov	r4, r0
102e06b8:	e8920007 	ldm	r2, {r0, r1, r2}
102e06bc:	e24dd018 	sub	sp, sp, #24
102e06c0:	e28dc00c 	add	ip, sp, #12
102e06c4:	e3540000 	cmp	r4, #0
102e06c8:	e8ac0003 	stmia	ip!, {r0, r1}
102e06cc:	e5cc2000 	strb	r2, [ip]
102e06d0:	0a00000c 	beq	102e0708 <RIL_SIM_GetCCID+0x5c>
102e06d4:	e59f3038 	ldr	r3, [pc, #56]	; 102e0714 <RIL_SIM_GetCCID+0x68>
102e06d8:	e28d000c 	add	r0, sp, #12
102e06dc:	e12fff33 	blx	r3
102e06e0:	e3a03000 	mov	r3, #0
102e06e4:	e58d3000 	str	r3, [sp]
102e06e8:	e59f2028 	ldr	r2, [pc, #40]	; 102e0718 <RIL_SIM_GetCCID+0x6c>
102e06ec:	e1a03004 	mov	r3, r4
102e06f0:	e59fc024 	ldr	ip, [pc, #36]	; 102e071c <RIL_SIM_GetCCID+0x70>
102e06f4:	e1a01000 	mov	r1, r0
102e06f8:	e28d000c 	add	r0, sp, #12
102e06fc:	e12fff3c 	blx	ip
102e0700:	e28dd018 	add	sp, sp, #24
102e0704:	e8bd8010 	pop	{r4, pc}
102e0708:	e3e00003 	mvn	r0, #3
102e070c:	eafffffb 	b	102e0700 <RIL_SIM_GetCCID+0x54>
102e0710:	102e74e8 	.word	0x102e74e8
102e0714:	102e6624 	.word	0x102e6624
102e0718:	102e017c 	.word	0x102e017c
102e071c:	102e6158 	.word	0x102e6158

102e0720 <SecureData_Read_Callback>:
102e0720:	e92d47f0 	push	{r4, r5, r6, r7, r8, r9, sl, lr}
102e0724:	e1a09002 	mov	r9, r2
102e0728:	e59f80f8 	ldr	r8, [pc, #248]	; 102e0828 <SecureData_Read_Callback+0x108>
102e072c:	e59f20f8 	ldr	r2, [pc, #248]	; 102e082c <SecureData_Read_Callback+0x10c>
102e0730:	e1a05000 	mov	r5, r0
102e0734:	e1a06001 	mov	r6, r1
102e0738:	e12fff38 	blx	r8
102e073c:	e3500000 	cmp	r0, #0
102e0740:	0a00000f 	beq	102e0784 <SecureData_Read_Callback+0x64>
102e0744:	e59f10e4 	ldr	r1, [pc, #228]	; 102e0830 <SecureData_Read_Callback+0x110>
102e0748:	e59f70e4 	ldr	r7, [pc, #228]	; 102e0834 <SecureData_Read_Callback+0x114>
102e074c:	e1a00005 	mov	r0, r5
102e0750:	e12fff37 	blx	r7
102e0754:	e59f10d4 	ldr	r1, [pc, #212]	; 102e0830 <SecureData_Read_Callback+0x110>
102e0758:	e280a001 	add	sl, r0, #1
102e075c:	e1a04000 	mov	r4, r0
102e0760:	e1a0000a 	mov	r0, sl
102e0764:	e12fff37 	blx	r7
102e0768:	e3500000 	cmp	r0, #0
102e076c:	13540000 	cmpne	r4, #0
102e0770:	03a03000 	moveq	r3, #0
102e0774:	13a03001 	movne	r3, #1
102e0778:	1a00000a 	bne	102e07a8 <SecureData_Read_Callback+0x88>
102e077c:	e59f20b4 	ldr	r2, [pc, #180]	; 102e0838 <SecureData_Read_Callback+0x118>
102e0780:	e5c23000 	strb	r3, [r2]
102e0784:	e1a00005 	mov	r0, r5
102e0788:	e1a01006 	mov	r1, r6
102e078c:	e59f20a8 	ldr	r2, [pc, #168]	; 102e083c <SecureData_Read_Callback+0x11c>
102e0790:	e59f40a8 	ldr	r4, [pc, #168]	; 102e0840 <SecureData_Read_Callback+0x120>
102e0794:	e12fff34 	blx	r4
102e0798:	e3500000 	cmp	r0, #0
102e079c:	0a000011 	beq	102e07e8 <SecureData_Read_Callback+0xc8>
102e07a0:	e3a00000 	mov	r0, #0
102e07a4:	e8bd87f0 	pop	{r4, r5, r6, r7, r8, r9, sl, pc}
102e07a8:	e59f3094 	ldr	r3, [pc, #148]	; 102e0844 <SecureData_Read_Callback+0x124>
102e07ac:	e0642000 	rsb	r2, r4, r0
102e07b0:	e5933000 	ldr	r3, [r3]
102e07b4:	e2422001 	sub	r2, r2, #1
102e07b8:	e1520003 	cmp	r2, r3
102e07bc:	21a02003 	movcs	r2, r3
102e07c0:	e1a030a2 	lsr	r3, r2, #1
102e07c4:	e5893004 	str	r3, [r9, #4]
102e07c8:	e5990000 	ldr	r0, [r9]
102e07cc:	e59f3074 	ldr	r3, [pc, #116]	; 102e0848 <SecureData_Read_Callback+0x128>
102e07d0:	e1a0100a 	mov	r1, sl
102e07d4:	e12fff33 	blx	r3
102e07d8:	e59f3058 	ldr	r3, [pc, #88]	; 102e0838 <SecureData_Read_Callback+0x118>
102e07dc:	e3a02001 	mov	r2, #1
102e07e0:	e5c32000 	strb	r2, [r3]
102e07e4:	eaffffe6 	b	102e0784 <SecureData_Read_Callback+0x64>
102e07e8:	e1a00005 	mov	r0, r5
102e07ec:	e1a01006 	mov	r1, r6
102e07f0:	e59f2054 	ldr	r2, [pc, #84]	; 102e084c <SecureData_Read_Callback+0x12c>
102e07f4:	e12fff34 	blx	r4
102e07f8:	e3500000 	cmp	r0, #0
102e07fc:	1a000007 	bne	102e0820 <SecureData_Read_Callback+0x100>
102e0800:	e1a00005 	mov	r0, r5
102e0804:	e1a01006 	mov	r1, r6
102e0808:	e59f2040 	ldr	r2, [pc, #64]	; 102e0850 <SecureData_Read_Callback+0x130>
102e080c:	e12fff38 	blx	r8
102e0810:	e3500000 	cmp	r0, #0
102e0814:	1a000001 	bne	102e0820 <SecureData_Read_Callback+0x100>
102e0818:	e3a00001 	mov	r0, #1
102e081c:	e8bd87f0 	pop	{r4, r5, r6, r7, r8, r9, sl, pc}
102e0820:	e3e00000 	mvn	r0, #0
102e0824:	e8bd87f0 	pop	{r4, r5, r6, r7, r8, r9, sl, pc}
102e0828:	102e1e04 	.word	0x102e1e04
102e082c:	102e88a4 	.word	0x102e88a4
102e0830:	102e8210 	.word	0x102e8210
102e0834:	102e6884 	.word	0x102e6884
102e0838:	f03d3a78 	.word	0xf03d3a78
102e083c:	102e87c4 	.word	0x102e87c4
102e0840:	102e1e90 	.word	0x102e1e90
102e0844:	f03d65e8 	.word	0xf03d65e8
102e0848:	102e67fc 	.word	0x102e67fc
102e084c:	102e7f30 	.word	0x102e7f30
102e0850:	102e7fe8 	.word	0x102e7fe8

102e0854 <Power_ATResponse_Hanlder>:
102e0854:	e92d47f0 	push	{r4, r5, r6, r7, r8, r9, sl, lr}
102e0858:	e1a07002 	mov	r7, r2
102e085c:	e24dd010 	sub	sp, sp, #16
102e0860:	e59f4144 	ldr	r4, [pc, #324]	; 102e09ac <Power_ATResponse_Hanlder+0x158>
102e0864:	e59f2144 	ldr	r2, [pc, #324]	; 102e09b0 <Power_ATResponse_Hanlder+0x15c>
102e0868:	e1a06000 	mov	r6, r0
102e086c:	e1a05001 	mov	r5, r1
102e0870:	e12fff34 	blx	r4
102e0874:	e2508000 	subs	r8, r0, #0
102e0878:	0a000035 	beq	102e0954 <Power_ATResponse_Hanlder+0x100>
102e087c:	e59f1130 	ldr	r1, [pc, #304]	; 102e09b4 <Power_ATResponse_Hanlder+0x160>
102e0880:	e59f4130 	ldr	r4, [pc, #304]	; 102e09b8 <Power_ATResponse_Hanlder+0x164>
102e0884:	e12fff34 	blx	r4
102e0888:	e59f112c 	ldr	r1, [pc, #300]	; 102e09bc <Power_ATResponse_Hanlder+0x168>
102e088c:	e1a05000 	mov	r5, r0
102e0890:	e2800001 	add	r0, r0, #1
102e0894:	e12fff34 	blx	r4
102e0898:	e3500000 	cmp	r0, #0
102e089c:	13550000 	cmpne	r5, #0
102e08a0:	e1a06000 	mov	r6, r0
102e08a4:	1a000002 	bne	102e08b4 <Power_ATResponse_Hanlder+0x60>
102e08a8:	e3a00001 	mov	r0, #1
102e08ac:	e28dd010 	add	sp, sp, #16
102e08b0:	e8bd87f0 	pop	{r4, r5, r6, r7, r8, r9, sl, pc}
102e08b4:	e2805001 	add	r5, r0, #1
102e08b8:	e1a00005 	mov	r0, r5
102e08bc:	e59f10f8 	ldr	r1, [pc, #248]	; 102e09bc <Power_ATResponse_Hanlder+0x168>
102e08c0:	e12fff34 	blx	r4
102e08c4:	e2508000 	subs	r8, r0, #0
102e08c8:	0afffff6 	beq	102e08a8 <Power_ATResponse_Hanlder+0x54>
102e08cc:	e3a01000 	mov	r1, #0
102e08d0:	e3a0200a 	mov	r2, #10
102e08d4:	e28d0004 	add	r0, sp, #4
102e08d8:	e59f90e0 	ldr	r9, [pc, #224]	; 102e09c0 <Power_ATResponse_Hanlder+0x16c>
102e08dc:	e12fff39 	blx	r9
102e08e0:	e0662008 	rsb	r2, r6, r8
102e08e4:	e1a01005 	mov	r1, r5
102e08e8:	e2422001 	sub	r2, r2, #1
102e08ec:	e28d0004 	add	r0, sp, #4
102e08f0:	e59f60cc 	ldr	r6, [pc, #204]	; 102e09c4 <Power_ATResponse_Hanlder+0x170>
102e08f4:	e12fff36 	blx	r6
102e08f8:	e59f50c8 	ldr	r5, [pc, #200]	; 102e09c8 <Power_ATResponse_Hanlder+0x174>
102e08fc:	e28d0004 	add	r0, sp, #4
102e0900:	e12fff35 	blx	r5
102e0904:	e288a001 	add	sl, r8, #1
102e0908:	e59f10bc 	ldr	r1, [pc, #188]	; 102e09cc <Power_ATResponse_Hanlder+0x178>
102e090c:	e5870000 	str	r0, [r7]
102e0910:	e1a0000a 	mov	r0, sl
102e0914:	e12fff34 	blx	r4
102e0918:	e2504000 	subs	r4, r0, #0
102e091c:	0affffe1 	beq	102e08a8 <Power_ATResponse_Hanlder+0x54>
102e0920:	e3a01000 	mov	r1, #0
102e0924:	e3a0200a 	mov	r2, #10
102e0928:	e28d0004 	add	r0, sp, #4
102e092c:	e12fff39 	blx	r9
102e0930:	e0682004 	rsb	r2, r8, r4
102e0934:	e1a0100a 	mov	r1, sl
102e0938:	e2422001 	sub	r2, r2, #1
102e093c:	e28d0004 	add	r0, sp, #4
102e0940:	e12fff36 	blx	r6
102e0944:	e28d0004 	add	r0, sp, #4
102e0948:	e12fff35 	blx	r5
102e094c:	e5870004 	str	r0, [r7, #4]
102e0950:	eaffffd4 	b	102e08a8 <Power_ATResponse_Hanlder+0x54>
102e0954:	e1a00006 	mov	r0, r6
102e0958:	e1a01005 	mov	r1, r5
102e095c:	e59f206c 	ldr	r2, [pc, #108]	; 102e09d0 <Power_ATResponse_Hanlder+0x17c>
102e0960:	e59f706c 	ldr	r7, [pc, #108]	; 102e09d4 <Power_ATResponse_Hanlder+0x180>
102e0964:	e12fff37 	blx	r7
102e0968:	e3500000 	cmp	r0, #0
102e096c:	11a00008 	movne	r0, r8
102e0970:	1affffcd 	bne	102e08ac <Power_ATResponse_Hanlder+0x58>
102e0974:	e1a00006 	mov	r0, r6
102e0978:	e1a01005 	mov	r1, r5
102e097c:	e59f2054 	ldr	r2, [pc, #84]	; 102e09d8 <Power_ATResponse_Hanlder+0x184>
102e0980:	e12fff37 	blx	r7
102e0984:	e3500000 	cmp	r0, #0
102e0988:	1a000005 	bne	102e09a4 <Power_ATResponse_Hanlder+0x150>
102e098c:	e1a00006 	mov	r0, r6
102e0990:	e1a01005 	mov	r1, r5
102e0994:	e59f2040 	ldr	r2, [pc, #64]	; 102e09dc <Power_ATResponse_Hanlder+0x188>
102e0998:	e12fff34 	blx	r4
102e099c:	e3500000 	cmp	r0, #0
102e09a0:	0affffc0 	beq	102e08a8 <Power_ATResponse_Hanlder+0x54>
102e09a4:	e3e00000 	mvn	r0, #0
102e09a8:	eaffffbf 	b	102e08ac <Power_ATResponse_Hanlder+0x58>
102e09ac:	102e1e04 	.word	0x102e1e04
102e09b0:	102e88b4 	.word	0x102e88b4
102e09b4:	102e88b8 	.word	0x102e88b8
102e09b8:	102e6884 	.word	0x102e6884
102e09bc:	102e88b0 	.word	0x102e88b0
102e09c0:	102e6774 	.word	0x102e6774
102e09c4:	102e67fc 	.word	0x102e67fc
102e09c8:	102e690c 	.word	0x102e690c
102e09cc:	102e89b4 	.word	0x102e89b4
102e09d0:	102e87c4 	.word	0x102e87c4
102e09d4:	102e1e90 	.word	0x102e1e90
102e09d8:	102e7f30 	.word	0x102e7f30
102e09dc:	102e7fe8 	.word	0x102e7fe8

102e09e0 <SYS_ATResponse_Hanlder>:
102e09e0:	e92d41f0 	push	{r4, r5, r6, r7, r8, lr}
102e09e4:	e1a06002 	mov	r6, r2
102e09e8:	e24dd010 	sub	sp, sp, #16
102e09ec:	e59f40e0 	ldr	r4, [pc, #224]	; 102e0ad4 <SYS_ATResponse_Hanlder+0xf4>
102e09f0:	e59f20e0 	ldr	r2, [pc, #224]	; 102e0ad8 <SYS_ATResponse_Hanlder+0xf8>
102e09f4:	e1a08000 	mov	r8, r0
102e09f8:	e1a07001 	mov	r7, r1
102e09fc:	e12fff34 	blx	r4
102e0a00:	e2505000 	subs	r5, r0, #0
102e0a04:	0a00001c 	beq	102e0a7c <SYS_ATResponse_Hanlder+0x9c>
102e0a08:	e3a0200a 	mov	r2, #10
102e0a0c:	e59f30c8 	ldr	r3, [pc, #200]	; 102e0adc <SYS_ATResponse_Hanlder+0xfc>
102e0a10:	e3a01000 	mov	r1, #0
102e0a14:	e28d0004 	add	r0, sp, #4
102e0a18:	e12fff33 	blx	r3
102e0a1c:	e1a00005 	mov	r0, r5
102e0a20:	e59f10b8 	ldr	r1, [pc, #184]	; 102e0ae0 <SYS_ATResponse_Hanlder+0x100>
102e0a24:	e59f50b8 	ldr	r5, [pc, #184]	; 102e0ae4 <SYS_ATResponse_Hanlder+0x104>
102e0a28:	e12fff35 	blx	r5
102e0a2c:	e59f10b4 	ldr	r1, [pc, #180]	; 102e0ae8 <SYS_ATResponse_Hanlder+0x108>
102e0a30:	e1a04000 	mov	r4, r0
102e0a34:	e2800001 	add	r0, r0, #1
102e0a38:	e12fff35 	blx	r5
102e0a3c:	e3500000 	cmp	r0, #0
102e0a40:	13540000 	cmpne	r4, #0
102e0a44:	0a000009 	beq	102e0a70 <SYS_ATResponse_Hanlder+0x90>
102e0a48:	e0642000 	rsb	r2, r4, r0
102e0a4c:	e2841002 	add	r1, r4, #2
102e0a50:	e2422002 	sub	r2, r2, #2
102e0a54:	e59f3090 	ldr	r3, [pc, #144]	; 102e0aec <SYS_ATResponse_Hanlder+0x10c>
102e0a58:	e28d0004 	add	r0, sp, #4
102e0a5c:	e12fff33 	blx	r3
102e0a60:	e28d0004 	add	r0, sp, #4
102e0a64:	e59f3084 	ldr	r3, [pc, #132]	; 102e0af0 <SYS_ATResponse_Hanlder+0x110>
102e0a68:	e12fff33 	blx	r3
102e0a6c:	e5860000 	str	r0, [r6]
102e0a70:	e3a00001 	mov	r0, #1
102e0a74:	e28dd010 	add	sp, sp, #16
102e0a78:	e8bd81f0 	pop	{r4, r5, r6, r7, r8, pc}
102e0a7c:	e1a00008 	mov	r0, r8
102e0a80:	e1a01007 	mov	r1, r7
102e0a84:	e59f2068 	ldr	r2, [pc, #104]	; 102e0af4 <SYS_ATResponse_Hanlder+0x114>
102e0a88:	e59f6068 	ldr	r6, [pc, #104]	; 102e0af8 <SYS_ATResponse_Hanlder+0x118>
102e0a8c:	e12fff36 	blx	r6
102e0a90:	e3500000 	cmp	r0, #0
102e0a94:	11a00005 	movne	r0, r5
102e0a98:	1afffff5 	bne	102e0a74 <SYS_ATResponse_Hanlder+0x94>
102e0a9c:	e1a00008 	mov	r0, r8
102e0aa0:	e1a01007 	mov	r1, r7
102e0aa4:	e59f2050 	ldr	r2, [pc, #80]	; 102e0afc <SYS_ATResponse_Hanlder+0x11c>
102e0aa8:	e12fff36 	blx	r6
102e0aac:	e3500000 	cmp	r0, #0
102e0ab0:	1a000005 	bne	102e0acc <SYS_ATResponse_Hanlder+0xec>
102e0ab4:	e1a00008 	mov	r0, r8
102e0ab8:	e1a01007 	mov	r1, r7
102e0abc:	e59f203c 	ldr	r2, [pc, #60]	; 102e0b00 <SYS_ATResponse_Hanlder+0x120>
102e0ac0:	e12fff34 	blx	r4
102e0ac4:	e3500000 	cmp	r0, #0
102e0ac8:	0affffe8 	beq	102e0a70 <SYS_ATResponse_Hanlder+0x90>
102e0acc:	e3e00000 	mvn	r0, #0
102e0ad0:	eaffffe7 	b	102e0a74 <SYS_ATResponse_Hanlder+0x94>
102e0ad4:	102e1e04 	.word	0x102e1e04
102e0ad8:	102e88bc 	.word	0x102e88bc
102e0adc:	102e6774 	.word	0x102e6774
102e0ae0:	102e88b8 	.word	0x102e88b8
102e0ae4:	102e6884 	.word	0x102e6884
102e0ae8:	102e89b4 	.word	0x102e89b4
102e0aec:	102e67fc 	.word	0x102e67fc
102e0af0:	102e690c 	.word	0x102e690c
102e0af4:	102e87c4 	.word	0x102e87c4
102e0af8:	102e1e90 	.word	0x102e1e90
102e0afc:	102e7f30 	.word	0x102e7f30
102e0b00:	102e7fe8 	.word	0x102e7fe8

102e0b04 <ATRsp_IMEI_Handler>:
102e0b04:	e92d40f8 	push	{r3, r4, r5, r6, r7, lr}
102e0b08:	e1a07002 	mov	r7, r2
102e0b0c:	e59f4074 	ldr	r4, [pc, #116]	; 102e0b88 <ATRsp_IMEI_Handler+0x84>
102e0b10:	e59f2074 	ldr	r2, [pc, #116]	; 102e0b8c <ATRsp_IMEI_Handler+0x88>
102e0b14:	e1a06000 	mov	r6, r0
102e0b18:	e1a05001 	mov	r5, r1
102e0b1c:	e12fff34 	blx	r4
102e0b20:	e3500000 	cmp	r0, #0
102e0b24:	0a000001 	beq	102e0b30 <ATRsp_IMEI_Handler+0x2c>
102e0b28:	e3a00000 	mov	r0, #0
102e0b2c:	e8bd80f8 	pop	{r3, r4, r5, r6, r7, pc}
102e0b30:	e1a00006 	mov	r0, r6
102e0b34:	e1a01005 	mov	r1, r5
102e0b38:	e59f2050 	ldr	r2, [pc, #80]	; 102e0b90 <ATRsp_IMEI_Handler+0x8c>
102e0b3c:	e12fff34 	blx	r4
102e0b40:	e3500000 	cmp	r0, #0
102e0b44:	1a00000d 	bne	102e0b80 <ATRsp_IMEI_Handler+0x7c>
102e0b48:	e1a00006 	mov	r0, r6
102e0b4c:	e1a01005 	mov	r1, r5
102e0b50:	e59f203c 	ldr	r2, [pc, #60]	; 102e0b94 <ATRsp_IMEI_Handler+0x90>
102e0b54:	e59f303c 	ldr	r3, [pc, #60]	; 102e0b98 <ATRsp_IMEI_Handler+0x94>
102e0b58:	e12fff33 	blx	r3
102e0b5c:	e3500000 	cmp	r0, #0
102e0b60:	1a000006 	bne	102e0b80 <ATRsp_IMEI_Handler+0x7c>
102e0b64:	e1a00007 	mov	r0, r7
102e0b68:	e2861002 	add	r1, r6, #2
102e0b6c:	e2452004 	sub	r2, r5, #4
102e0b70:	e59f3024 	ldr	r3, [pc, #36]	; 102e0b9c <ATRsp_IMEI_Handler+0x98>
102e0b74:	e12fff33 	blx	r3
102e0b78:	e3a00001 	mov	r0, #1
102e0b7c:	e8bd80f8 	pop	{r3, r4, r5, r6, r7, pc}
102e0b80:	e3e00000 	mvn	r0, #0
102e0b84:	e8bd80f8 	pop	{r3, r4, r5, r6, r7, pc}
102e0b88:	102e1e90 	.word	0x102e1e90
102e0b8c:	102e87c4 	.word	0x102e87c4
102e0b90:	102e7f30 	.word	0x102e7f30
102e0b94:	102e7fe8 	.word	0x102e7fe8
102e0b98:	102e1e04 	.word	0x102e1e04
102e0b9c:	102e67fc 	.word	0x102e67fc

102e0ba0 <RIL_QuerySysInitStatus>:
102e0ba0:	e52de004 	push	{lr}		; (str lr, [sp, #-4]!)
102e0ba4:	e3a02000 	mov	r2, #0
102e0ba8:	e24dd00c 	sub	sp, sp, #12
102e0bac:	e1a03000 	mov	r3, r0
102e0bb0:	e58d2000 	str	r2, [sp]
102e0bb4:	e3a0100b 	mov	r1, #11
102e0bb8:	e59f2010 	ldr	r2, [pc, #16]	; 102e0bd0 <RIL_QuerySysInitStatus+0x30>
102e0bbc:	e59fc010 	ldr	ip, [pc, #16]	; 102e0bd4 <RIL_QuerySysInitStatus+0x34>
102e0bc0:	e59f0010 	ldr	r0, [pc, #16]	; 102e0bd8 <RIL_QuerySysInitStatus+0x38>
102e0bc4:	e12fff3c 	blx	ip
102e0bc8:	e28dd00c 	add	sp, sp, #12
102e0bcc:	e8bd8000 	ldmfd	sp!, {pc}
102e0bd0:	102e09e0 	.word	0x102e09e0
102e0bd4:	102e6158 	.word	0x102e6158
102e0bd8:	102e88c8 	.word	0x102e88c8

102e0bdc <RIL_GetPowerSupply>:
102e0bdc:	e92d4030 	push	{r4, r5, lr}
102e0be0:	e3a03000 	mov	r3, #0
102e0be4:	e24dd014 	sub	sp, sp, #20
102e0be8:	e1a05000 	mov	r5, r0
102e0bec:	e1a04001 	mov	r4, r1
102e0bf0:	e58d3000 	str	r3, [sp]
102e0bf4:	e3a01006 	mov	r1, #6
102e0bf8:	e28d3008 	add	r3, sp, #8
102e0bfc:	e59f2024 	ldr	r2, [pc, #36]	; 102e0c28 <RIL_GetPowerSupply+0x4c>
102e0c00:	e59fc024 	ldr	ip, [pc, #36]	; 102e0c2c <RIL_GetPowerSupply+0x50>
102e0c04:	e59f0024 	ldr	r0, [pc, #36]	; 102e0c30 <RIL_GetPowerSupply+0x54>
102e0c08:	e12fff3c 	blx	ip
102e0c0c:	e3500000 	cmp	r0, #0
102e0c10:	059d3008 	ldreq	r3, [sp, #8]
102e0c14:	05853000 	streq	r3, [r5]
102e0c18:	059d300c 	ldreq	r3, [sp, #12]
102e0c1c:	05843000 	streq	r3, [r4]
102e0c20:	e28dd014 	add	sp, sp, #20
102e0c24:	e8bd8030 	pop	{r4, r5, pc}
102e0c28:	102e0854 	.word	0x102e0854
102e0c2c:	102e6158 	.word	0x102e6158
102e0c30:	102e88d4 	.word	0x102e88d4

102e0c34 <Ql_SecureData_Store>:
102e0c34:	e2403001 	sub	r3, r0, #1
102e0c38:	e353000c 	cmp	r3, #12
102e0c3c:	e92d4ff0 	push	{r4, r5, r6, r7, r8, r9, sl, fp, lr}
102e0c40:	e1a05000 	mov	r5, r0
102e0c44:	e24dd00c 	sub	sp, sp, #12
102e0c48:	e1a04001 	mov	r4, r1
102e0c4c:	e1a07002 	mov	r7, r2
102e0c50:	8a000044 	bhi	102e0d68 <Ql_SecureData_Store+0x134>
102e0c54:	e3520032 	cmp	r2, #50	; 0x32
102e0c58:	93a03000 	movls	r3, #0
102e0c5c:	83a03001 	movhi	r3, #1
102e0c60:	e3500008 	cmp	r0, #8
102e0c64:	83a03000 	movhi	r3, #0
102e0c68:	e3530000 	cmp	r3, #0
102e0c6c:	1a00003d 	bne	102e0d68 <Ql_SecureData_Store+0x134>
102e0c70:	e2403009 	sub	r3, r0, #9
102e0c74:	e3530003 	cmp	r3, #3
102e0c78:	9a000038 	bls	102e0d60 <Ql_SecureData_Store+0x12c>
102e0c7c:	e3570f7d 	cmp	r7, #500	; 0x1f4
102e0c80:	8355000c 	cmphi	r5, #12
102e0c84:	93a09000 	movls	r9, #0
102e0c88:	83a09001 	movhi	r9, #1
102e0c8c:	8a000035 	bhi	102e0d68 <Ql_SecureData_Store+0x134>
102e0c90:	e1a0b087 	lsl	fp, r7, #1
102e0c94:	e28ba028 	add	sl, fp, #40	; 0x28
102e0c98:	e1a0000a 	mov	r0, sl
102e0c9c:	e59f30d4 	ldr	r3, [pc, #212]	; 102e0d78 <Ql_SecureData_Store+0x144>
102e0ca0:	e12fff33 	blx	r3
102e0ca4:	e2508000 	subs	r8, r0, #0
102e0ca8:	0a000030 	beq	102e0d70 <Ql_SecureData_Store+0x13c>
102e0cac:	e59f60c8 	ldr	r6, [pc, #200]	; 102e0d7c <Ql_SecureData_Store+0x148>
102e0cb0:	e1a01009 	mov	r1, r9
102e0cb4:	e1a0200a 	mov	r2, sl
102e0cb8:	e59f30c0 	ldr	r3, [pc, #192]	; 102e0d80 <Ql_SecureData_Store+0x14c>
102e0cbc:	e12fff33 	blx	r3
102e0cc0:	e59f10bc 	ldr	r1, [pc, #188]	; 102e0d84 <Ql_SecureData_Store+0x150>
102e0cc4:	e1a02005 	mov	r2, r5
102e0cc8:	e5963000 	ldr	r3, [r6]
102e0ccc:	e1a00008 	mov	r0, r8
102e0cd0:	e12fff33 	blx	r3
102e0cd4:	e59f90ac 	ldr	r9, [pc, #172]	; 102e0d88 <Ql_SecureData_Store+0x154>
102e0cd8:	e1a00008 	mov	r0, r8
102e0cdc:	e12fff39 	blx	r9
102e0ce0:	e3570000 	cmp	r7, #0
102e0ce4:	e088a000 	add	sl, r8, r0
102e0ce8:	0a00000a 	beq	102e0d18 <Ql_SecureData_Store+0xe4>
102e0cec:	e0847007 	add	r7, r4, r7
102e0cf0:	e1a0500a 	mov	r5, sl
102e0cf4:	e4d42001 	ldrb	r2, [r4], #1
102e0cf8:	e1a00005 	mov	r0, r5
102e0cfc:	e5963000 	ldr	r3, [r6]
102e0d00:	e59f1084 	ldr	r1, [pc, #132]	; 102e0d8c <Ql_SecureData_Store+0x158>
102e0d04:	e12fff33 	blx	r3
102e0d08:	e1540007 	cmp	r4, r7
102e0d0c:	e2855002 	add	r5, r5, #2
102e0d10:	1afffff7 	bne	102e0cf4 <Ql_SecureData_Store+0xc0>
102e0d14:	e08aa00b 	add	sl, sl, fp
102e0d18:	e3a03022 	mov	r3, #34	; 0x22
102e0d1c:	e5ca3000 	strb	r3, [sl]
102e0d20:	e1a00008 	mov	r0, r8
102e0d24:	e12fff39 	blx	r9
102e0d28:	e3a03000 	mov	r3, #0
102e0d2c:	e1a02003 	mov	r2, r3
102e0d30:	e58d3000 	str	r3, [sp]
102e0d34:	e59fc054 	ldr	ip, [pc, #84]	; 102e0d90 <Ql_SecureData_Store+0x15c>
102e0d38:	e1a01000 	mov	r1, r0
102e0d3c:	e1a00008 	mov	r0, r8
102e0d40:	e12fff3c 	blx	ip
102e0d44:	e59f3048 	ldr	r3, [pc, #72]	; 102e0d94 <Ql_SecureData_Store+0x160>
102e0d48:	e1a04000 	mov	r4, r0
102e0d4c:	e1a00008 	mov	r0, r8
102e0d50:	e12fff33 	blx	r3
102e0d54:	e1a00004 	mov	r0, r4
102e0d58:	e28dd00c 	add	sp, sp, #12
102e0d5c:	e8bd8ff0 	pop	{r4, r5, r6, r7, r8, r9, sl, fp, pc}
102e0d60:	e3520064 	cmp	r2, #100	; 0x64
102e0d64:	9affffc4 	bls	102e0c7c <Ql_SecureData_Store+0x48>
102e0d68:	e3e04000 	mvn	r4, #0
102e0d6c:	eafffff8 	b	102e0d54 <Ql_SecureData_Store+0x120>
102e0d70:	e3e04034 	mvn	r4, #52	; 0x34
102e0d74:	eafffff6 	b	102e0d54 <Ql_SecureData_Store+0x120>
102e0d78:	102e5730 	.word	0x102e5730
102e0d7c:	f03d6720 	.word	0xf03d6720
102e0d80:	102e6774 	.word	0x102e6774
102e0d84:	102e88dc 	.word	0x102e88dc
102e0d88:	102e6624 	.word	0x102e6624
102e0d8c:	102e88f0 	.word	0x102e88f0
102e0d90:	102e6158 	.word	0x102e6158
102e0d94:	102e57a8 	.word	0x102e57a8

102e0d98 <Ql_SecureData_Read>:
102e0d98:	e2403001 	sub	r3, r0, #1
102e0d9c:	e353000c 	cmp	r3, #12
102e0da0:	e92d41f0 	push	{r4, r5, r6, r7, r8, lr}
102e0da4:	e1a04000 	mov	r4, r0
102e0da8:	e24dd028 	sub	sp, sp, #40	; 0x28
102e0dac:	e1a06001 	mov	r6, r1
102e0db0:	8a00004a 	bhi	102e0ee0 <Ql_SecureData_Read+0x148>
102e0db4:	e3520032 	cmp	r2, #50	; 0x32
102e0db8:	93a03000 	movls	r3, #0
102e0dbc:	83a03001 	movhi	r3, #1
102e0dc0:	e3500008 	cmp	r0, #8
102e0dc4:	83a03000 	movhi	r3, #0
102e0dc8:	e3530000 	cmp	r3, #0
102e0dcc:	1a000043 	bne	102e0ee0 <Ql_SecureData_Read+0x148>
102e0dd0:	e2403009 	sub	r3, r0, #9
102e0dd4:	e3530003 	cmp	r3, #3
102e0dd8:	9a00003e 	bls	102e0ed8 <Ql_SecureData_Read+0x140>
102e0ddc:	e3520f7d 	cmp	r2, #500	; 0x1f4
102e0de0:	8354000c 	cmphi	r4, #12
102e0de4:	93a05000 	movls	r5, #0
102e0de8:	83a05001 	movhi	r5, #1
102e0dec:	8a00003b 	bhi	102e0ee0 <Ql_SecureData_Read+0x148>
102e0df0:	e59f7194 	ldr	r7, [pc, #404]	; 102e0f8c <Ql_SecureData_Read+0x1f4>
102e0df4:	e1a03082 	lsl	r3, r2, #1
102e0df8:	e1a01005 	mov	r1, r5
102e0dfc:	e3a02008 	mov	r2, #8
102e0e00:	e28d000c 	add	r0, sp, #12
102e0e04:	e59f8184 	ldr	r8, [pc, #388]	; 102e0f90 <Ql_SecureData_Read+0x1f8>
102e0e08:	e5873000 	str	r3, [r7]
102e0e0c:	e12fff38 	blx	r8
102e0e10:	e5970000 	ldr	r0, [r7]
102e0e14:	e59f3178 	ldr	r3, [pc, #376]	; 102e0f94 <Ql_SecureData_Read+0x1fc>
102e0e18:	e2800001 	add	r0, r0, #1
102e0e1c:	e12fff33 	blx	r3
102e0e20:	e3500000 	cmp	r0, #0
102e0e24:	e58d000c 	str	r0, [sp, #12]
102e0e28:	0a000055 	beq	102e0f84 <Ql_SecureData_Read+0x1ec>
102e0e2c:	e3a02014 	mov	r2, #20
102e0e30:	e1a01005 	mov	r1, r5
102e0e34:	e08d0002 	add	r0, sp, r2
102e0e38:	e12fff38 	blx	r8
102e0e3c:	e59f3154 	ldr	r3, [pc, #340]	; 102e0f98 <Ql_SecureData_Read+0x200>
102e0e40:	e59f1154 	ldr	r1, [pc, #340]	; 102e0f9c <Ql_SecureData_Read+0x204>
102e0e44:	e5933000 	ldr	r3, [r3]
102e0e48:	e1a02004 	mov	r2, r4
102e0e4c:	e28d0014 	add	r0, sp, #20
102e0e50:	e12fff33 	blx	r3
102e0e54:	e5972000 	ldr	r2, [r7]
102e0e58:	e1a01005 	mov	r1, r5
102e0e5c:	e2822001 	add	r2, r2, #1
102e0e60:	e59d000c 	ldr	r0, [sp, #12]
102e0e64:	e12fff38 	blx	r8
102e0e68:	e59f3130 	ldr	r3, [pc, #304]	; 102e0fa0 <Ql_SecureData_Read+0x208>
102e0e6c:	e28d0014 	add	r0, sp, #20
102e0e70:	e12fff33 	blx	r3
102e0e74:	e58d5000 	str	r5, [sp]
102e0e78:	e59f2124 	ldr	r2, [pc, #292]	; 102e0fa4 <Ql_SecureData_Read+0x20c>
102e0e7c:	e28d300c 	add	r3, sp, #12
102e0e80:	e59fc120 	ldr	ip, [pc, #288]	; 102e0fa8 <Ql_SecureData_Read+0x210>
102e0e84:	e1a01000 	mov	r1, r0
102e0e88:	e28d0014 	add	r0, sp, #20
102e0e8c:	e12fff3c 	blx	ip
102e0e90:	e3500000 	cmp	r0, #0
102e0e94:	ba00000d 	blt	102e0ed0 <Ql_SecureData_Read+0x138>
102e0e98:	e59f310c 	ldr	r3, [pc, #268]	; 102e0fac <Ql_SecureData_Read+0x214>
102e0e9c:	e5d33000 	ldrb	r3, [r3]
102e0ea0:	e3530000 	cmp	r3, #0
102e0ea4:	0a000031 	beq	102e0f70 <Ql_SecureData_Read+0x1d8>
102e0ea8:	e59d700c 	ldr	r7, [sp, #12]
102e0eac:	e3560000 	cmp	r6, #0
102e0eb0:	03570000 	cmpeq	r7, #0
102e0eb4:	13a04000 	movne	r4, #0
102e0eb8:	03a04001 	moveq	r4, #1
102e0ebc:	01a00005 	moveq	r0, r5
102e0ec0:	1a000008 	bne	102e0ee8 <Ql_SecureData_Read+0x150>
102e0ec4:	e59f30e4 	ldr	r3, [pc, #228]	; 102e0fb0 <Ql_SecureData_Read+0x218>
102e0ec8:	e12fff33 	blx	r3
102e0ecc:	e59d0010 	ldr	r0, [sp, #16]
102e0ed0:	e28dd028 	add	sp, sp, #40	; 0x28
102e0ed4:	e8bd81f0 	pop	{r4, r5, r6, r7, r8, pc}
102e0ed8:	e3520064 	cmp	r2, #100	; 0x64
102e0edc:	9affffbe 	bls	102e0ddc <Ql_SecureData_Read+0x44>
102e0ee0:	e3e00000 	mvn	r0, #0
102e0ee4:	eafffff9 	b	102e0ed0 <Ql_SecureData_Read+0x138>
102e0ee8:	e59f30c4 	ldr	r3, [pc, #196]	; 102e0fb4 <Ql_SecureData_Read+0x21c>
102e0eec:	e1a00007 	mov	r0, r7
102e0ef0:	e12fff33 	blx	r3
102e0ef4:	e5d73000 	ldrb	r3, [r7]
102e0ef8:	e3530000 	cmp	r3, #0
102e0efc:	11a0e004 	movne	lr, r4
102e0f00:	11a02004 	movne	r2, r4
102e0f04:	0a000017 	beq	102e0f68 <Ql_SecureData_Read+0x1d0>
102e0f08:	e243c030 	sub	ip, r3, #48	; 0x30
102e0f0c:	e20cc0ff 	and	ip, ip, #255	; 0xff
102e0f10:	e2435037 	sub	r5, r3, #55	; 0x37
102e0f14:	e08c1202 	add	r1, ip, r2, lsl #4
102e0f18:	e35c0009 	cmp	ip, #9
102e0f1c:	e0852202 	add	r2, r5, r2, lsl #4
102e0f20:	e2433041 	sub	r3, r3, #65	; 0x41
102e0f24:	920120ff 	andls	r2, r1, #255	; 0xff
102e0f28:	9a000002 	bls	102e0f38 <Ql_SecureData_Read+0x1a0>
102e0f2c:	e3530005 	cmp	r3, #5
102e0f30:	e20220ff 	and	r2, r2, #255	; 0xff
102e0f34:	8a00000b 	bhi	102e0f68 <Ql_SecureData_Read+0x1d0>
102e0f38:	e28ec001 	add	ip, lr, #1
102e0f3c:	e2843001 	add	r3, r4, #1
102e0f40:	e31e0001 	tst	lr, #1
102e0f44:	e1a0c80c 	lsl	ip, ip, #16
102e0f48:	e1a03803 	lsl	r3, r3, #16
102e0f4c:	17c62004 	strbne	r2, [r6, r4]
102e0f50:	11a04823 	lsrne	r4, r3, #16
102e0f54:	e7d7382c 	ldrb	r3, [r7, ip, lsr #16]
102e0f58:	13a02000 	movne	r2, #0
102e0f5c:	e3530000 	cmp	r3, #0
102e0f60:	e1a0e82c 	lsr	lr, ip, #16
102e0f64:	1affffe7 	bne	102e0f08 <Ql_SecureData_Read+0x170>
102e0f68:	e59d000c 	ldr	r0, [sp, #12]
102e0f6c:	eaffffd4 	b	102e0ec4 <Ql_SecureData_Read+0x12c>
102e0f70:	e59d000c 	ldr	r0, [sp, #12]
102e0f74:	e59f3034 	ldr	r3, [pc, #52]	; 102e0fb0 <Ql_SecureData_Read+0x218>
102e0f78:	e12fff33 	blx	r3
102e0f7c:	e59f0034 	ldr	r0, [pc, #52]	; 102e0fb8 <Ql_SecureData_Read+0x220>
102e0f80:	eaffffd2 	b	102e0ed0 <Ql_SecureData_Read+0x138>
102e0f84:	e3e00034 	mvn	r0, #52	; 0x34
102e0f88:	eaffffd0 	b	102e0ed0 <Ql_SecureData_Read+0x138>
102e0f8c:	f03d65e8 	.word	0xf03d65e8
102e0f90:	102e6774 	.word	0x102e6774
102e0f94:	102e5730 	.word	0x102e5730
102e0f98:	f03d6720 	.word	0xf03d6720
102e0f9c:	102e88f8 	.word	0x102e88f8
102e0fa0:	102e6624 	.word	0x102e6624
102e0fa4:	102e0720 	.word	0x102e0720
102e0fa8:	102e6158 	.word	0x102e6158
102e0fac:	f03d3a78 	.word	0xf03d3a78
102e0fb0:	102e57a8 	.word	0x102e57a8
102e0fb4:	102e1d14 	.word	0x102e1d14
102e0fb8:	ffffd8f1 	.word	0xffffd8f1

102e0fbc <RIL_GetIMEI>:
102e0fbc:	e59f2058 	ldr	r2, [pc, #88]	; 102e101c <RIL_GetIMEI+0x60>
102e0fc0:	e92d4030 	push	{r4, r5, lr}
102e0fc4:	e1a05000 	mov	r5, r0
102e0fc8:	e24dd014 	sub	sp, sp, #20
102e0fcc:	e8920003 	ldm	r2, {r0, r1}
102e0fd0:	e28d4008 	add	r4, sp, #8
102e0fd4:	e3550000 	cmp	r5, #0
102e0fd8:	e8840003 	stm	r4, {r0, r1}
102e0fdc:	0a00000c 	beq	102e1014 <RIL_GetIMEI+0x58>
102e0fe0:	e59f3038 	ldr	r3, [pc, #56]	; 102e1020 <RIL_GetIMEI+0x64>
102e0fe4:	e1a00004 	mov	r0, r4
102e0fe8:	e12fff33 	blx	r3
102e0fec:	e3a03000 	mov	r3, #0
102e0ff0:	e58d3000 	str	r3, [sp]
102e0ff4:	e59f2028 	ldr	r2, [pc, #40]	; 102e1024 <RIL_GetIMEI+0x68>
102e0ff8:	e1a03005 	mov	r3, r5
102e0ffc:	e59fc024 	ldr	ip, [pc, #36]	; 102e1028 <RIL_GetIMEI+0x6c>
102e1000:	e1a01000 	mov	r1, r0
102e1004:	e1a00004 	mov	r0, r4
102e1008:	e12fff3c 	blx	ip
102e100c:	e28dd014 	add	sp, sp, #20
102e1010:	e8bd8030 	pop	{r4, r5, pc}
102e1014:	e3e00003 	mvn	r0, #3
102e1018:	eafffffb 	b	102e100c <RIL_GetIMEI+0x50>
102e101c:	102e74f4 	.word	0x102e74f4
102e1020:	102e6624 	.word	0x102e6624
102e1024:	102e0b04 	.word	0x102e0b04
102e1028:	102e6158 	.word	0x102e6158

102e102c <OnURCHandler_HTTP>:
102e102c:	e92d4030 	push	{r4, r5, lr}
102e1030:	e24dd01c 	sub	sp, sp, #28
102e1034:	e28d3014 	add	r3, sp, #20
102e1038:	e58d3000 	str	r3, [sp]
102e103c:	e59f3048 	ldr	r3, [pc, #72]	; 102e108c <OnURCHandler_HTTP+0x60>
102e1040:	e3a04000 	mov	r4, #0
102e1044:	e59f5044 	ldr	r5, [pc, #68]	; 102e1090 <OnURCHandler_HTTP+0x64>
102e1048:	e593c000 	ldr	ip, [r3]
102e104c:	e58d400c 	str	r4, [sp, #12]
102e1050:	e28d3010 	add	r3, sp, #16
102e1054:	e58d4010 	str	r4, [sp, #16]
102e1058:	e58d4014 	str	r4, [sp, #20]
102e105c:	e59f1030 	ldr	r1, [pc, #48]	; 102e1094 <OnURCHandler_HTTP+0x68>
102e1060:	e28d200c 	add	r2, sp, #12
102e1064:	e12fff3c 	blx	ip
102e1068:	e5953000 	ldr	r3, [r5]
102e106c:	e1530004 	cmp	r3, r4
102e1070:	0a000003 	beq	102e1084 <OnURCHandler_HTTP+0x58>
102e1074:	e28d000c 	add	r0, sp, #12
102e1078:	e8900007 	ldm	r0, {r0, r1, r2}
102e107c:	e12fff33 	blx	r3
102e1080:	e5854000 	str	r4, [r5]
102e1084:	e28dd01c 	add	sp, sp, #28
102e1088:	e8bd8030 	pop	{r4, r5, pc}
102e108c:	f03d672c 	.word	0xf03d672c
102e1090:	f03d3a6c 	.word	0xf03d3a6c
102e1094:	102e890c 	.word	0x102e890c

102e1098 <OnURCHandler_AudPlayInd>:
102e1098:	e52de004 	push	{lr}		; (str lr, [sp, #-4]!)
102e109c:	e3a03000 	mov	r3, #0
102e10a0:	e24dd00c 	sub	sp, sp, #12
102e10a4:	e58d3000 	str	r3, [sp]
102e10a8:	e58d3004 	str	r3, [sp, #4]
102e10ac:	e59f3030 	ldr	r3, [pc, #48]	; 102e10e4 <OnURCHandler_AudPlayInd+0x4c>
102e10b0:	e59f1030 	ldr	r1, [pc, #48]	; 102e10e8 <OnURCHandler_AudPlayInd+0x50>
102e10b4:	e593c000 	ldr	ip, [r3]
102e10b8:	e1a0200d 	mov	r2, sp
102e10bc:	e28d3004 	add	r3, sp, #4
102e10c0:	e12fff3c 	blx	ip
102e10c4:	e59f3020 	ldr	r3, [pc, #32]	; 102e10ec <OnURCHandler_AudPlayInd+0x54>
102e10c8:	e5933000 	ldr	r3, [r3]
102e10cc:	e3530000 	cmp	r3, #0
102e10d0:	0a000001 	beq	102e10dc <OnURCHandler_AudPlayInd+0x44>
102e10d4:	e59d0004 	ldr	r0, [sp, #4]
102e10d8:	e12fff33 	blx	r3
102e10dc:	e28dd00c 	add	sp, sp, #12
102e10e0:	e8bd8000 	ldmfd	sp!, {pc}
102e10e4:	f03d672c 	.word	0xf03d672c
102e10e8:	102e8924 	.word	0x102e8924
102e10ec:	f03d3954 	.word	0xf03d3954

102e10f0 <OnURCHandler_FTP>:
102e10f0:	e92d41f0 	push	{r4, r5, r6, r7, r8, lr}
102e10f4:	e59f1140 	ldr	r1, [pc, #320]	; 102e123c <OnURCHandler_FTP+0x14c>
102e10f8:	e24dd010 	sub	sp, sp, #16
102e10fc:	e59f413c 	ldr	r4, [pc, #316]	; 102e1240 <OnURCHandler_FTP+0x150>
102e1100:	e1a08000 	mov	r8, r0
102e1104:	e12fff34 	blx	r4
102e1108:	e59f6134 	ldr	r6, [pc, #308]	; 102e1244 <OnURCHandler_FTP+0x154>
102e110c:	e1a05000 	mov	r5, r0
102e1110:	e59f0124 	ldr	r0, [pc, #292]	; 102e123c <OnURCHandler_FTP+0x14c>
102e1114:	e12fff36 	blx	r6
102e1118:	e59f1128 	ldr	r1, [pc, #296]	; 102e1248 <OnURCHandler_FTP+0x158>
102e111c:	e0855000 	add	r5, r5, r0
102e1120:	e1a00005 	mov	r0, r5
102e1124:	e12fff34 	blx	r4
102e1128:	e3550000 	cmp	r5, #0
102e112c:	13500000 	cmpne	r0, #0
102e1130:	e1a07000 	mov	r7, r0
102e1134:	0a000019 	beq	102e11a0 <OnURCHandler_FTP+0xb0>
102e1138:	e3a0200a 	mov	r2, #10
102e113c:	e3a01000 	mov	r1, #0
102e1140:	e59f3104 	ldr	r3, [pc, #260]	; 102e124c <OnURCHandler_FTP+0x15c>
102e1144:	e28d0004 	add	r0, sp, #4
102e1148:	e12fff33 	blx	r3
102e114c:	e1a01005 	mov	r1, r5
102e1150:	e0652007 	rsb	r2, r5, r7
102e1154:	e59f30f4 	ldr	r3, [pc, #244]	; 102e1250 <OnURCHandler_FTP+0x160>
102e1158:	e28d0004 	add	r0, sp, #4
102e115c:	e12fff33 	blx	r3
102e1160:	e59f30ec 	ldr	r3, [pc, #236]	; 102e1254 <OnURCHandler_FTP+0x164>
102e1164:	e28d0004 	add	r0, sp, #4
102e1168:	e12fff33 	blx	r3
102e116c:	e59f50e4 	ldr	r5, [pc, #228]	; 102e1258 <OnURCHandler_FTP+0x168>
102e1170:	e5953000 	ldr	r3, [r5]
102e1174:	e3530000 	cmp	r3, #0
102e1178:	e1a01000 	mov	r1, r0
102e117c:	0a000007 	beq	102e11a0 <OnURCHandler_FTP+0xb0>
102e1180:	e3500000 	cmp	r0, #0
102e1184:	b3a00000 	movlt	r0, #0
102e1188:	a3a00001 	movge	r0, #1
102e118c:	e12fff33 	blx	r3
102e1190:	e3a03000 	mov	r3, #0
102e1194:	e5853000 	str	r3, [r5]
102e1198:	e28dd010 	add	sp, sp, #16
102e119c:	e8bd81f0 	pop	{r4, r5, r6, r7, r8, pc}
102e11a0:	e59f10b4 	ldr	r1, [pc, #180]	; 102e125c <OnURCHandler_FTP+0x16c>
102e11a4:	e1a00008 	mov	r0, r8
102e11a8:	e12fff34 	blx	r4
102e11ac:	e1a05000 	mov	r5, r0
102e11b0:	e59f00a4 	ldr	r0, [pc, #164]	; 102e125c <OnURCHandler_FTP+0x16c>
102e11b4:	e12fff36 	blx	r6
102e11b8:	e59f1088 	ldr	r1, [pc, #136]	; 102e1248 <OnURCHandler_FTP+0x158>
102e11bc:	e0855000 	add	r5, r5, r0
102e11c0:	e1a00005 	mov	r0, r5
102e11c4:	e12fff34 	blx	r4
102e11c8:	e3550000 	cmp	r5, #0
102e11cc:	13500000 	cmpne	r0, #0
102e11d0:	e1a04000 	mov	r4, r0
102e11d4:	0affffef 	beq	102e1198 <OnURCHandler_FTP+0xa8>
102e11d8:	e3a0200a 	mov	r2, #10
102e11dc:	e3a01000 	mov	r1, #0
102e11e0:	e59f3064 	ldr	r3, [pc, #100]	; 102e124c <OnURCHandler_FTP+0x15c>
102e11e4:	e28d0004 	add	r0, sp, #4
102e11e8:	e12fff33 	blx	r3
102e11ec:	e1a01005 	mov	r1, r5
102e11f0:	e0652004 	rsb	r2, r5, r4
102e11f4:	e59f3054 	ldr	r3, [pc, #84]	; 102e1250 <OnURCHandler_FTP+0x160>
102e11f8:	e28d0004 	add	r0, sp, #4
102e11fc:	e12fff33 	blx	r3
102e1200:	e59f304c 	ldr	r3, [pc, #76]	; 102e1254 <OnURCHandler_FTP+0x164>
102e1204:	e28d0004 	add	r0, sp, #4
102e1208:	e12fff33 	blx	r3
102e120c:	e59f5044 	ldr	r5, [pc, #68]	; 102e1258 <OnURCHandler_FTP+0x168>
102e1210:	e5953004 	ldr	r3, [r5, #4]
102e1214:	e3530000 	cmp	r3, #0
102e1218:	e1a01000 	mov	r1, r0
102e121c:	0affffdd 	beq	102e1198 <OnURCHandler_FTP+0xa8>
102e1220:	e3500000 	cmp	r0, #0
102e1224:	b3a00000 	movlt	r0, #0
102e1228:	a3a00001 	movge	r0, #1
102e122c:	e12fff33 	blx	r3
102e1230:	e3a03000 	mov	r3, #0
102e1234:	e5853004 	str	r3, [r5, #4]
102e1238:	eaffffd6 	b	102e1198 <OnURCHandler_FTP+0xa8>
102e123c:	102e8938 	.word	0x102e8938
102e1240:	102e6884 	.word	0x102e6884
102e1244:	102e6624 	.word	0x102e6624
102e1248:	102e89b4 	.word	0x102e89b4
102e124c:	102e6774 	.word	0x102e6774
102e1250:	102e67fc 	.word	0x102e67fc
102e1254:	102e690c 	.word	0x102e690c
102e1258:	f03d3a7c 	.word	0xf03d3a7c
102e125c:	102e8944 	.word	0x102e8944

102e1260 <OnURCHandler_QMTStat>:
102e1260:	e92d4038 	push	{r3, r4, r5, lr}
102e1264:	e1a05000 	mov	r5, r0
102e1268:	e59f3038 	ldr	r3, [pc, #56]	; 102e12a8 <OnURCHandler_QMTStat+0x48>
102e126c:	e59f0038 	ldr	r0, [pc, #56]	; 102e12ac <OnURCHandler_QMTStat+0x4c>
102e1270:	e12fff33 	blx	r3
102e1274:	e59f3034 	ldr	r3, [pc, #52]	; 102e12b0 <OnURCHandler_QMTStat+0x50>
102e1278:	e59f102c 	ldr	r1, [pc, #44]	; 102e12ac <OnURCHandler_QMTStat+0x4c>
102e127c:	e1a04000 	mov	r4, r0
102e1280:	e1a00005 	mov	r0, r5
102e1284:	e12fff33 	blx	r3
102e1288:	e0903004 	adds	r3, r0, r4
102e128c:	08bd8038 	popeq	{r3, r4, r5, pc}
102e1290:	e59f101c 	ldr	r1, [pc, #28]	; 102e12b4 <OnURCHandler_QMTStat+0x54>
102e1294:	e3a0200c 	mov	r2, #12
102e1298:	e59fc018 	ldr	ip, [pc, #24]	; 102e12b8 <OnURCHandler_QMTStat+0x58>
102e129c:	e3a00000 	mov	r0, #0
102e12a0:	e12fff3c 	blx	ip
102e12a4:	e8bd8038 	pop	{r3, r4, r5, pc}
102e12a8:	102e6624 	.word	0x102e6624
102e12ac:	102e8950 	.word	0x102e8950
102e12b0:	102e6884 	.word	0x102e6884
102e12b4:	00001002 	.word	0x00001002
102e12b8:	102e6b3c 	.word	0x102e6b3c

102e12bc <OnURCHandler_QMTRecv>:
102e12bc:	e92d4038 	push	{r3, r4, r5, lr}
102e12c0:	e1a05000 	mov	r5, r0
102e12c4:	e59f3038 	ldr	r3, [pc, #56]	; 102e1304 <OnURCHandler_QMTRecv+0x48>
102e12c8:	e59f0038 	ldr	r0, [pc, #56]	; 102e1308 <OnURCHandler_QMTRecv+0x4c>
102e12cc:	e12fff33 	blx	r3
102e12d0:	e59f3034 	ldr	r3, [pc, #52]	; 102e130c <OnURCHandler_QMTRecv+0x50>
102e12d4:	e59f102c 	ldr	r1, [pc, #44]	; 102e1308 <OnURCHandler_QMTRecv+0x4c>
102e12d8:	e1a04000 	mov	r4, r0
102e12dc:	e1a00005 	mov	r0, r5
102e12e0:	e12fff33 	blx	r3
102e12e4:	e0903004 	adds	r3, r0, r4
102e12e8:	08bd8038 	popeq	{r3, r4, r5, pc}
102e12ec:	e59f101c 	ldr	r1, [pc, #28]	; 102e1310 <OnURCHandler_QMTRecv+0x54>
102e12f0:	e3a0200b 	mov	r2, #11
102e12f4:	e59fc018 	ldr	ip, [pc, #24]	; 102e1314 <OnURCHandler_QMTRecv+0x58>
102e12f8:	e3a00000 	mov	r0, #0
102e12fc:	e12fff3c 	blx	ip
102e1300:	e8bd8038 	pop	{r3, r4, r5, pc}
102e1304:	102e6624 	.word	0x102e6624
102e1308:	102e8960 	.word	0x102e8960
102e130c:	102e6884 	.word	0x102e6884
102e1310:	00001002 	.word	0x00001002
102e1314:	102e6b3c 	.word	0x102e6b3c

102e1318 <OnURCHandler_AlarmRing>:
102e1318:	e3a00000 	mov	r0, #0
102e131c:	e92d4008 	push	{r3, lr}
102e1320:	e59f1010 	ldr	r1, [pc, #16]	; 102e1338 <OnURCHandler_AlarmRing+0x20>
102e1324:	e3a0200a 	mov	r2, #10
102e1328:	e1a03000 	mov	r3, r0
102e132c:	e59fc008 	ldr	ip, [pc, #8]	; 102e133c <OnURCHandler_AlarmRing+0x24>
102e1330:	e12fff3c 	blx	ip
102e1334:	e8bd8008 	pop	{r3, pc}
102e1338:	00001002 	.word	0x00001002
102e133c:	102e6b3c 	.word	0x102e6b3c

102e1340 <OnURCHandler_InitStat>:
102e1340:	e92d4038 	push	{r3, r4, r5, lr}
102e1344:	e59f1048 	ldr	r1, [pc, #72]	; 102e1394 <OnURCHandler_InitStat+0x54>
102e1348:	e59f4048 	ldr	r4, [pc, #72]	; 102e1398 <OnURCHandler_InitStat+0x58>
102e134c:	e1a05000 	mov	r5, r0
102e1350:	e12fff34 	blx	r4
102e1354:	e3500000 	cmp	r0, #0
102e1358:	13a03002 	movne	r3, #2
102e135c:	0a000005 	beq	102e1378 <OnURCHandler_InitStat+0x38>
102e1360:	e59f1034 	ldr	r1, [pc, #52]	; 102e139c <OnURCHandler_InitStat+0x5c>
102e1364:	e3a02001 	mov	r2, #1
102e1368:	e59fc030 	ldr	ip, [pc, #48]	; 102e13a0 <OnURCHandler_InitStat+0x60>
102e136c:	e3a00000 	mov	r0, #0
102e1370:	e12fff3c 	blx	ip
102e1374:	e8bd8038 	pop	{r3, r4, r5, pc}
102e1378:	e1a00005 	mov	r0, r5
102e137c:	e59f1020 	ldr	r1, [pc, #32]	; 102e13a4 <OnURCHandler_InitStat+0x64>
102e1380:	e12fff34 	blx	r4
102e1384:	e3500000 	cmp	r0, #0
102e1388:	13a03003 	movne	r3, #3
102e138c:	03a03000 	moveq	r3, #0
102e1390:	eafffff2 	b	102e1360 <OnURCHandler_InitStat+0x20>
102e1394:	102e8970 	.word	0x102e8970
102e1398:	102e6884 	.word	0x102e6884
102e139c:	00001002 	.word	0x00001002
102e13a0:	102e6b3c 	.word	0x102e6b3c
102e13a4:	102e8980 	.word	0x102e8980

102e13a8 <OnURCHandler_CFUN>:
102e13a8:	e92d4030 	push	{r4, r5, lr}
102e13ac:	e59f3090 	ldr	r3, [pc, #144]	; 102e1444 <OnURCHandler_CFUN+0x9c>
102e13b0:	e24dd014 	sub	sp, sp, #20
102e13b4:	e1a05000 	mov	r5, r0
102e13b8:	e59f0088 	ldr	r0, [pc, #136]	; 102e1448 <OnURCHandler_CFUN+0xa0>
102e13bc:	e12fff33 	blx	r3
102e13c0:	e59f1080 	ldr	r1, [pc, #128]	; 102e1448 <OnURCHandler_CFUN+0xa0>
102e13c4:	e1a04000 	mov	r4, r0
102e13c8:	e1a00005 	mov	r0, r5
102e13cc:	e59f5078 	ldr	r5, [pc, #120]	; 102e144c <OnURCHandler_CFUN+0xa4>
102e13d0:	e12fff35 	blx	r5
102e13d4:	e59f1074 	ldr	r1, [pc, #116]	; 102e1450 <OnURCHandler_CFUN+0xa8>
102e13d8:	e0804004 	add	r4, r0, r4
102e13dc:	e1a00004 	mov	r0, r4
102e13e0:	e12fff35 	blx	r5
102e13e4:	e3540000 	cmp	r4, #0
102e13e8:	13500000 	cmpne	r0, #0
102e13ec:	0a000012 	beq	102e143c <OnURCHandler_CFUN+0x94>
102e13f0:	e3a0200a 	mov	r2, #10
102e13f4:	e3a01000 	mov	r1, #0
102e13f8:	e59f3054 	ldr	r3, [pc, #84]	; 102e1454 <OnURCHandler_CFUN+0xac>
102e13fc:	e28d0004 	add	r0, sp, #4
102e1400:	e12fff33 	blx	r3
102e1404:	e1a01004 	mov	r1, r4
102e1408:	e3a02001 	mov	r2, #1
102e140c:	e59f3044 	ldr	r3, [pc, #68]	; 102e1458 <OnURCHandler_CFUN+0xb0>
102e1410:	e28d0004 	add	r0, sp, #4
102e1414:	e12fff33 	blx	r3
102e1418:	e59f303c 	ldr	r3, [pc, #60]	; 102e145c <OnURCHandler_CFUN+0xb4>
102e141c:	e28d0004 	add	r0, sp, #4
102e1420:	e12fff33 	blx	r3
102e1424:	e59f1034 	ldr	r1, [pc, #52]	; 102e1460 <OnURCHandler_CFUN+0xb8>
102e1428:	e3a02005 	mov	r2, #5
102e142c:	e59fc030 	ldr	ip, [pc, #48]	; 102e1464 <OnURCHandler_CFUN+0xbc>
102e1430:	e1a03000 	mov	r3, r0
102e1434:	e3a00000 	mov	r0, #0
102e1438:	e12fff3c 	blx	ip
102e143c:	e28dd014 	add	sp, sp, #20
102e1440:	e8bd8030 	pop	{r4, r5, pc}
102e1444:	102e6624 	.word	0x102e6624
102e1448:	102e8990 	.word	0x102e8990
102e144c:	102e6884 	.word	0x102e6884
102e1450:	102e89b4 	.word	0x102e89b4
102e1454:	102e6774 	.word	0x102e6774
102e1458:	102e67fc 	.word	0x102e67fc
102e145c:	102e690c 	.word	0x102e690c
102e1460:	00001002 	.word	0x00001002
102e1464:	102e6b3c 	.word	0x102e6b3c

102e1468 <OnURCHandler_Voltage>:
102e1468:	e92d4038 	push	{r3, r4, r5, lr}
102e146c:	e59f107c 	ldr	r1, [pc, #124]	; 102e14f0 <OnURCHandler_Voltage+0x88>
102e1470:	e59f407c 	ldr	r4, [pc, #124]	; 102e14f4 <OnURCHandler_Voltage+0x8c>
102e1474:	e1a05000 	mov	r5, r0
102e1478:	e12fff34 	blx	r4
102e147c:	e3500000 	cmp	r0, #0
102e1480:	1a00000b 	bne	102e14b4 <OnURCHandler_Voltage+0x4c>
102e1484:	e1a00005 	mov	r0, r5
102e1488:	e59f1068 	ldr	r1, [pc, #104]	; 102e14f8 <OnURCHandler_Voltage+0x90>
102e148c:	e12fff34 	blx	r4
102e1490:	e3500000 	cmp	r0, #0
102e1494:	13a03001 	movne	r3, #1
102e1498:	0a000007 	beq	102e14bc <OnURCHandler_Voltage+0x54>
102e149c:	e59f1058 	ldr	r1, [pc, #88]	; 102e14fc <OnURCHandler_Voltage+0x94>
102e14a0:	e3a02009 	mov	r2, #9
102e14a4:	e59fc054 	ldr	ip, [pc, #84]	; 102e1500 <OnURCHandler_Voltage+0x98>
102e14a8:	e3a00000 	mov	r0, #0
102e14ac:	e12fff3c 	blx	ip
102e14b0:	e8bd8038 	pop	{r3, r4, r5, pc}
102e14b4:	e3a03000 	mov	r3, #0
102e14b8:	eafffff7 	b	102e149c <OnURCHandler_Voltage+0x34>
102e14bc:	e1a00005 	mov	r0, r5
102e14c0:	e59f103c 	ldr	r1, [pc, #60]	; 102e1504 <OnURCHandler_Voltage+0x9c>
102e14c4:	e12fff34 	blx	r4
102e14c8:	e3500000 	cmp	r0, #0
102e14cc:	13a03002 	movne	r3, #2
102e14d0:	1afffff1 	bne	102e149c <OnURCHandler_Voltage+0x34>
102e14d4:	e1a00005 	mov	r0, r5
102e14d8:	e59f1028 	ldr	r1, [pc, #40]	; 102e1508 <OnURCHandler_Voltage+0xa0>
102e14dc:	e12fff34 	blx	r4
102e14e0:	e3500000 	cmp	r0, #0
102e14e4:	13a03003 	movne	r3, #3
102e14e8:	1affffeb 	bne	102e149c <OnURCHandler_Voltage+0x34>
102e14ec:	e8bd8038 	pop	{r3, r4, r5, pc}
102e14f0:	102e899c 	.word	0x102e899c
102e14f4:	102e1cc4 	.word	0x102e1cc4
102e14f8:	102e89b8 	.word	0x102e89b8
102e14fc:	00001002 	.word	0x00001002
102e1500:	102e6b3c 	.word	0x102e6b3c
102e1504:	102e89d8 	.word	0x102e89d8
102e1508:	102e89f4 	.word	0x102e89f4

102e150c <OnURCHandler_Network>:
102e150c:	e92d4070 	push	{r4, r5, r6, lr}
102e1510:	e59f1158 	ldr	r1, [pc, #344]	; 102e1670 <OnURCHandler_Network+0x164>
102e1514:	e24dd010 	sub	sp, sp, #16
102e1518:	e59f4154 	ldr	r4, [pc, #340]	; 102e1674 <OnURCHandler_Network+0x168>
102e151c:	e1a05000 	mov	r5, r0
102e1520:	e12fff34 	blx	r4
102e1524:	e2506000 	subs	r6, r0, #0
102e1528:	0a000012 	beq	102e1578 <OnURCHandler_Network+0x6c>
102e152c:	e59f113c 	ldr	r1, [pc, #316]	; 102e1670 <OnURCHandler_Network+0x164>
102e1530:	e1a00005 	mov	r0, r5
102e1534:	e59f513c 	ldr	r5, [pc, #316]	; 102e1678 <OnURCHandler_Network+0x16c>
102e1538:	e12fff35 	blx	r5
102e153c:	e59f3138 	ldr	r3, [pc, #312]	; 102e167c <OnURCHandler_Network+0x170>
102e1540:	e1a04000 	mov	r4, r0
102e1544:	e59f0124 	ldr	r0, [pc, #292]	; 102e1670 <OnURCHandler_Network+0x164>
102e1548:	e12fff33 	blx	r3
102e154c:	e0844000 	add	r4, r4, r0
102e1550:	e5d43001 	ldrb	r3, [r4, #1]
102e1554:	e353002c 	cmp	r3, #44	; 0x2c
102e1558:	0a000004 	beq	102e1570 <OnURCHandler_Network+0x64>
102e155c:	e1a00004 	mov	r0, r4
102e1560:	e59f1118 	ldr	r1, [pc, #280]	; 102e1680 <OnURCHandler_Network+0x174>
102e1564:	e12fff35 	blx	r5
102e1568:	e2505000 	subs	r5, r0, #0
102e156c:	1a00002b 	bne	102e1620 <OnURCHandler_Network+0x114>
102e1570:	e28dd010 	add	sp, sp, #16
102e1574:	e8bd8070 	pop	{r4, r5, r6, pc}
102e1578:	e1a00005 	mov	r0, r5
102e157c:	e59f1100 	ldr	r1, [pc, #256]	; 102e1684 <OnURCHandler_Network+0x178>
102e1580:	e12fff34 	blx	r4
102e1584:	e3500000 	cmp	r0, #0
102e1588:	0afffff8 	beq	102e1570 <OnURCHandler_Network+0x64>
102e158c:	e59f10f0 	ldr	r1, [pc, #240]	; 102e1684 <OnURCHandler_Network+0x178>
102e1590:	e1a00005 	mov	r0, r5
102e1594:	e59f50dc 	ldr	r5, [pc, #220]	; 102e1678 <OnURCHandler_Network+0x16c>
102e1598:	e12fff35 	blx	r5
102e159c:	e59f30d8 	ldr	r3, [pc, #216]	; 102e167c <OnURCHandler_Network+0x170>
102e15a0:	e1a04000 	mov	r4, r0
102e15a4:	e59f00d8 	ldr	r0, [pc, #216]	; 102e1684 <OnURCHandler_Network+0x178>
102e15a8:	e12fff33 	blx	r3
102e15ac:	e0844000 	add	r4, r4, r0
102e15b0:	e5d43001 	ldrb	r3, [r4, #1]
102e15b4:	e353002c 	cmp	r3, #44	; 0x2c
102e15b8:	0affffec 	beq	102e1570 <OnURCHandler_Network+0x64>
102e15bc:	e1a00004 	mov	r0, r4
102e15c0:	e59f10b8 	ldr	r1, [pc, #184]	; 102e1680 <OnURCHandler_Network+0x174>
102e15c4:	e12fff35 	blx	r5
102e15c8:	e2505000 	subs	r5, r0, #0
102e15cc:	0affffe7 	beq	102e1570 <OnURCHandler_Network+0x64>
102e15d0:	e1a01006 	mov	r1, r6
102e15d4:	e3a0200a 	mov	r2, #10
102e15d8:	e28d0004 	add	r0, sp, #4
102e15dc:	e59f30a4 	ldr	r3, [pc, #164]	; 102e1688 <OnURCHandler_Network+0x17c>
102e15e0:	e12fff33 	blx	r3
102e15e4:	e1a01004 	mov	r1, r4
102e15e8:	e0642005 	rsb	r2, r4, r5
102e15ec:	e28d0004 	add	r0, sp, #4
102e15f0:	e59f3094 	ldr	r3, [pc, #148]	; 102e168c <OnURCHandler_Network+0x180>
102e15f4:	e12fff33 	blx	r3
102e15f8:	e28d0004 	add	r0, sp, #4
102e15fc:	e59f308c 	ldr	r3, [pc, #140]	; 102e1690 <OnURCHandler_Network+0x184>
102e1600:	e12fff33 	blx	r3
102e1604:	e59f1088 	ldr	r1, [pc, #136]	; 102e1694 <OnURCHandler_Network+0x188>
102e1608:	e3a02004 	mov	r2, #4
102e160c:	e59fc084 	ldr	ip, [pc, #132]	; 102e1698 <OnURCHandler_Network+0x18c>
102e1610:	e1a03000 	mov	r3, r0
102e1614:	e1a00006 	mov	r0, r6
102e1618:	e12fff3c 	blx	ip
102e161c:	eaffffd3 	b	102e1570 <OnURCHandler_Network+0x64>
102e1620:	e28d0004 	add	r0, sp, #4
102e1624:	e3a0200a 	mov	r2, #10
102e1628:	e3a01000 	mov	r1, #0
102e162c:	e59f3054 	ldr	r3, [pc, #84]	; 102e1688 <OnURCHandler_Network+0x17c>
102e1630:	e12fff33 	blx	r3
102e1634:	e1a01004 	mov	r1, r4
102e1638:	e0642005 	rsb	r2, r4, r5
102e163c:	e28d0004 	add	r0, sp, #4
102e1640:	e59f3044 	ldr	r3, [pc, #68]	; 102e168c <OnURCHandler_Network+0x180>
102e1644:	e12fff33 	blx	r3
102e1648:	e28d0004 	add	r0, sp, #4
102e164c:	e59f303c 	ldr	r3, [pc, #60]	; 102e1690 <OnURCHandler_Network+0x184>
102e1650:	e12fff33 	blx	r3
102e1654:	e59f1038 	ldr	r1, [pc, #56]	; 102e1694 <OnURCHandler_Network+0x188>
102e1658:	e3a02003 	mov	r2, #3
102e165c:	e59fc034 	ldr	ip, [pc, #52]	; 102e1698 <OnURCHandler_Network+0x18c>
102e1660:	e1a03000 	mov	r3, r0
102e1664:	e3a00000 	mov	r0, #0
102e1668:	e12fff3c 	blx	ip
102e166c:	eaffffbf 	b	102e1570 <OnURCHandler_Network+0x64>
102e1670:	102e8a14 	.word	0x102e8a14
102e1674:	102e1cc4 	.word	0x102e1cc4
102e1678:	102e6884 	.word	0x102e6884
102e167c:	102e6624 	.word	0x102e6624
102e1680:	102e89b4 	.word	0x102e89b4
102e1684:	102e8a20 	.word	0x102e8a20
102e1688:	102e6774 	.word	0x102e6774
102e168c:	102e67fc 	.word	0x102e67fc
102e1690:	102e690c 	.word	0x102e690c
102e1694:	00001002 	.word	0x00001002
102e1698:	102e6b3c 	.word	0x102e6b3c

102e169c <OnURCHandler_Call>:
102e169c:	e92d47f0 	push	{r4, r5, r6, r7, r8, r9, sl, lr}
102e16a0:	e59f123c 	ldr	r1, [pc, #572]	; 102e18e4 <OnURCHandler_Call+0x248>
102e16a4:	e24dd010 	sub	sp, sp, #16
102e16a8:	e59f4238 	ldr	r4, [pc, #568]	; 102e18e8 <OnURCHandler_Call+0x24c>
102e16ac:	e1a05000 	mov	r5, r0
102e16b0:	e12fff34 	blx	r4
102e16b4:	e3500000 	cmp	r0, #0
102e16b8:	1a000004 	bne	102e16d0 <OnURCHandler_Call+0x34>
102e16bc:	e1a00005 	mov	r0, r5
102e16c0:	e59f1224 	ldr	r1, [pc, #548]	; 102e18ec <OnURCHandler_Call+0x250>
102e16c4:	e12fff34 	blx	r4
102e16c8:	e3500000 	cmp	r0, #0
102e16cc:	0a00004a 	beq	102e17fc <OnURCHandler_Call+0x160>
102e16d0:	e1a00005 	mov	r0, r5
102e16d4:	e59f1210 	ldr	r1, [pc, #528]	; 102e18ec <OnURCHandler_Call+0x250>
102e16d8:	e59f5210 	ldr	r5, [pc, #528]	; 102e18f0 <OnURCHandler_Call+0x254>
102e16dc:	e12fff35 	blx	r5
102e16e0:	e250a000 	subs	sl, r0, #0
102e16e4:	0a000042 	beq	102e17f4 <OnURCHandler_Call+0x158>
102e16e8:	e59f4204 	ldr	r4, [pc, #516]	; 102e18f4 <OnURCHandler_Call+0x258>
102e16ec:	e59f01f8 	ldr	r0, [pc, #504]	; 102e18ec <OnURCHandler_Call+0x250>
102e16f0:	e5943000 	ldr	r3, [r4]
102e16f4:	e59f81fc 	ldr	r8, [pc, #508]	; 102e18f8 <OnURCHandler_Call+0x25c>
102e16f8:	e2833001 	add	r3, r3, #1
102e16fc:	e3530005 	cmp	r3, #5
102e1700:	859f21f4 	ldrhi	r2, [pc, #500]	; 102e18fc <OnURCHandler_Call+0x260>
102e1704:	e3a06000 	mov	r6, #0
102e1708:	80821293 	umullhi	r1, r2, r3, r2
102e170c:	81a02122 	lsrhi	r2, r2, #2
102e1710:	80822082 	addhi	r2, r2, r2, lsl #1
102e1714:	80433082 	subhi	r3, r3, r2, lsl #1
102e1718:	e5843000 	str	r3, [r4]
102e171c:	e59f31dc 	ldr	r3, [pc, #476]	; 102e1900 <OnURCHandler_Call+0x264>
102e1720:	e12fff33 	blx	r3
102e1724:	e59f11d8 	ldr	r1, [pc, #472]	; 102e1904 <OnURCHandler_Call+0x268>
102e1728:	e08aa000 	add	sl, sl, r0
102e172c:	e28a0001 	add	r0, sl, #1
102e1730:	e12fff35 	blx	r5
102e1734:	e28a1002 	add	r1, sl, #2
102e1738:	e5943000 	ldr	r3, [r4]
102e173c:	e0833083 	add	r3, r3, r3, lsl #1
102e1740:	e0619000 	rsb	r9, r1, r0
102e1744:	e2499001 	sub	r9, r9, #1
102e1748:	e1a09809 	lsl	r9, r9, #16
102e174c:	e1a07000 	mov	r7, r0
102e1750:	e1a09829 	lsr	r9, r9, #16
102e1754:	e0840203 	add	r0, r4, r3, lsl #4
102e1758:	e1a02009 	mov	r2, r9
102e175c:	e2800008 	add	r0, r0, #8
102e1760:	e12fff38 	blx	r8
102e1764:	e5943000 	ldr	r3, [r4]
102e1768:	e287a001 	add	sl, r7, #1
102e176c:	e0833083 	add	r3, r3, r3, lsl #1
102e1770:	e0899203 	add	r9, r9, r3, lsl #4
102e1774:	e0849009 	add	r9, r4, r9
102e1778:	e59f1184 	ldr	r1, [pc, #388]	; 102e1904 <OnURCHandler_Call+0x268>
102e177c:	e1a0000a 	mov	r0, sl
102e1780:	e5c96008 	strb	r6, [r9, #8]
102e1784:	e12fff35 	blx	r5
102e1788:	e59f3178 	ldr	r3, [pc, #376]	; 102e1908 <OnURCHandler_Call+0x26c>
102e178c:	e1a01006 	mov	r1, r6
102e1790:	e3a0200a 	mov	r2, #10
102e1794:	e1a05000 	mov	r5, r0
102e1798:	e28d0004 	add	r0, sp, #4
102e179c:	e12fff33 	blx	r3
102e17a0:	e0672005 	rsb	r2, r7, r5
102e17a4:	e1a0100a 	mov	r1, sl
102e17a8:	e2422001 	sub	r2, r2, #1
102e17ac:	e28d0004 	add	r0, sp, #4
102e17b0:	e12fff38 	blx	r8
102e17b4:	e59f3150 	ldr	r3, [pc, #336]	; 102e190c <OnURCHandler_Call+0x270>
102e17b8:	e28d0004 	add	r0, sp, #4
102e17bc:	e5945000 	ldr	r5, [r4]
102e17c0:	e12fff33 	blx	r3
102e17c4:	e5943000 	ldr	r3, [r4]
102e17c8:	e0855085 	add	r5, r5, r5, lsl #1
102e17cc:	e0833083 	add	r3, r3, r3, lsl #1
102e17d0:	e0845205 	add	r5, r4, r5, lsl #4
102e17d4:	e0843203 	add	r3, r4, r3, lsl #4
102e17d8:	e59f1130 	ldr	r1, [pc, #304]	; 102e1910 <OnURCHandler_Call+0x274>
102e17dc:	e3a02006 	mov	r2, #6
102e17e0:	e2833004 	add	r3, r3, #4
102e17e4:	e59fc128 	ldr	ip, [pc, #296]	; 102e1914 <OnURCHandler_Call+0x278>
102e17e8:	e5850004 	str	r0, [r5, #4]
102e17ec:	e1a00006 	mov	r0, r6
102e17f0:	e12fff3c 	blx	ip
102e17f4:	e28dd010 	add	sp, sp, #16
102e17f8:	e8bd87f0 	pop	{r4, r5, r6, r7, r8, r9, sl, pc}
102e17fc:	e1a00005 	mov	r0, r5
102e1800:	e59f1110 	ldr	r1, [pc, #272]	; 102e1918 <OnURCHandler_Call+0x27c>
102e1804:	e12fff34 	blx	r4
102e1808:	e3500000 	cmp	r0, #0
102e180c:	1affffaf 	bne	102e16d0 <OnURCHandler_Call+0x34>
102e1810:	e1a00005 	mov	r0, r5
102e1814:	e59f1100 	ldr	r1, [pc, #256]	; 102e191c <OnURCHandler_Call+0x280>
102e1818:	e12fff34 	blx	r4
102e181c:	e3500000 	cmp	r0, #0
102e1820:	1a000004 	bne	102e1838 <OnURCHandler_Call+0x19c>
102e1824:	e1a00005 	mov	r0, r5
102e1828:	e59f10f0 	ldr	r1, [pc, #240]	; 102e1920 <OnURCHandler_Call+0x284>
102e182c:	e12fff34 	blx	r4
102e1830:	e3500000 	cmp	r0, #0
102e1834:	0a00001f 	beq	102e18b8 <OnURCHandler_Call+0x21c>
102e1838:	e1a00005 	mov	r0, r5
102e183c:	e59f10d8 	ldr	r1, [pc, #216]	; 102e191c <OnURCHandler_Call+0x280>
102e1840:	e12fff34 	blx	r4
102e1844:	e59f409c 	ldr	r4, [pc, #156]	; 102e18e8 <OnURCHandler_Call+0x24c>
102e1848:	e3500000 	cmp	r0, #0
102e184c:	0a000006 	beq	102e186c <OnURCHandler_Call+0x1d0>
102e1850:	e3a03001 	mov	r3, #1
102e1854:	e59f10b4 	ldr	r1, [pc, #180]	; 102e1910 <OnURCHandler_Call+0x274>
102e1858:	e3a02007 	mov	r2, #7
102e185c:	e59fc0b0 	ldr	ip, [pc, #176]	; 102e1914 <OnURCHandler_Call+0x278>
102e1860:	e3a00000 	mov	r0, #0
102e1864:	e12fff3c 	blx	ip
102e1868:	eaffffe1 	b	102e17f4 <OnURCHandler_Call+0x158>
102e186c:	e1a00005 	mov	r0, r5
102e1870:	e59f10a8 	ldr	r1, [pc, #168]	; 102e1920 <OnURCHandler_Call+0x284>
102e1874:	e12fff34 	blx	r4
102e1878:	e3500000 	cmp	r0, #0
102e187c:	13a03002 	movne	r3, #2
102e1880:	1afffff3 	bne	102e1854 <OnURCHandler_Call+0x1b8>
102e1884:	e1a00005 	mov	r0, r5
102e1888:	e59f1094 	ldr	r1, [pc, #148]	; 102e1924 <OnURCHandler_Call+0x288>
102e188c:	e12fff34 	blx	r4
102e1890:	e3500000 	cmp	r0, #0
102e1894:	13a03003 	movne	r3, #3
102e1898:	1affffed 	bne	102e1854 <OnURCHandler_Call+0x1b8>
102e189c:	e1a00005 	mov	r0, r5
102e18a0:	e59f1080 	ldr	r1, [pc, #128]	; 102e1928 <OnURCHandler_Call+0x28c>
102e18a4:	e12fff34 	blx	r4
102e18a8:	e3500000 	cmp	r0, #0
102e18ac:	13a03004 	movne	r3, #4
102e18b0:	1affffe7 	bne	102e1854 <OnURCHandler_Call+0x1b8>
102e18b4:	eaffffce 	b	102e17f4 <OnURCHandler_Call+0x158>
102e18b8:	e1a00005 	mov	r0, r5
102e18bc:	e59f1060 	ldr	r1, [pc, #96]	; 102e1924 <OnURCHandler_Call+0x288>
102e18c0:	e12fff34 	blx	r4
102e18c4:	e3500000 	cmp	r0, #0
102e18c8:	1affffda 	bne	102e1838 <OnURCHandler_Call+0x19c>
102e18cc:	e1a00005 	mov	r0, r5
102e18d0:	e59f1050 	ldr	r1, [pc, #80]	; 102e1928 <OnURCHandler_Call+0x28c>
102e18d4:	e12fff34 	blx	r4
102e18d8:	e3500000 	cmp	r0, #0
102e18dc:	1affffd5 	bne	102e1838 <OnURCHandler_Call+0x19c>
102e18e0:	eaffffc3 	b	102e17f4 <OnURCHandler_Call+0x158>
102e18e4:	102e8a2c 	.word	0x102e8a2c
102e18e8:	102e1cc4 	.word	0x102e1cc4
102e18ec:	102e8a38 	.word	0x102e8a38
102e18f0:	102e6884 	.word	0x102e6884
102e18f4:	f03d65ec 	.word	0xf03d65ec
102e18f8:	102e67fc 	.word	0x102e67fc
102e18fc:	aaaaaaab 	.word	0xaaaaaaab
102e1900:	102e6624 	.word	0x102e6624
102e1904:	102e88b0 	.word	0x102e88b0
102e1908:	102e6774 	.word	0x102e6774
102e190c:	102e690c 	.word	0x102e690c
102e1910:	00001002 	.word	0x00001002
102e1914:	102e6b3c 	.word	0x102e6b3c
102e1918:	102e8a44 	.word	0x102e8a44
102e191c:	102e8a58 	.word	0x102e8a58
102e1920:	102e8a64 	.word	0x102e8a64
102e1924:	102e8a74 	.word	0x102e8a74
102e1928:	102e8a84 	.word	0x102e8a84

102e192c <OnURCHandler_SIM>:
102e192c:	e92d40f0 	push	{r4, r5, r6, r7, lr}
102e1930:	e24dd01c 	sub	sp, sp, #28
102e1934:	e3a02014 	mov	r2, #20
102e1938:	e1a04000 	mov	r4, r0
102e193c:	e3a01000 	mov	r1, #0
102e1940:	e28d0004 	add	r0, sp, #4
102e1944:	e59f50b8 	ldr	r5, [pc, #184]	; 102e1a04 <OnURCHandler_SIM+0xd8>
102e1948:	e12fff35 	blx	r5
102e194c:	e59f30b4 	ldr	r3, [pc, #180]	; 102e1a08 <OnURCHandler_SIM+0xdc>
102e1950:	e59f10b4 	ldr	r1, [pc, #180]	; 102e1a0c <OnURCHandler_SIM+0xe0>
102e1954:	e5933000 	ldr	r3, [r3]
102e1958:	e28d0004 	add	r0, sp, #4
102e195c:	e12fff33 	blx	r3
102e1960:	e28d1004 	add	r1, sp, #4
102e1964:	e59f30a4 	ldr	r3, [pc, #164]	; 102e1a10 <OnURCHandler_SIM+0xe4>
102e1968:	e1a06000 	mov	r6, r0
102e196c:	e1a00004 	mov	r0, r4
102e1970:	e12fff33 	blx	r3
102e1974:	e3500000 	cmp	r0, #0
102e1978:	1a000001 	bne	102e1984 <OnURCHandler_SIM+0x58>
102e197c:	e28dd01c 	add	sp, sp, #28
102e1980:	e8bd80f0 	pop	{r4, r5, r6, r7, pc}
102e1984:	e59f1080 	ldr	r1, [pc, #128]	; 102e1a0c <OnURCHandler_SIM+0xe0>
102e1988:	e59f7084 	ldr	r7, [pc, #132]	; 102e1a14 <OnURCHandler_SIM+0xe8>
102e198c:	e1a00004 	mov	r0, r4
102e1990:	e12fff37 	blx	r7
102e1994:	e59f107c 	ldr	r1, [pc, #124]	; 102e1a18 <OnURCHandler_SIM+0xec>
102e1998:	e0804006 	add	r4, r0, r6
102e199c:	e1a00004 	mov	r0, r4
102e19a0:	e12fff37 	blx	r7
102e19a4:	e3540000 	cmp	r4, #0
102e19a8:	13500000 	cmpne	r0, #0
102e19ac:	0afffff2 	beq	102e197c <OnURCHandler_SIM+0x50>
102e19b0:	e0646000 	rsb	r6, r4, r0
102e19b4:	e3a01000 	mov	r1, #0
102e19b8:	e3a02014 	mov	r2, #20
102e19bc:	e28d0004 	add	r0, sp, #4
102e19c0:	e12fff35 	blx	r5
102e19c4:	e1a02006 	mov	r2, r6
102e19c8:	e1a01004 	mov	r1, r4
102e19cc:	e28d0004 	add	r0, sp, #4
102e19d0:	e59f3044 	ldr	r3, [pc, #68]	; 102e1a1c <OnURCHandler_SIM+0xf0>
102e19d4:	e12fff33 	blx	r3
102e19d8:	e1a01006 	mov	r1, r6
102e19dc:	e28d0004 	add	r0, sp, #4
102e19e0:	e59f3038 	ldr	r3, [pc, #56]	; 102e1a20 <OnURCHandler_SIM+0xf4>
102e19e4:	e12fff33 	blx	r3
102e19e8:	e59f1034 	ldr	r1, [pc, #52]	; 102e1a24 <OnURCHandler_SIM+0xf8>
102e19ec:	e3a02002 	mov	r2, #2
102e19f0:	e59fc030 	ldr	ip, [pc, #48]	; 102e1a28 <OnURCHandler_SIM+0xfc>
102e19f4:	e1a03000 	mov	r3, r0
102e19f8:	e3a00000 	mov	r0, #0
102e19fc:	e12fff3c 	blx	ip
102e1a00:	eaffffdd 	b	102e197c <OnURCHandler_SIM+0x50>
102e1a04:	102e6774 	.word	0x102e6774
102e1a08:	f03d6720 	.word	0xf03d6720
102e1a0c:	102e8a94 	.word	0x102e8a94
102e1a10:	102e1cc4 	.word	0x102e1cc4
102e1a14:	102e6884 	.word	0x102e6884
102e1a18:	102e89b4 	.word	0x102e89b4
102e1a1c:	102e67fc 	.word	0x102e67fc
102e1a20:	102e02dc 	.word	0x102e02dc
102e1a24:	00001002 	.word	0x00001002
102e1a28:	102e6b3c 	.word	0x102e6b3c

102e1a2c <OnURCHandler_SMS>:
102e1a2c:	e92d40f0 	push	{r4, r5, r6, r7, lr}
102e1a30:	e59f110c 	ldr	r1, [pc, #268]	; 102e1b44 <OnURCHandler_SMS+0x118>
102e1a34:	e24dd014 	sub	sp, sp, #20
102e1a38:	e59f4108 	ldr	r4, [pc, #264]	; 102e1b48 <OnURCHandler_SMS+0x11c>
102e1a3c:	e1a06000 	mov	r6, r0
102e1a40:	e12fff34 	blx	r4
102e1a44:	e3500000 	cmp	r0, #0
102e1a48:	0a000018 	beq	102e1ab0 <OnURCHandler_SMS+0x84>
102e1a4c:	e59f10f8 	ldr	r1, [pc, #248]	; 102e1b4c <OnURCHandler_SMS+0x120>
102e1a50:	e59f50f8 	ldr	r5, [pc, #248]	; 102e1b50 <OnURCHandler_SMS+0x124>
102e1a54:	e1a00006 	mov	r0, r6
102e1a58:	e12fff35 	blx	r5
102e1a5c:	e59f10f0 	ldr	r1, [pc, #240]	; 102e1b54 <OnURCHandler_SMS+0x128>
102e1a60:	e2806003 	add	r6, r0, #3
102e1a64:	e1a00006 	mov	r0, r6
102e1a68:	e12fff35 	blx	r5
102e1a6c:	e2907000 	adds	r7, r0, #0
102e1a70:	13a07001 	movne	r7, #1
102e1a74:	e3560000 	cmp	r6, #0
102e1a78:	13500000 	cmpne	r0, #0
102e1a7c:	e1a04000 	mov	r4, r0
102e1a80:	1a000023 	bne	102e1b14 <OnURCHandler_SMS+0xe8>
102e1a84:	e1a00004 	mov	r0, r4
102e1a88:	e59f10c8 	ldr	r1, [pc, #200]	; 102e1b58 <OnURCHandler_SMS+0x12c>
102e1a8c:	e12fff35 	blx	r5
102e1a90:	e3500000 	cmp	r0, #0
102e1a94:	03a07000 	moveq	r7, #0
102e1a98:	12077001 	andne	r7, r7, #1
102e1a9c:	e3570000 	cmp	r7, #0
102e1aa0:	e1a05000 	mov	r5, r0
102e1aa4:	1a000005 	bne	102e1ac0 <OnURCHandler_SMS+0x94>
102e1aa8:	e28dd014 	add	sp, sp, #20
102e1aac:	e8bd80f0 	pop	{r4, r5, r6, r7, pc}
102e1ab0:	e1a00006 	mov	r0, r6
102e1ab4:	e59f10a0 	ldr	r1, [pc, #160]	; 102e1b5c <OnURCHandler_SMS+0x130>
102e1ab8:	e12fff34 	blx	r4
102e1abc:	eafffff9 	b	102e1aa8 <OnURCHandler_SMS+0x7c>
102e1ac0:	e28d0004 	add	r0, sp, #4
102e1ac4:	e3a01000 	mov	r1, #0
102e1ac8:	e3a0200a 	mov	r2, #10
102e1acc:	e59f308c 	ldr	r3, [pc, #140]	; 102e1b60 <OnURCHandler_SMS+0x134>
102e1ad0:	e12fff33 	blx	r3
102e1ad4:	e0642005 	rsb	r2, r4, r5
102e1ad8:	e2841001 	add	r1, r4, #1
102e1adc:	e2422001 	sub	r2, r2, #1
102e1ae0:	e28d0004 	add	r0, sp, #4
102e1ae4:	e59f3078 	ldr	r3, [pc, #120]	; 102e1b64 <OnURCHandler_SMS+0x138>
102e1ae8:	e12fff33 	blx	r3
102e1aec:	e28d0004 	add	r0, sp, #4
102e1af0:	e59f3070 	ldr	r3, [pc, #112]	; 102e1b68 <OnURCHandler_SMS+0x13c>
102e1af4:	e12fff33 	blx	r3
102e1af8:	e59f106c 	ldr	r1, [pc, #108]	; 102e1b6c <OnURCHandler_SMS+0x140>
102e1afc:	e3a02008 	mov	r2, #8
102e1b00:	e59fc068 	ldr	ip, [pc, #104]	; 102e1b70 <OnURCHandler_SMS+0x144>
102e1b04:	e1a03000 	mov	r3, r0
102e1b08:	e3a00000 	mov	r0, #0
102e1b0c:	e12fff3c 	blx	ip
102e1b10:	eaffffe4 	b	102e1aa8 <OnURCHandler_SMS+0x7c>
102e1b14:	e3a01000 	mov	r1, #0
102e1b18:	e3a02004 	mov	r2, #4
102e1b1c:	e1a0000d 	mov	r0, sp
102e1b20:	e59f3038 	ldr	r3, [pc, #56]	; 102e1b60 <OnURCHandler_SMS+0x134>
102e1b24:	e12fff33 	blx	r3
102e1b28:	e0662004 	rsb	r2, r6, r4
102e1b2c:	e1a0000d 	mov	r0, sp
102e1b30:	e1a01006 	mov	r1, r6
102e1b34:	e2422001 	sub	r2, r2, #1
102e1b38:	e59f3024 	ldr	r3, [pc, #36]	; 102e1b64 <OnURCHandler_SMS+0x138>
102e1b3c:	e12fff33 	blx	r3
102e1b40:	eaffffcf 	b	102e1a84 <OnURCHandler_SMS+0x58>
102e1b44:	102e8aa0 	.word	0x102e8aa0
102e1b48:	102e1cc4 	.word	0x102e1cc4
102e1b4c:	102e88b8 	.word	0x102e88b8
102e1b50:	102e6884 	.word	0x102e6884
102e1b54:	102e88b0 	.word	0x102e88b0
102e1b58:	102e89b4 	.word	0x102e89b4
102e1b5c:	102e8aac 	.word	0x102e8aac
102e1b60:	102e6774 	.word	0x102e6774
102e1b64:	102e6514 	.word	0x102e6514
102e1b68:	102e690c 	.word	0x102e690c
102e1b6c:	00001002 	.word	0x00001002
102e1b70:	102e6b3c 	.word	0x102e6b3c

102e1b74 <OnURCHandler>:
102e1b74:	e92d45f8 	push	{r3, r4, r5, r6, r7, r8, sl, lr}
102e1b78:	e2506000 	subs	r6, r0, #0
102e1b7c:	e1a0a001 	mov	sl, r1
102e1b80:	08bd85f8 	popeq	{r3, r4, r5, r6, r7, r8, sl, pc}
102e1b84:	e59f80a4 	ldr	r8, [pc, #164]	; 102e1c30 <OnURCHandler+0xbc>
102e1b88:	e59f70a4 	ldr	r7, [pc, #164]	; 102e1c34 <OnURCHandler+0xc0>
102e1b8c:	e3a04000 	mov	r4, #0
102e1b90:	ea000001 	b	102e1b9c <OnURCHandler+0x28>
102e1b94:	e3540017 	cmp	r4, #23
102e1b98:	0a00000c 	beq	102e1bd0 <OnURCHandler+0x5c>
102e1b9c:	e0645184 	rsb	r5, r4, r4, lsl #3
102e1ba0:	e0885185 	add	r5, r8, r5, lsl #3
102e1ba4:	e1a00006 	mov	r0, r6
102e1ba8:	e1a01005 	mov	r1, r5
102e1bac:	e12fff37 	blx	r7
102e1bb0:	e2844001 	add	r4, r4, #1
102e1bb4:	e3500000 	cmp	r0, #0
102e1bb8:	0afffff5 	beq	102e1b94 <OnURCHandler+0x20>
102e1bbc:	e5953034 	ldr	r3, [r5, #52]	; 0x34
102e1bc0:	e1a00006 	mov	r0, r6
102e1bc4:	e1a0100a 	mov	r1, sl
102e1bc8:	e12fff33 	blx	r3
102e1bcc:	e8bd85f8 	pop	{r3, r4, r5, r6, r7, r8, sl, pc}
102e1bd0:	e59f8060 	ldr	r8, [pc, #96]	; 102e1c38 <OnURCHandler+0xc4>
102e1bd4:	e1a04000 	mov	r4, r0
102e1bd8:	e0645184 	rsb	r5, r4, r4, lsl #3
102e1bdc:	e1a05185 	lsl	r5, r5, #3
102e1be0:	e1a00006 	mov	r0, r6
102e1be4:	e0881005 	add	r1, r8, r5
102e1be8:	e12fff37 	blx	r7
102e1bec:	e2844001 	add	r4, r4, #1
102e1bf0:	e2503000 	subs	r3, r0, #0
102e1bf4:	1a000006 	bne	102e1c14 <OnURCHandler+0xa0>
102e1bf8:	e3540013 	cmp	r4, #19
102e1bfc:	1afffff5 	bne	102e1bd8 <OnURCHandler+0x64>
102e1c00:	e59f1034 	ldr	r1, [pc, #52]	; 102e1c3c <OnURCHandler+0xc8>
102e1c04:	e3a02065 	mov	r2, #101	; 0x65
102e1c08:	e59fc030 	ldr	ip, [pc, #48]	; 102e1c40 <OnURCHandler+0xcc>
102e1c0c:	e12fff3c 	blx	ip
102e1c10:	e8bd85f8 	pop	{r3, r4, r5, r6, r7, r8, sl, pc}
102e1c14:	e59f3014 	ldr	r3, [pc, #20]	; 102e1c30 <OnURCHandler+0xbc>
102e1c18:	e1a00006 	mov	r0, r6
102e1c1c:	e0835005 	add	r5, r3, r5
102e1c20:	e595353c 	ldr	r3, [r5, #1340]	; 0x53c
102e1c24:	e1a0100a 	mov	r1, sl
102e1c28:	e12fff33 	blx	r3
102e1c2c:	e8bd85f8 	pop	{r3, r4, r5, r6, r7, r8, sl, pc}
102e1c30:	102e74fc 	.word	0x102e74fc
102e1c34:	102e6884 	.word	0x102e6884
102e1c38:	102e7a04 	.word	0x102e7a04
102e1c3c:	00001002 	.word	0x00001002
102e1c40:	102e6b3c 	.word	0x102e6b3c

102e1c44 <Ql_RIL_IsURCStr>:
102e1c44:	e92d40f8 	push	{r3, r4, r5, r6, r7, lr}
102e1c48:	e59f7068 	ldr	r7, [pc, #104]	; 102e1cb8 <Ql_RIL_IsURCStr+0x74>
102e1c4c:	e59f6068 	ldr	r6, [pc, #104]	; 102e1cbc <Ql_RIL_IsURCStr+0x78>
102e1c50:	e1a05000 	mov	r5, r0
102e1c54:	e3a04000 	mov	r4, #0
102e1c58:	ea000001 	b	102e1c64 <Ql_RIL_IsURCStr+0x20>
102e1c5c:	e3540017 	cmp	r4, #23
102e1c60:	0a000008 	beq	102e1c88 <Ql_RIL_IsURCStr+0x44>
102e1c64:	e0641184 	rsb	r1, r4, r4, lsl #3
102e1c68:	e1a00005 	mov	r0, r5
102e1c6c:	e0871181 	add	r1, r7, r1, lsl #3
102e1c70:	e12fff36 	blx	r6
102e1c74:	e2844001 	add	r4, r4, #1
102e1c78:	e3500000 	cmp	r0, #0
102e1c7c:	0afffff6 	beq	102e1c5c <Ql_RIL_IsURCStr+0x18>
102e1c80:	e3a00001 	mov	r0, #1
102e1c84:	e8bd80f8 	pop	{r3, r4, r5, r6, r7, pc}
102e1c88:	e59f7030 	ldr	r7, [pc, #48]	; 102e1cc0 <Ql_RIL_IsURCStr+0x7c>
102e1c8c:	e1a04000 	mov	r4, r0
102e1c90:	e0641184 	rsb	r1, r4, r4, lsl #3
102e1c94:	e1a00005 	mov	r0, r5
102e1c98:	e0871181 	add	r1, r7, r1, lsl #3
102e1c9c:	e12fff36 	blx	r6
102e1ca0:	e2844001 	add	r4, r4, #1
102e1ca4:	e3500000 	cmp	r0, #0
102e1ca8:	1afffff4 	bne	102e1c80 <Ql_RIL_IsURCStr+0x3c>
102e1cac:	e3540013 	cmp	r4, #19
102e1cb0:	1afffff6 	bne	102e1c90 <Ql_RIL_IsURCStr+0x4c>
102e1cb4:	e8bd80f8 	pop	{r3, r4, r5, r6, r7, pc}
102e1cb8:	102e74fc 	.word	0x102e74fc
102e1cbc:	102e6884 	.word	0x102e6884
102e1cc0:	102e7a04 	.word	0x102e7a04

102e1cc4 <Ql_StrPrefixMatch>:
102e1cc4:	e5d03000 	ldrb	r3, [r0]
102e1cc8:	e5d12000 	ldrb	r2, [r1]
102e1ccc:	e3530000 	cmp	r3, #0
102e1cd0:	1a000006 	bne	102e1cf0 <Ql_StrPrefixMatch+0x2c>
102e1cd4:	ea000007 	b	102e1cf8 <Ql_StrPrefixMatch+0x34>
102e1cd8:	e1530002 	cmp	r3, r2
102e1cdc:	1a000008 	bne	102e1d04 <Ql_StrPrefixMatch+0x40>
102e1ce0:	e5f03001 	ldrb	r3, [r0, #1]!
102e1ce4:	e3530000 	cmp	r3, #0
102e1ce8:	0a000007 	beq	102e1d0c <Ql_StrPrefixMatch+0x48>
102e1cec:	e5f12001 	ldrb	r2, [r1, #1]!
102e1cf0:	e3520000 	cmp	r2, #0
102e1cf4:	1afffff7 	bne	102e1cd8 <Ql_StrPrefixMatch+0x14>
102e1cf8:	e2720001 	rsbs	r0, r2, #1
102e1cfc:	33a00000 	movcc	r0, #0
102e1d00:	e12fff1e 	bx	lr
102e1d04:	e3a00000 	mov	r0, #0
102e1d08:	e12fff1e 	bx	lr
102e1d0c:	e5d12001 	ldrb	r2, [r1, #1]
102e1d10:	eafffff8 	b	102e1cf8 <Ql_StrPrefixMatch+0x34>

102e1d14 <Ql_StrToUpper>:
102e1d14:	e92d4070 	push	{r4, r5, r6, lr}
102e1d18:	e2505000 	subs	r5, r0, #0
102e1d1c:	0a000010 	beq	102e1d64 <Ql_StrToUpper+0x50>
102e1d20:	e5d50000 	ldrb	r0, [r5]
102e1d24:	e3500000 	cmp	r0, #0
102e1d28:	0a00000d 	beq	102e1d64 <Ql_StrToUpper+0x50>
102e1d2c:	e59f6038 	ldr	r6, [pc, #56]	; 102e1d6c <Ql_StrToUpper+0x58>
102e1d30:	e2854001 	add	r4, r5, #1
102e1d34:	ea000002 	b	102e1d44 <Ql_StrToUpper+0x30>
102e1d38:	e4d40001 	ldrb	r0, [r4], #1
102e1d3c:	e3500000 	cmp	r0, #0
102e1d40:	0a000007 	beq	102e1d64 <Ql_StrToUpper+0x50>
102e1d44:	e2403061 	sub	r3, r0, #97	; 0x61
102e1d48:	e3530019 	cmp	r3, #25
102e1d4c:	8afffff9 	bhi	102e1d38 <Ql_StrToUpper+0x24>
102e1d50:	e12fff36 	blx	r6
102e1d54:	e5440001 	strb	r0, [r4, #-1]
102e1d58:	e4d40001 	ldrb	r0, [r4], #1
102e1d5c:	e3500000 	cmp	r0, #0
102e1d60:	1afffff7 	bne	102e1d44 <Ql_StrToUpper+0x30>
102e1d64:	e1a00005 	mov	r0, r5
102e1d68:	e8bd8070 	pop	{r4, r5, r6, pc}
102e1d6c:	102e6904 	.word	0x102e6904

102e1d70 <Ql_HexStrToInt>:
102e1d70:	e3500000 	cmp	r0, #0
102e1d74:	13510000 	cmpne	r1, #0
102e1d78:	e92d41f0 	push	{r4, r5, r6, r7, r8, lr}
102e1d7c:	e1a08001 	mov	r8, r1
102e1d80:	13a04000 	movne	r4, #0
102e1d84:	03a04001 	moveq	r4, #1
102e1d88:	e1a07000 	mov	r7, r0
102e1d8c:	1a000001 	bne	102e1d98 <Ql_HexStrToInt+0x28>
102e1d90:	e3a00000 	mov	r0, #0
102e1d94:	e8bd81f0 	pop	{r4, r5, r6, r7, r8, pc}
102e1d98:	ebffffdd 	bl	102e1d14 <Ql_StrToUpper>
102e1d9c:	e5d73000 	ldrb	r3, [r7]
102e1da0:	e3530000 	cmp	r3, #0
102e1da4:	0a000014 	beq	102e1dfc <Ql_HexStrToInt+0x8c>
102e1da8:	e1a02004 	mov	r2, r4
102e1dac:	e1a0c004 	mov	ip, r4
102e1db0:	e2434030 	sub	r4, r3, #48	; 0x30
102e1db4:	e0836202 	add	r6, r3, r2, lsl #4
102e1db8:	e3540009 	cmp	r4, #9
102e1dbc:	e1a02006 	mov	r2, r6
102e1dc0:	e2435041 	sub	r5, r3, #65	; 0x41
102e1dc4:	92462030 	subls	r2, r6, #48	; 0x30
102e1dc8:	9a000002 	bls	102e1dd8 <Ql_HexStrToInt+0x68>
102e1dcc:	e3550005 	cmp	r5, #5
102e1dd0:	e2422037 	sub	r2, r2, #55	; 0x37
102e1dd4:	8affffed 	bhi	102e1d90 <Ql_HexStrToInt+0x20>
102e1dd8:	e28cc001 	add	ip, ip, #1
102e1ddc:	e1a0c80c 	lsl	ip, ip, #16
102e1de0:	e7d7382c 	ldrb	r3, [r7, ip, lsr #16]
102e1de4:	e1a0c82c 	lsr	ip, ip, #16
102e1de8:	e3530000 	cmp	r3, #0
102e1dec:	1affffef 	bne	102e1db0 <Ql_HexStrToInt+0x40>
102e1df0:	e3a00001 	mov	r0, #1
102e1df4:	e5882000 	str	r2, [r8]
102e1df8:	e8bd81f0 	pop	{r4, r5, r6, r7, r8, pc}
102e1dfc:	e1a02003 	mov	r2, r3
102e1e00:	eafffffa 	b	102e1df0 <Ql_HexStrToInt+0x80>

102e1e04 <Ql_RIL_FindString>:
102e1e04:	e3500000 	cmp	r0, #0
102e1e08:	13520000 	cmpne	r2, #0
102e1e0c:	e92d41f0 	push	{r4, r5, r6, r7, r8, lr}
102e1e10:	e1a05002 	mov	r5, r2
102e1e14:	e1a04000 	mov	r4, r0
102e1e18:	e1a08001 	mov	r8, r1
102e1e1c:	0a000016 	beq	102e1e7c <Ql_RIL_FindString+0x78>
102e1e20:	e1a00002 	mov	r0, r2
102e1e24:	e59f305c 	ldr	r3, [pc, #92]	; 102e1e88 <Ql_RIL_FindString+0x84>
102e1e28:	e12fff33 	blx	r3
102e1e2c:	e1500008 	cmp	r0, r8
102e1e30:	e1a06000 	mov	r6, r0
102e1e34:	8a000010 	bhi	102e1e7c <Ql_RIL_FindString+0x78>
102e1e38:	e0608008 	rsb	r8, r0, r8
102e1e3c:	e2988001 	adds	r8, r8, #1
102e1e40:	0a00000d 	beq	102e1e7c <Ql_RIL_FindString+0x78>
102e1e44:	e59f7040 	ldr	r7, [pc, #64]	; 102e1e8c <Ql_RIL_FindString+0x88>
102e1e48:	e0848008 	add	r8, r4, r8
102e1e4c:	ea000002 	b	102e1e5c <Ql_RIL_FindString+0x58>
102e1e50:	e2844001 	add	r4, r4, #1
102e1e54:	e1540008 	cmp	r4, r8
102e1e58:	0a000007 	beq	102e1e7c <Ql_RIL_FindString+0x78>
102e1e5c:	e1a00004 	mov	r0, r4
102e1e60:	e1a01005 	mov	r1, r5
102e1e64:	e1a02006 	mov	r2, r6
102e1e68:	e12fff37 	blx	r7
102e1e6c:	e3500000 	cmp	r0, #0
102e1e70:	1afffff6 	bne	102e1e50 <Ql_RIL_FindString+0x4c>
102e1e74:	e1a00004 	mov	r0, r4
102e1e78:	e8bd81f0 	pop	{r4, r5, r6, r7, r8, pc}
102e1e7c:	e3a04000 	mov	r4, #0
102e1e80:	e1a00004 	mov	r0, r4
102e1e84:	e8bd81f0 	pop	{r4, r5, r6, r7, r8, pc}
102e1e88:	102e6624 	.word	0x102e6624
102e1e8c:	102e6704 	.word	0x102e6704

102e1e90 <Ql_RIL_FindLine>:
102e1e90:	e92d4ff0 	push	{r4, r5, r6, r7, r8, r9, sl, fp, lr}
102e1e94:	e3500000 	cmp	r0, #0
102e1e98:	13520000 	cmpne	r2, #0
102e1e9c:	e24dd014 	sub	sp, sp, #20
102e1ea0:	e1a0a002 	mov	sl, r2
102e1ea4:	e58d0004 	str	r0, [sp, #4]
102e1ea8:	13a06000 	movne	r6, #0
102e1eac:	03a06001 	moveq	r6, #1
102e1eb0:	e58d100c 	str	r1, [sp, #12]
102e1eb4:	0a000067 	beq	102e2058 <Ql_RIL_FindLine+0x1c8>
102e1eb8:	e1a00002 	mov	r0, r2
102e1ebc:	e59f3224 	ldr	r3, [pc, #548]	; 102e20e8 <Ql_RIL_FindLine+0x258>
102e1ec0:	e12fff33 	blx	r3
102e1ec4:	e59f8220 	ldr	r8, [pc, #544]	; 102e20ec <Ql_RIL_FindLine+0x25c>
102e1ec8:	e280b005 	add	fp, r0, #5
102e1ecc:	e58d0008 	str	r0, [sp, #8]
102e1ed0:	e1a0000b 	mov	r0, fp
102e1ed4:	e12fff38 	blx	r8
102e1ed8:	e2505000 	subs	r5, r0, #0
102e1edc:	0a00005d 	beq	102e2058 <Ql_RIL_FindLine+0x1c8>
102e1ee0:	e59d3008 	ldr	r3, [sp, #8]
102e1ee4:	e2834004 	add	r4, r3, #4
102e1ee8:	e59d300c 	ldr	r3, [sp, #12]
102e1eec:	e1540003 	cmp	r4, r3
102e1ef0:	9a00005a 	bls	102e2060 <Ql_RIL_FindLine+0x1d0>
102e1ef4:	e59d3008 	ldr	r3, [sp, #8]
102e1ef8:	e2834002 	add	r4, r3, #2
102e1efc:	e59d300c 	ldr	r3, [sp, #12]
102e1f00:	e1530004 	cmp	r3, r4
102e1f04:	359f41e4 	ldrcc	r4, [pc, #484]	; 102e20f0 <Ql_RIL_FindLine+0x260>
102e1f08:	3a000050 	bcc	102e2050 <Ql_RIL_FindLine+0x1c0>
102e1f0c:	e59f61e0 	ldr	r6, [pc, #480]	; 102e20f4 <Ql_RIL_FindLine+0x264>
102e1f10:	e59f91e0 	ldr	r9, [pc, #480]	; 102e20f8 <Ql_RIL_FindLine+0x268>
102e1f14:	e1a0200b 	mov	r2, fp
102e1f18:	e3a01000 	mov	r1, #0
102e1f1c:	e1a00005 	mov	r0, r5
102e1f20:	e12fff39 	blx	r9
102e1f24:	e5963000 	ldr	r3, [r6]
102e1f28:	e59f11cc 	ldr	r1, [pc, #460]	; 102e20fc <Ql_RIL_FindLine+0x26c>
102e1f2c:	e1a0200a 	mov	r2, sl
102e1f30:	e1a00005 	mov	r0, r5
102e1f34:	e12fff33 	blx	r3
102e1f38:	e1a0000b 	mov	r0, fp
102e1f3c:	e12fff38 	blx	r8
102e1f40:	e1a0200b 	mov	r2, fp
102e1f44:	e3a01000 	mov	r1, #0
102e1f48:	e1a07000 	mov	r7, r0
102e1f4c:	e12fff39 	blx	r9
102e1f50:	e5963000 	ldr	r3, [r6]
102e1f54:	e59f11a4 	ldr	r1, [pc, #420]	; 102e2100 <Ql_RIL_FindLine+0x270>
102e1f58:	e1a0200a 	mov	r2, sl
102e1f5c:	e1a00007 	mov	r0, r7
102e1f60:	e12fff33 	blx	r3
102e1f64:	e1a0000b 	mov	r0, fp
102e1f68:	e12fff38 	blx	r8
102e1f6c:	e1a0200b 	mov	r2, fp
102e1f70:	e3a01000 	mov	r1, #0
102e1f74:	e1a08000 	mov	r8, r0
102e1f78:	e12fff39 	blx	r9
102e1f7c:	e5963000 	ldr	r3, [r6]
102e1f80:	e1a0200a 	mov	r2, sl
102e1f84:	e1a00008 	mov	r0, r8
102e1f88:	e59f1174 	ldr	r1, [pc, #372]	; 102e2104 <Ql_RIL_FindLine+0x274>
102e1f8c:	e12fff33 	blx	r3
102e1f90:	e59d300c 	ldr	r3, [sp, #12]
102e1f94:	e59d2008 	ldr	r2, [sp, #8]
102e1f98:	e062b003 	rsb	fp, r2, r3
102e1f9c:	e35b0001 	cmp	fp, #1
102e1fa0:	0a000025 	beq	102e203c <Ql_RIL_FindLine+0x1ac>
102e1fa4:	e59d3004 	ldr	r3, [sp, #4]
102e1fa8:	e59f6158 	ldr	r6, [pc, #344]	; 102e2108 <Ql_RIL_FindLine+0x278>
102e1fac:	e24bb001 	sub	fp, fp, #1
102e1fb0:	e083b00b 	add	fp, r3, fp
102e1fb4:	e1a09003 	mov	r9, r3
102e1fb8:	e1a0a006 	mov	sl, r6
102e1fbc:	ea00000b 	b	102e1ff0 <Ql_RIL_FindLine+0x160>
102e1fc0:	e12fff3a 	blx	sl
102e1fc4:	e1a01008 	mov	r1, r8
102e1fc8:	e1a02004 	mov	r2, r4
102e1fcc:	e3500000 	cmp	r0, #0
102e1fd0:	e1a00009 	mov	r0, r9
102e1fd4:	0a00000e 	beq	102e2014 <Ql_RIL_FindLine+0x184>
102e1fd8:	e12fff3a 	blx	sl
102e1fdc:	e3500000 	cmp	r0, #0
102e1fe0:	0a00000b 	beq	102e2014 <Ql_RIL_FindLine+0x184>
102e1fe4:	e2899001 	add	r9, r9, #1
102e1fe8:	e159000b 	cmp	r9, fp
102e1fec:	0a000012 	beq	102e203c <Ql_RIL_FindLine+0x1ac>
102e1ff0:	e1a01005 	mov	r1, r5
102e1ff4:	e1a02004 	mov	r2, r4
102e1ff8:	e1a00009 	mov	r0, r9
102e1ffc:	e12fff36 	blx	r6
102e2000:	e1a01007 	mov	r1, r7
102e2004:	e1a02004 	mov	r2, r4
102e2008:	e3500000 	cmp	r0, #0
102e200c:	e1a00009 	mov	r0, r9
102e2010:	1affffea 	bne	102e1fc0 <Ql_RIL_FindLine+0x130>
102e2014:	e59f40d4 	ldr	r4, [pc, #212]	; 102e20f0 <Ql_RIL_FindLine+0x260>
102e2018:	e1a00005 	mov	r0, r5
102e201c:	e12fff34 	blx	r4
102e2020:	e1a00007 	mov	r0, r7
102e2024:	e12fff34 	blx	r4
102e2028:	e1a00008 	mov	r0, r8
102e202c:	e12fff34 	blx	r4
102e2030:	e1a00009 	mov	r0, r9
102e2034:	e28dd014 	add	sp, sp, #20
102e2038:	e8bd8ff0 	pop	{r4, r5, r6, r7, r8, r9, sl, fp, pc}
102e203c:	e1a00007 	mov	r0, r7
102e2040:	e59f40a8 	ldr	r4, [pc, #168]	; 102e20f0 <Ql_RIL_FindLine+0x260>
102e2044:	e12fff34 	blx	r4
102e2048:	e1a00008 	mov	r0, r8
102e204c:	e12fff34 	blx	r4
102e2050:	e1a00005 	mov	r0, r5
102e2054:	e12fff34 	blx	r4
102e2058:	e3a09000 	mov	r9, #0
102e205c:	eafffff3 	b	102e2030 <Ql_RIL_FindLine+0x1a0>
102e2060:	e1a01006 	mov	r1, r6
102e2064:	e1a0200b 	mov	r2, fp
102e2068:	e59f3088 	ldr	r3, [pc, #136]	; 102e20f8 <Ql_RIL_FindLine+0x268>
102e206c:	e12fff33 	blx	r3
102e2070:	e59f307c 	ldr	r3, [pc, #124]	; 102e20f4 <Ql_RIL_FindLine+0x264>
102e2074:	e1a0200a 	mov	r2, sl
102e2078:	e5933000 	ldr	r3, [r3]
102e207c:	e1a00005 	mov	r0, r5
102e2080:	e59f1084 	ldr	r1, [pc, #132]	; 102e210c <Ql_RIL_FindLine+0x27c>
102e2084:	e12fff33 	blx	r3
102e2088:	e59d300c 	ldr	r3, [sp, #12]
102e208c:	e59d2008 	ldr	r2, [sp, #8]
102e2090:	e0627003 	rsb	r7, r2, r3
102e2094:	e3570003 	cmp	r7, #3
102e2098:	0affff95 	beq	102e1ef4 <Ql_RIL_FindLine+0x64>
102e209c:	e59d3004 	ldr	r3, [sp, #4]
102e20a0:	e2477003 	sub	r7, r7, #3
102e20a4:	e59f605c 	ldr	r6, [pc, #92]	; 102e2108 <Ql_RIL_FindLine+0x278>
102e20a8:	e0837007 	add	r7, r3, r7
102e20ac:	e1a09003 	mov	r9, r3
102e20b0:	ea000002 	b	102e20c0 <Ql_RIL_FindLine+0x230>
102e20b4:	e2899001 	add	r9, r9, #1
102e20b8:	e1590007 	cmp	r9, r7
102e20bc:	0affff8c 	beq	102e1ef4 <Ql_RIL_FindLine+0x64>
102e20c0:	e1a00009 	mov	r0, r9
102e20c4:	e1a01005 	mov	r1, r5
102e20c8:	e1a02004 	mov	r2, r4
102e20cc:	e12fff36 	blx	r6
102e20d0:	e3500000 	cmp	r0, #0
102e20d4:	1afffff6 	bne	102e20b4 <Ql_RIL_FindLine+0x224>
102e20d8:	e1a00005 	mov	r0, r5
102e20dc:	e59f200c 	ldr	r2, [pc, #12]	; 102e20f0 <Ql_RIL_FindLine+0x260>
102e20e0:	e12fff32 	blx	r2
102e20e4:	eaffffd1 	b	102e2030 <Ql_RIL_FindLine+0x1a0>
102e20e8:	102e6624 	.word	0x102e6624
102e20ec:	102e5730 	.word	0x102e5730
102e20f0:	102e57a8 	.word	0x102e57a8
102e20f4:	f03d6720 	.word	0xf03d6720
102e20f8:	102e6774 	.word	0x102e6774
102e20fc:	102e8abc 	.word	0x102e8abc
102e2100:	102e8ac4 	.word	0x102e8ac4
102e2104:	102e8d2c 	.word	0x102e8d2c
102e2108:	102e6704 	.word	0x102e6704
102e210c:	102e8ab4 	.word	0x102e8ab4

102e2110 <Ql_GenHash>:
102e2110:	e3510000 	cmp	r1, #0
102e2114:	e52d4004 	push	{r4}		; (str r4, [sp, #-4]!)
102e2118:	0a00000e 	beq	102e2158 <Ql_GenHash+0x48>
102e211c:	e59f403c 	ldr	r4, [pc, #60]	; 102e2160 <Ql_GenHash+0x50>
102e2120:	e1a03000 	mov	r3, r0
102e2124:	e080c001 	add	ip, r0, r1
102e2128:	e3a00000 	mov	r0, #0
102e212c:	e4d31001 	ldrb	r1, [r3], #1
102e2130:	e0611181 	rsb	r1, r1, r1, lsl #3
102e2134:	e0201094 	mla	r0, r4, r0, r1
102e2138:	e153000c 	cmp	r3, ip
102e213c:	e1a02800 	lsl	r2, r0, #16
102e2140:	e1a02822 	lsr	r2, r2, #16
102e2144:	e0010292 	mul	r1, r2, r2
102e2148:	e0210000 	eor	r0, r1, r0
102e214c:	1afffff6 	bne	102e212c <Ql_GenHash+0x1c>
102e2150:	e8bd0010 	ldmfd	sp!, {r4}
102e2154:	e12fff1e 	bx	lr
102e2158:	e1a00001 	mov	r0, r1
102e215c:	eafffffb 	b	102e2150 <Ql_GenHash+0x40>
102e2160:	00001597 	.word	0x00001597

102e2164 <Analyse_Command>:
102e2164:	e92d4ff0 	push	{r4, r5, r6, r7, r8, r9, sl, fp, lr}
102e2168:	e1a0a000 	mov	sl, r0
102e216c:	e24dd084 	sub	sp, sp, #132	; 0x84
102e2170:	e1a08001 	mov	r8, r1
102e2174:	e1a09002 	mov	r9, r2
102e2178:	e1a0b003 	mov	fp, r3
102e217c:	e3a05000 	mov	r5, #0
102e2180:	e59f414c 	ldr	r4, [pc, #332]	; 102e22d4 <Analyse_Command+0x170>
102e2184:	ea000000 	b	102e218c <Analyse_Command+0x28>
102e2188:	e2855001 	add	r5, r5, #1
102e218c:	e59f1144 	ldr	r1, [pc, #324]	; 102e22d8 <Analyse_Command+0x174>
102e2190:	e12fff34 	blx	r4
102e2194:	e2506000 	subs	r6, r0, #0
102e2198:	e2860001 	add	r0, r6, #1
102e219c:	1afffff9 	bne	102e2188 <Analyse_Command+0x24>
102e21a0:	e1a0000a 	mov	r0, sl
102e21a4:	ea000000 	b	102e21ac <Analyse_Command+0x48>
102e21a8:	e2866001 	add	r6, r6, #1
102e21ac:	e59f1128 	ldr	r1, [pc, #296]	; 102e22dc <Analyse_Command+0x178>
102e21b0:	e12fff34 	blx	r4
102e21b4:	e2507000 	subs	r7, r0, #0
102e21b8:	e2870001 	add	r0, r7, #1
102e21bc:	1afffff9 	bne	102e21a8 <Analyse_Command+0x44>
102e21c0:	e1a0000a 	mov	r0, sl
102e21c4:	ea000000 	b	102e21cc <Analyse_Command+0x68>
102e21c8:	e2877001 	add	r7, r7, #1
102e21cc:	e59f110c 	ldr	r1, [pc, #268]	; 102e22e0 <Analyse_Command+0x17c>
102e21d0:	e12fff34 	blx	r4
102e21d4:	e2503000 	subs	r3, r0, #0
102e21d8:	e2830001 	add	r0, r3, #1
102e21dc:	1afffff9 	bne	102e21c8 <Analyse_Command+0x64>
102e21e0:	e1550006 	cmp	r5, r6
102e21e4:	0a000003 	beq	102e21f8 <Analyse_Command+0x94>
102e21e8:	e3e06000 	mvn	r6, #0
102e21ec:	e1a00006 	mov	r0, r6
102e21f0:	e28dd084 	add	sp, sp, #132	; 0x84
102e21f4:	e8bd8ff0 	pop	{r4, r5, r6, r7, r8, r9, sl, fp, pc}
102e21f8:	e2877001 	add	r7, r7, #1
102e21fc:	e1550007 	cmp	r5, r7
102e2200:	1afffff8 	bne	102e21e8 <Analyse_Command+0x84>
102e2204:	e59f10d8 	ldr	r1, [pc, #216]	; 102e22e4 <Analyse_Command+0x180>
102e2208:	e59f20c4 	ldr	r2, [pc, #196]	; 102e22d4 <Analyse_Command+0x170>
102e220c:	e58d3004 	str	r3, [sp, #4]
102e2210:	e1a0000a 	mov	r0, sl
102e2214:	e12fff32 	blx	r2
102e2218:	e59d3004 	ldr	r3, [sp, #4]
102e221c:	e59f10b4 	ldr	r1, [pc, #180]	; 102e22d8 <Analyse_Command+0x174>
102e2220:	e3500000 	cmp	r0, #0
102e2224:	15c03000 	strbne	r3, [r0]
102e2228:	e1a0000a 	mov	r0, sl
102e222c:	e12fff34 	blx	r4
102e2230:	e3500000 	cmp	r0, #0
102e2234:	0affffeb 	beq	102e21e8 <Analyse_Command+0x84>
102e2238:	e2800001 	add	r0, r0, #1
102e223c:	e359003e 	cmp	r9, #62	; 0x3e
102e2240:	e58d0008 	str	r0, [sp, #8]
102e2244:	1affffe7 	bne	102e21e8 <Analyse_Command+0x84>
102e2248:	e3580000 	cmp	r8, #0
102e224c:	daffffe5 	ble	102e21e8 <Analyse_Command+0x84>
102e2250:	e3e06000 	mvn	r6, #0
102e2254:	e28d7008 	add	r7, sp, #8
102e2258:	e3a05000 	mov	r5, #0
102e225c:	e088a006 	add	sl, r8, r6
102e2260:	ea000005 	b	102e227c <Analyse_Command+0x118>
102e2264:	e15a0005 	cmp	sl, r5
102e2268:	03a06000 	moveq	r6, #0
102e226c:	e1530008 	cmp	r3, r8
102e2270:	e1a05003 	mov	r5, r3
102e2274:	e5a70004 	str	r0, [r7, #4]!
102e2278:	0a000009 	beq	102e22a4 <Analyse_Command+0x140>
102e227c:	e59f1058 	ldr	r1, [pc, #88]	; 102e22dc <Analyse_Command+0x178>
102e2280:	e12fff34 	blx	r4
102e2284:	e2853001 	add	r3, r5, #1
102e2288:	e2502000 	subs	r2, r0, #0
102e228c:	e2820003 	add	r0, r2, #3
102e2290:	1afffff3 	bne	102e2264 <Analyse_Command+0x100>
102e2294:	e28d1080 	add	r1, sp, #128	; 0x80
102e2298:	e0813103 	add	r3, r1, r3, lsl #2
102e229c:	e5032078 	str	r2, [r3, #-120]	; 0xffffff88
102e22a0:	e1a03005 	mov	r3, r5
102e22a4:	e3560000 	cmp	r6, #0
102e22a8:	1affffce 	bne	102e21e8 <Analyse_Command+0x84>
102e22ac:	e28d1080 	add	r1, sp, #128	; 0x80
102e22b0:	e0812103 	add	r2, r1, r3, lsl #2
102e22b4:	e512107c 	ldr	r1, [r2, #-124]	; 0xffffff84
102e22b8:	e5122078 	ldr	r2, [r2, #-120]	; 0xffffff88
102e22bc:	e1a0000b 	mov	r0, fp
102e22c0:	e0612002 	rsb	r2, r1, r2
102e22c4:	e2422003 	sub	r2, r2, #3
102e22c8:	e59f3018 	ldr	r3, [pc, #24]	; 102e22e8 <Analyse_Command+0x184>
102e22cc:	e12fff33 	blx	r3
102e22d0:	eaffffc5 	b	102e21ec <Analyse_Command+0x88>
102e22d4:	102e6884 	.word	0x102e6884
102e22d8:	102e8acc 	.word	0x102e8acc
102e22dc:	102e8ad0 	.word	0x102e8ad0
102e22e0:	102e8ad4 	.word	0x102e8ad4
102e22e4:	102e89b4 	.word	0x102e89b4
102e22e8:	102e6514 	.word	0x102e6514

102e22ec <ATResponse_mqtt_handler_pub>:
102e22ec:	e92d40f0 	push	{r4, r5, r6, r7, lr}
102e22f0:	e3a0301a 	mov	r3, #26
102e22f4:	e24dd00c 	sub	sp, sp, #12
102e22f8:	e1a04002 	mov	r4, r2
102e22fc:	e59f5098 	ldr	r5, [pc, #152]	; 102e239c <ATResponse_mqtt_handler_pub+0xb0>
102e2300:	e59f2098 	ldr	r2, [pc, #152]	; 102e23a0 <ATResponse_mqtt_handler_pub+0xb4>
102e2304:	e1a07000 	mov	r7, r0
102e2308:	e1a06001 	mov	r6, r1
102e230c:	e5cd3007 	strb	r3, [sp, #7]
102e2310:	e12fff35 	blx	r5
102e2314:	e3500000 	cmp	r0, #0
102e2318:	0a000009 	beq	102e2344 <ATResponse_mqtt_handler_pub+0x58>
102e231c:	e594100c 	ldr	r1, [r4, #12]
102e2320:	e59f507c 	ldr	r5, [pc, #124]	; 102e23a4 <ATResponse_mqtt_handler_pub+0xb8>
102e2324:	e5940004 	ldr	r0, [r4, #4]
102e2328:	e12fff35 	blx	r5
102e232c:	e28d0007 	add	r0, sp, #7
102e2330:	e3a01001 	mov	r1, #1
102e2334:	e12fff35 	blx	r5
102e2338:	e3a00001 	mov	r0, #1
102e233c:	e28dd00c 	add	sp, sp, #12
102e2340:	e8bd80f0 	pop	{r4, r5, r6, r7, pc}
102e2344:	e1a00007 	mov	r0, r7
102e2348:	e1a01006 	mov	r1, r6
102e234c:	e59f2054 	ldr	r2, [pc, #84]	; 102e23a8 <ATResponse_mqtt_handler_pub+0xbc>
102e2350:	e12fff35 	blx	r5
102e2354:	e2504000 	subs	r4, r0, #0
102e2358:	13e00000 	mvnne	r0, #0
102e235c:	1afffff6 	bne	102e233c <ATResponse_mqtt_handler_pub+0x50>
102e2360:	e1a00007 	mov	r0, r7
102e2364:	e1a01006 	mov	r1, r6
102e2368:	e59f203c 	ldr	r2, [pc, #60]	; 102e23ac <ATResponse_mqtt_handler_pub+0xc0>
102e236c:	e12fff35 	blx	r5
102e2370:	e3500000 	cmp	r0, #0
102e2374:	11a00004 	movne	r0, r4
102e2378:	1affffef 	bne	102e233c <ATResponse_mqtt_handler_pub+0x50>
102e237c:	e1a00007 	mov	r0, r7
102e2380:	e1a01006 	mov	r1, r6
102e2384:	e59f2024 	ldr	r2, [pc, #36]	; 102e23b0 <ATResponse_mqtt_handler_pub+0xc4>
102e2388:	e12fff35 	blx	r5
102e238c:	e3500000 	cmp	r0, #0
102e2390:	03a00001 	moveq	r0, #1
102e2394:	13e00000 	mvnne	r0, #0
102e2398:	eaffffe7 	b	102e233c <ATResponse_mqtt_handler_pub+0x50>
102e239c:	102e1e04 	.word	0x102e1e04
102e23a0:	102e8ad8 	.word	0x102e8ad8
102e23a4:	102e63b8 	.word	0x102e63b8
102e23a8:	102e7f30 	.word	0x102e7f30
102e23ac:	102e87c4 	.word	0x102e87c4
102e23b0:	102e7f44 	.word	0x102e7f44

102e23b4 <proc_handle.isra.1>:
102e23b4:	e92d45f8 	push	{r3, r4, r5, r6, r7, r8, sl, lr}
102e23b8:	e59f1268 	ldr	r1, [pc, #616]	; 102e2628 <proc_handle.isra.1+0x274>
102e23bc:	e59f4268 	ldr	r4, [pc, #616]	; 102e262c <proc_handle.isra.1+0x278>
102e23c0:	e1a05000 	mov	r5, r0
102e23c4:	e12fff34 	blx	r4
102e23c8:	e2506000 	subs	r6, r0, #0
102e23cc:	0a00006d 	beq	102e2588 <proc_handle.isra.1+0x1d4>
102e23d0:	e59f6258 	ldr	r6, [pc, #600]	; 102e2630 <proc_handle.isra.1+0x27c>
102e23d4:	e3a01000 	mov	r1, #0
102e23d8:	e3a0200a 	mov	r2, #10
102e23dc:	e1a00006 	mov	r0, r6
102e23e0:	e59f424c 	ldr	r4, [pc, #588]	; 102e2634 <proc_handle.isra.1+0x280>
102e23e4:	e12fff34 	blx	r4
102e23e8:	e59f7248 	ldr	r7, [pc, #584]	; 102e2638 <proc_handle.isra.1+0x284>
102e23ec:	e1a00005 	mov	r0, r5
102e23f0:	e3a01001 	mov	r1, #1
102e23f4:	e3a0203e 	mov	r2, #62	; 0x3e
102e23f8:	e1a03006 	mov	r3, r6
102e23fc:	e12fff37 	blx	r7
102e2400:	e2508000 	subs	r8, r0, #0
102e2404:	1a00004b 	bne	102e2538 <proc_handle.isra.1+0x184>
102e2408:	e1a01008 	mov	r1, r8
102e240c:	e3a0200a 	mov	r2, #10
102e2410:	e59f0224 	ldr	r0, [pc, #548]	; 102e263c <proc_handle.isra.1+0x288>
102e2414:	e12fff34 	blx	r4
102e2418:	e1a00005 	mov	r0, r5
102e241c:	e3a01002 	mov	r1, #2
102e2420:	e3a0203e 	mov	r2, #62	; 0x3e
102e2424:	e59f3210 	ldr	r3, [pc, #528]	; 102e263c <proc_handle.isra.1+0x288>
102e2428:	e12fff37 	blx	r7
102e242c:	e250a000 	subs	sl, r0, #0
102e2430:	1a00002e 	bne	102e24f0 <proc_handle.isra.1+0x13c>
102e2434:	e1a0100a 	mov	r1, sl
102e2438:	e3a0200a 	mov	r2, #10
102e243c:	e59f01fc 	ldr	r0, [pc, #508]	; 102e2640 <proc_handle.isra.1+0x28c>
102e2440:	e12fff34 	blx	r4
102e2444:	e1a00005 	mov	r0, r5
102e2448:	e3a01003 	mov	r1, #3
102e244c:	e3a0203e 	mov	r2, #62	; 0x3e
102e2450:	e59f31e8 	ldr	r3, [pc, #488]	; 102e2640 <proc_handle.isra.1+0x28c>
102e2454:	e12fff37 	blx	r7
102e2458:	e2508000 	subs	r8, r0, #0
102e245c:	1a00003f 	bne	102e2560 <proc_handle.isra.1+0x1ac>
102e2460:	e59f51dc 	ldr	r5, [pc, #476]	; 102e2644 <proc_handle.isra.1+0x290>
102e2464:	e1a01006 	mov	r1, r6
102e2468:	e59f01d8 	ldr	r0, [pc, #472]	; 102e2648 <proc_handle.isra.1+0x294>
102e246c:	e12fff35 	blx	r5
102e2470:	e59f01d4 	ldr	r0, [pc, #468]	; 102e264c <proc_handle.isra.1+0x298>
102e2474:	e59f71d4 	ldr	r7, [pc, #468]	; 102e2650 <proc_handle.isra.1+0x29c>
102e2478:	e24010a4 	sub	r1, r0, #164	; 0xa4
102e247c:	e12fff35 	blx	r5
102e2480:	e59f01cc 	ldr	r0, [pc, #460]	; 102e2654 <proc_handle.isra.1+0x2a0>
102e2484:	e24010a4 	sub	r1, r0, #164	; 0xa4
102e2488:	e12fff35 	blx	r5
102e248c:	e3a0000d 	mov	r0, #13
102e2490:	e59f11b0 	ldr	r1, [pc, #432]	; 102e2648 <proc_handle.isra.1+0x294>
102e2494:	e3a020b0 	mov	r2, #176	; 0xb0
102e2498:	e12fff37 	blx	r7
102e249c:	e2505000 	subs	r5, r0, #0
102e24a0:	1a00004d 	bne	102e25dc <proc_handle.isra.1+0x228>
102e24a4:	e3a00001 	mov	r0, #1
102e24a8:	e3a03030 	mov	r3, #48	; 0x30
102e24ac:	e59f11a4 	ldr	r1, [pc, #420]	; 102e2658 <proc_handle.isra.1+0x2a4>
102e24b0:	e1a02000 	mov	r2, r0
102e24b4:	e5c63064 	strb	r3, [r6, #100]	; 0x64
102e24b8:	e12fff37 	blx	r7
102e24bc:	e2505000 	subs	r5, r0, #0
102e24c0:	08bd85f8 	popeq	{r3, r4, r5, r6, r7, r8, sl, pc}
102e24c4:	e3a01000 	mov	r1, #0
102e24c8:	e3a02b01 	mov	r2, #1024	; 0x400
102e24cc:	e59f0188 	ldr	r0, [pc, #392]	; 102e265c <proc_handle.isra.1+0x2a8>
102e24d0:	e12fff34 	blx	r4
102e24d4:	e59f3184 	ldr	r3, [pc, #388]	; 102e2660 <proc_handle.isra.1+0x2ac>
102e24d8:	e1a02005 	mov	r2, r5
102e24dc:	e59f1180 	ldr	r1, [pc, #384]	; 102e2664 <proc_handle.isra.1+0x2b0>
102e24e0:	e5933000 	ldr	r3, [r3]
102e24e4:	e59f0170 	ldr	r0, [pc, #368]	; 102e265c <proc_handle.isra.1+0x2a8>
102e24e8:	e12fff33 	blx	r3
102e24ec:	ea000008 	b	102e2514 <proc_handle.isra.1+0x160>
102e24f0:	e1a01008 	mov	r1, r8
102e24f4:	e3a02b01 	mov	r2, #1024	; 0x400
102e24f8:	e59f015c 	ldr	r0, [pc, #348]	; 102e265c <proc_handle.isra.1+0x2a8>
102e24fc:	e12fff34 	blx	r4
102e2500:	e59f3158 	ldr	r3, [pc, #344]	; 102e2660 <proc_handle.isra.1+0x2ac>
102e2504:	e59f115c 	ldr	r1, [pc, #348]	; 102e2668 <proc_handle.isra.1+0x2b4>
102e2508:	e5933000 	ldr	r3, [r3]
102e250c:	e59f0148 	ldr	r0, [pc, #328]	; 102e265c <proc_handle.isra.1+0x2a8>
102e2510:	e12fff33 	blx	r3
102e2514:	e59f3150 	ldr	r3, [pc, #336]	; 102e266c <proc_handle.isra.1+0x2b8>
102e2518:	e59f013c 	ldr	r0, [pc, #316]	; 102e265c <proc_handle.isra.1+0x2a8>
102e251c:	e12fff33 	blx	r3
102e2520:	e59f1134 	ldr	r1, [pc, #308]	; 102e265c <proc_handle.isra.1+0x2a8>
102e2524:	e59f3144 	ldr	r3, [pc, #324]	; 102e2670 <proc_handle.isra.1+0x2bc>
102e2528:	e1a02000 	mov	r2, r0
102e252c:	e3a0000a 	mov	r0, #10
102e2530:	e12fff33 	blx	r3
102e2534:	e8bd85f8 	pop	{r3, r4, r5, r6, r7, r8, sl, pc}
102e2538:	e3a02b01 	mov	r2, #1024	; 0x400
102e253c:	e3a01000 	mov	r1, #0
102e2540:	e59f0114 	ldr	r0, [pc, #276]	; 102e265c <proc_handle.isra.1+0x2a8>
102e2544:	e12fff34 	blx	r4
102e2548:	e59f3110 	ldr	r3, [pc, #272]	; 102e2660 <proc_handle.isra.1+0x2ac>
102e254c:	e59f1120 	ldr	r1, [pc, #288]	; 102e2674 <proc_handle.isra.1+0x2c0>
102e2550:	e5933000 	ldr	r3, [r3]
102e2554:	e59f0100 	ldr	r0, [pc, #256]	; 102e265c <proc_handle.isra.1+0x2a8>
102e2558:	e12fff33 	blx	r3
102e255c:	eaffffec 	b	102e2514 <proc_handle.isra.1+0x160>
102e2560:	e1a0100a 	mov	r1, sl
102e2564:	e3a02b01 	mov	r2, #1024	; 0x400
102e2568:	e59f00ec 	ldr	r0, [pc, #236]	; 102e265c <proc_handle.isra.1+0x2a8>
102e256c:	e12fff34 	blx	r4
102e2570:	e59f30e8 	ldr	r3, [pc, #232]	; 102e2660 <proc_handle.isra.1+0x2ac>
102e2574:	e59f10fc 	ldr	r1, [pc, #252]	; 102e2678 <proc_handle.isra.1+0x2c4>
102e2578:	e5933000 	ldr	r3, [r3]
102e257c:	e59f00d8 	ldr	r0, [pc, #216]	; 102e265c <proc_handle.isra.1+0x2a8>
102e2580:	e12fff33 	blx	r3
102e2584:	eaffffe2 	b	102e2514 <proc_handle.isra.1+0x160>
102e2588:	e1a00005 	mov	r0, r5
102e258c:	e59f10e8 	ldr	r1, [pc, #232]	; 102e267c <proc_handle.isra.1+0x2c8>
102e2590:	e12fff34 	blx	r4
102e2594:	e3500000 	cmp	r0, #0
102e2598:	0a000002 	beq	102e25a8 <proc_handle.isra.1+0x1f4>
102e259c:	e1a00006 	mov	r0, r6
102e25a0:	e59f30d8 	ldr	r3, [pc, #216]	; 102e2680 <proc_handle.isra.1+0x2cc>
102e25a4:	e12fff33 	blx	r3
102e25a8:	e59f40ac 	ldr	r4, [pc, #172]	; 102e265c <proc_handle.isra.1+0x2a8>
102e25ac:	e59f30d0 	ldr	r3, [pc, #208]	; 102e2684 <proc_handle.isra.1+0x2d0>
102e25b0:	e5940cf4 	ldr	r0, [r4, #3316]	; 0xcf4
102e25b4:	e1a01005 	mov	r1, r5
102e25b8:	e0830000 	add	r0, r3, r0
102e25bc:	e58434f0 	str	r3, [r4, #1264]	; 0x4f0
102e25c0:	e59f307c 	ldr	r3, [pc, #124]	; 102e2644 <proc_handle.isra.1+0x290>
102e25c4:	e12fff33 	blx	r3
102e25c8:	e59404f0 	ldr	r0, [r4, #1264]	; 0x4f0
102e25cc:	e59f3098 	ldr	r3, [pc, #152]	; 102e266c <proc_handle.isra.1+0x2b8>
102e25d0:	e12fff33 	blx	r3
102e25d4:	e5840cf4 	str	r0, [r4, #3316]	; 0xcf4
102e25d8:	e8bd85f8 	pop	{r3, r4, r5, r6, r7, r8, sl, pc}
102e25dc:	e1a01008 	mov	r1, r8
102e25e0:	e3a02b01 	mov	r2, #1024	; 0x400
102e25e4:	e59f0070 	ldr	r0, [pc, #112]	; 102e265c <proc_handle.isra.1+0x2a8>
102e25e8:	e12fff34 	blx	r4
102e25ec:	e59f306c 	ldr	r3, [pc, #108]	; 102e2660 <proc_handle.isra.1+0x2ac>
102e25f0:	e1a02005 	mov	r2, r5
102e25f4:	e59f1068 	ldr	r1, [pc, #104]	; 102e2664 <proc_handle.isra.1+0x2b0>
102e25f8:	e5933000 	ldr	r3, [r3]
102e25fc:	e59f0058 	ldr	r0, [pc, #88]	; 102e265c <proc_handle.isra.1+0x2a8>
102e2600:	e12fff33 	blx	r3
102e2604:	e59f3060 	ldr	r3, [pc, #96]	; 102e266c <proc_handle.isra.1+0x2b8>
102e2608:	e59f004c 	ldr	r0, [pc, #76]	; 102e265c <proc_handle.isra.1+0x2a8>
102e260c:	e12fff33 	blx	r3
102e2610:	e59f1044 	ldr	r1, [pc, #68]	; 102e265c <proc_handle.isra.1+0x2a8>
102e2614:	e59f3054 	ldr	r3, [pc, #84]	; 102e2670 <proc_handle.isra.1+0x2bc>
102e2618:	e1a02000 	mov	r2, r0
102e261c:	e3a0000a 	mov	r0, #10
102e2620:	e12fff33 	blx	r3
102e2624:	eaffff9e 	b	102e24a4 <proc_handle.isra.1+0xf0>
102e2628:	102e8adc 	.word	0x102e8adc
102e262c:	102e6884 	.word	0x102e6884
102e2630:	f03d2024 	.word	0xf03d2024
102e2634:	102e6774 	.word	0x102e6774
102e2638:	102e2164 	.word	0x102e2164
102e263c:	f03d3e84 	.word	0xf03d3e84
102e2640:	f03d3ea4 	.word	0xf03d3ea4
102e2644:	102e6474 	.word	0x102e6474
102e2648:	f03d3ec4 	.word	0xf03d3ec4
102e264c:	f03d3f28 	.word	0xf03d3f28
102e2650:	102e0c34 	.word	0x102e0c34
102e2654:	f03d3f48 	.word	0xf03d3f48
102e2658:	f03d2088 	.word	0xf03d2088
102e265c:	f03d3a84 	.word	0xf03d3a84
102e2660:	f03d6720 	.word	0xf03d6720
102e2664:	102e8b5c 	.word	0x102e8b5c
102e2668:	102e8b0c 	.word	0x102e8b0c
102e266c:	102e6624 	.word	0x102e6624
102e2670:	102e6ff4 	.word	0x102e6ff4
102e2674:	102e8aec 	.word	0x102e8aec
102e2678:	102e8b34 	.word	0x102e8b34
102e267c:	102e8b8c 	.word	0x102e8b8c
102e2680:	102e6a04 	.word	0x102e6a04
102e2684:	f03d3f78 	.word	0xf03d3f78

102e2688 <BT_Callback>:
102e2688:	e2400001 	sub	r0, r0, #1
102e268c:	e92d4ff0 	push	{r4, r5, r6, r7, r8, r9, sl, fp, lr}
102e2690:	e1a04001 	mov	r4, r1
102e2694:	e24dd014 	sub	sp, sp, #20
102e2698:	e1a05002 	mov	r5, r2
102e269c:	e3500007 	cmp	r0, #7
102e26a0:	979ff100 	ldrls	pc, [pc, r0, lsl #2]
102e26a4:	ea00001b 	b	102e2718 <BT_Callback+0x90>
102e26a8:	102e2a10 	.word	0x102e2a10
102e26ac:	102e2720 	.word	0x102e2720
102e26b0:	102e2a5c 	.word	0x102e2a5c
102e26b4:	102e2a80 	.word	0x102e2a80
102e26b8:	102e2720 	.word	0x102e2720
102e26bc:	102e2860 	.word	0x102e2860
102e26c0:	102e29e8 	.word	0x102e29e8
102e26c4:	102e26c8 	.word	0x102e26c8
102e26c8:	e3510008 	cmp	r1, #8
102e26cc:	0a000178 	beq	102e2cb4 <BT_Callback+0x62c>
102e26d0:	e3a01000 	mov	r1, #0
102e26d4:	e3a02b01 	mov	r2, #1024	; 0x400
102e26d8:	e59f069c 	ldr	r0, [pc, #1692]	; 102e2d7c <BT_Callback+0x6f4>
102e26dc:	e59f369c 	ldr	r3, [pc, #1692]	; 102e2d80 <BT_Callback+0x6f8>
102e26e0:	e12fff33 	blx	r3
102e26e4:	e59f1698 	ldr	r1, [pc, #1688]	; 102e2d84 <BT_Callback+0x6fc>
102e26e8:	e59f3698 	ldr	r3, [pc, #1688]	; 102e2d88 <BT_Callback+0x700>
102e26ec:	e59f0688 	ldr	r0, [pc, #1672]	; 102e2d7c <BT_Callback+0x6f4>
102e26f0:	e5933000 	ldr	r3, [r3]
102e26f4:	e12fff33 	blx	r3
102e26f8:	e59f368c 	ldr	r3, [pc, #1676]	; 102e2d8c <BT_Callback+0x704>
102e26fc:	e59f0678 	ldr	r0, [pc, #1656]	; 102e2d7c <BT_Callback+0x6f4>
102e2700:	e12fff33 	blx	r3
102e2704:	e59f1670 	ldr	r1, [pc, #1648]	; 102e2d7c <BT_Callback+0x6f4>
102e2708:	e59f3680 	ldr	r3, [pc, #1664]	; 102e2d90 <BT_Callback+0x708>
102e270c:	e1a02000 	mov	r2, r0
102e2710:	e3a0000a 	mov	r0, #10
102e2714:	e12fff33 	blx	r3
102e2718:	e28dd014 	add	sp, sp, #20
102e271c:	e8bd8ff0 	pop	{r4, r5, r6, r7, r8, r9, sl, fp, pc}
102e2720:	e3510004 	cmp	r1, #4
102e2724:	0a000128 	beq	102e2bcc <BT_Callback+0x544>
102e2728:	e3510005 	cmp	r1, #5
102e272c:	1afffff9 	bne	102e2718 <BT_Callback+0x90>
102e2730:	e59f4644 	ldr	r4, [pc, #1604]	; 102e2d7c <BT_Callback+0x6f4>
102e2734:	e3a06000 	mov	r6, #0
102e2738:	e59f9648 	ldr	r9, [pc, #1608]	; 102e2d88 <BT_Callback+0x700>
102e273c:	e1a01003 	mov	r1, r3
102e2740:	e3a02007 	mov	r2, #7
102e2744:	e59f3648 	ldr	r3, [pc, #1608]	; 102e2d94 <BT_Callback+0x70c>
102e2748:	e59f0648 	ldr	r0, [pc, #1608]	; 102e2d98 <BT_Callback+0x710>
102e274c:	e12fff33 	blx	r3
102e2750:	e59fa628 	ldr	sl, [pc, #1576]	; 102e2d80 <BT_Callback+0x6f8>
102e2754:	e1a01006 	mov	r1, r6
102e2758:	e1a00004 	mov	r0, r4
102e275c:	e3a02b01 	mov	r2, #1024	; 0x400
102e2760:	e5c46d02 	strb	r6, [r4, #3330]	; 0xd02
102e2764:	e12fff3a 	blx	sl
102e2768:	e5993000 	ldr	r3, [r9]
102e276c:	e495203c 	ldr	r2, [r5], #60	; 0x3c
102e2770:	e59f1624 	ldr	r1, [pc, #1572]	; 102e2d9c <BT_Callback+0x714>
102e2774:	e1a00004 	mov	r0, r4
102e2778:	e12fff33 	blx	r3
102e277c:	e59f8608 	ldr	r8, [pc, #1544]	; 102e2d8c <BT_Callback+0x704>
102e2780:	e1a00004 	mov	r0, r4
102e2784:	e12fff38 	blx	r8
102e2788:	e59f7600 	ldr	r7, [pc, #1536]	; 102e2d90 <BT_Callback+0x708>
102e278c:	e1a01004 	mov	r1, r4
102e2790:	e1a02000 	mov	r2, r0
102e2794:	e3a0000a 	mov	r0, #10
102e2798:	e12fff37 	blx	r7
102e279c:	e1a01006 	mov	r1, r6
102e27a0:	e1a00004 	mov	r0, r4
102e27a4:	e3a02b01 	mov	r2, #1024	; 0x400
102e27a8:	e12fff3a 	blx	sl
102e27ac:	e5993000 	ldr	r3, [r9]
102e27b0:	e1a02005 	mov	r2, r5
102e27b4:	e59f15e4 	ldr	r1, [pc, #1508]	; 102e2da0 <BT_Callback+0x718>
102e27b8:	e1a00004 	mov	r0, r4
102e27bc:	e12fff33 	blx	r3
102e27c0:	e1a00004 	mov	r0, r4
102e27c4:	e12fff38 	blx	r8
102e27c8:	e1a01004 	mov	r1, r4
102e27cc:	e1a02000 	mov	r2, r0
102e27d0:	e3a0000a 	mov	r0, #10
102e27d4:	e12fff37 	blx	r7
102e27d8:	e1a01006 	mov	r1, r6
102e27dc:	e1a00004 	mov	r0, r4
102e27e0:	e3a02b01 	mov	r2, #1024	; 0x400
102e27e4:	e12fff3a 	blx	sl
102e27e8:	e5993000 	ldr	r3, [r9]
102e27ec:	e59f15b0 	ldr	r1, [pc, #1456]	; 102e2da4 <BT_Callback+0x71c>
102e27f0:	e59f25a0 	ldr	r2, [pc, #1440]	; 102e2d98 <BT_Callback+0x710>
102e27f4:	e1a00004 	mov	r0, r4
102e27f8:	e12fff33 	blx	r3
102e27fc:	e1a00004 	mov	r0, r4
102e2800:	e12fff38 	blx	r8
102e2804:	e1a01004 	mov	r1, r4
102e2808:	e1a02000 	mov	r2, r0
102e280c:	e3a0000a 	mov	r0, #10
102e2810:	e12fff37 	blx	r7
102e2814:	e3a02b01 	mov	r2, #1024	; 0x400
102e2818:	e1a01006 	mov	r1, r6
102e281c:	e1a00004 	mov	r0, r4
102e2820:	e12fff3a 	blx	sl
102e2824:	e5993000 	ldr	r3, [r9]
102e2828:	e59f1578 	ldr	r1, [pc, #1400]	; 102e2da8 <BT_Callback+0x720>
102e282c:	e1a00004 	mov	r0, r4
102e2830:	e12fff33 	blx	r3
102e2834:	e1a00004 	mov	r0, r4
102e2838:	e12fff38 	blx	r8
102e283c:	e1a01004 	mov	r1, r4
102e2840:	e1a02000 	mov	r2, r0
102e2844:	e3a0000a 	mov	r0, #10
102e2848:	e12fff37 	blx	r7
102e284c:	e1a01006 	mov	r1, r6
102e2850:	e59f3554 	ldr	r3, [pc, #1364]	; 102e2dac <BT_Callback+0x724>
102e2854:	e3a00001 	mov	r0, #1
102e2858:	e12fff33 	blx	r3
102e285c:	eaffffad 	b	102e2718 <BT_Callback+0x90>
102e2860:	e59f8520 	ldr	r8, [pc, #1312]	; 102e2d88 <BT_Callback+0x700>
102e2864:	e59fa514 	ldr	sl, [pc, #1300]	; 102e2d80 <BT_Callback+0x6f8>
102e2868:	e3a02b01 	mov	r2, #1024	; 0x400
102e286c:	e3a01000 	mov	r1, #0
102e2870:	e59f0504 	ldr	r0, [pc, #1284]	; 102e2d7c <BT_Callback+0x6f4>
102e2874:	e12fff3a 	blx	sl
102e2878:	e5983000 	ldr	r3, [r8]
102e287c:	e59f152c 	ldr	r1, [pc, #1324]	; 102e2db0 <BT_Callback+0x728>
102e2880:	e59f04f4 	ldr	r0, [pc, #1268]	; 102e2d7c <BT_Callback+0x6f4>
102e2884:	e12fff33 	blx	r3
102e2888:	e59f74fc 	ldr	r7, [pc, #1276]	; 102e2d8c <BT_Callback+0x704>
102e288c:	e59f04e8 	ldr	r0, [pc, #1256]	; 102e2d7c <BT_Callback+0x6f4>
102e2890:	e12fff37 	blx	r7
102e2894:	e59f64f4 	ldr	r6, [pc, #1268]	; 102e2d90 <BT_Callback+0x708>
102e2898:	e59f14dc 	ldr	r1, [pc, #1244]	; 102e2d7c <BT_Callback+0x6f4>
102e289c:	e1a09005 	mov	r9, r5
102e28a0:	e1a02000 	mov	r2, r0
102e28a4:	e3a0000a 	mov	r0, #10
102e28a8:	e12fff36 	blx	r6
102e28ac:	e3a01000 	mov	r1, #0
102e28b0:	e3a02b01 	mov	r2, #1024	; 0x400
102e28b4:	e59f04c0 	ldr	r0, [pc, #1216]	; 102e2d7c <BT_Callback+0x6f4>
102e28b8:	e12fff3a 	blx	sl
102e28bc:	e5983000 	ldr	r3, [r8]
102e28c0:	e499203c 	ldr	r2, [r9], #60	; 0x3c
102e28c4:	e59f14e8 	ldr	r1, [pc, #1256]	; 102e2db4 <BT_Callback+0x72c>
102e28c8:	e59f04ac 	ldr	r0, [pc, #1196]	; 102e2d7c <BT_Callback+0x6f4>
102e28cc:	e12fff33 	blx	r3
102e28d0:	e59f04a4 	ldr	r0, [pc, #1188]	; 102e2d7c <BT_Callback+0x6f4>
102e28d4:	e12fff37 	blx	r7
102e28d8:	e59f149c 	ldr	r1, [pc, #1180]	; 102e2d7c <BT_Callback+0x6f4>
102e28dc:	e1a02000 	mov	r2, r0
102e28e0:	e3a0000a 	mov	r0, #10
102e28e4:	e12fff36 	blx	r6
102e28e8:	e3a01000 	mov	r1, #0
102e28ec:	e3a02b01 	mov	r2, #1024	; 0x400
102e28f0:	e59f0484 	ldr	r0, [pc, #1156]	; 102e2d7c <BT_Callback+0x6f4>
102e28f4:	e12fff3a 	blx	sl
102e28f8:	e5983000 	ldr	r3, [r8]
102e28fc:	e59f14b4 	ldr	r1, [pc, #1204]	; 102e2db8 <BT_Callback+0x730>
102e2900:	e1a02009 	mov	r2, r9
102e2904:	e59f0470 	ldr	r0, [pc, #1136]	; 102e2d7c <BT_Callback+0x6f4>
102e2908:	e12fff33 	blx	r3
102e290c:	e59f0468 	ldr	r0, [pc, #1128]	; 102e2d7c <BT_Callback+0x6f4>
102e2910:	e12fff37 	blx	r7
102e2914:	e59f1460 	ldr	r1, [pc, #1120]	; 102e2d7c <BT_Callback+0x6f4>
102e2918:	e1a02000 	mov	r2, r0
102e291c:	e3a0000a 	mov	r0, #10
102e2920:	e12fff36 	blx	r6
102e2924:	e3a01000 	mov	r1, #0
102e2928:	e3a02b01 	mov	r2, #1024	; 0x400
102e292c:	e59f0448 	ldr	r0, [pc, #1096]	; 102e2d7c <BT_Callback+0x6f4>
102e2930:	e12fff3a 	blx	sl
102e2934:	e5983000 	ldr	r3, [r8]
102e2938:	e59f147c 	ldr	r1, [pc, #1148]	; 102e2dbc <BT_Callback+0x734>
102e293c:	e2852004 	add	r2, r5, #4
102e2940:	e59f0434 	ldr	r0, [pc, #1076]	; 102e2d7c <BT_Callback+0x6f4>
102e2944:	e12fff33 	blx	r3
102e2948:	e59f042c 	ldr	r0, [pc, #1068]	; 102e2d7c <BT_Callback+0x6f4>
102e294c:	e12fff37 	blx	r7
102e2950:	e59f1424 	ldr	r1, [pc, #1060]	; 102e2d7c <BT_Callback+0x6f4>
102e2954:	e1a02000 	mov	r2, r0
102e2958:	e3a0000a 	mov	r0, #10
102e295c:	e12fff36 	blx	r6
102e2960:	e3a02b01 	mov	r2, #1024	; 0x400
102e2964:	e3a01000 	mov	r1, #0
102e2968:	e59f040c 	ldr	r0, [pc, #1036]	; 102e2d7c <BT_Callback+0x6f4>
102e296c:	e12fff3a 	blx	sl
102e2970:	e5983000 	ldr	r3, [r8]
102e2974:	e59f1444 	ldr	r1, [pc, #1092]	; 102e2dc0 <BT_Callback+0x738>
102e2978:	e59f03fc 	ldr	r0, [pc, #1020]	; 102e2d7c <BT_Callback+0x6f4>
102e297c:	e12fff33 	blx	r3
102e2980:	e59f03f4 	ldr	r0, [pc, #1012]	; 102e2d7c <BT_Callback+0x6f4>
102e2984:	e12fff37 	blx	r7
102e2988:	e59f13ec 	ldr	r1, [pc, #1004]	; 102e2d7c <BT_Callback+0x6f4>
102e298c:	e1a02000 	mov	r2, r0
102e2990:	e3a0000a 	mov	r0, #10
102e2994:	e12fff36 	blx	r6
102e2998:	e3a00001 	mov	r0, #1
102e299c:	e1a01000 	mov	r1, r0
102e29a0:	e59f341c 	ldr	r3, [pc, #1052]	; 102e2dc4 <BT_Callback+0x73c>
102e29a4:	e12fff33 	blx	r3
102e29a8:	e3a02b01 	mov	r2, #1024	; 0x400
102e29ac:	e2501000 	subs	r1, r0, #0
102e29b0:	0a00006d 	beq	102e2b6c <BT_Callback+0x4e4>
102e29b4:	e3a01000 	mov	r1, #0
102e29b8:	e59f03bc 	ldr	r0, [pc, #956]	; 102e2d7c <BT_Callback+0x6f4>
102e29bc:	e12fff3a 	blx	sl
102e29c0:	e59f1400 	ldr	r1, [pc, #1024]	; 102e2dc8 <BT_Callback+0x740>
102e29c4:	e5983000 	ldr	r3, [r8]
102e29c8:	e59f03ac 	ldr	r0, [pc, #940]	; 102e2d7c <BT_Callback+0x6f4>
102e29cc:	e12fff33 	blx	r3
102e29d0:	e59f03a4 	ldr	r0, [pc, #932]	; 102e2d7c <BT_Callback+0x6f4>
102e29d4:	e12fff37 	blx	r7
102e29d8:	e59f139c 	ldr	r1, [pc, #924]	; 102e2d7c <BT_Callback+0x6f4>
102e29dc:	e1a02000 	mov	r2, r0
102e29e0:	e3a0000a 	mov	r0, #10
102e29e4:	e12fff36 	blx	r6
102e29e8:	e244400b 	sub	r4, r4, #11
102e29ec:	e3540001 	cmp	r4, #1
102e29f0:	8affff48 	bhi	102e2718 <BT_Callback+0x90>
102e29f4:	e3a01000 	mov	r1, #0
102e29f8:	e3a02b01 	mov	r2, #1024	; 0x400
102e29fc:	e59f0378 	ldr	r0, [pc, #888]	; 102e2d7c <BT_Callback+0x6f4>
102e2a00:	e59f3378 	ldr	r3, [pc, #888]	; 102e2d80 <BT_Callback+0x6f8>
102e2a04:	e12fff33 	blx	r3
102e2a08:	e59f13bc 	ldr	r1, [pc, #956]	; 102e2dcc <BT_Callback+0x744>
102e2a0c:	eaffff35 	b	102e26e8 <BT_Callback+0x60>
102e2a10:	e3510002 	cmp	r1, #2
102e2a14:	0a0000b2 	beq	102e2ce4 <BT_Callback+0x65c>
102e2a18:	e3510003 	cmp	r1, #3
102e2a1c:	1affff3d 	bne	102e2718 <BT_Callback+0x90>
102e2a20:	e3a01000 	mov	r1, #0
102e2a24:	e3a02b01 	mov	r2, #1024	; 0x400
102e2a28:	e59f3350 	ldr	r3, [pc, #848]	; 102e2d80 <BT_Callback+0x6f8>
102e2a2c:	e59f0348 	ldr	r0, [pc, #840]	; 102e2d7c <BT_Callback+0x6f4>
102e2a30:	e12fff33 	blx	r3
102e2a34:	e59f034c 	ldr	r0, [pc, #844]	; 102e2d88 <BT_Callback+0x700>
102e2a38:	e1a03005 	mov	r3, r5
102e2a3c:	e2855004 	add	r5, r5, #4
102e2a40:	e493203c 	ldr	r2, [r3], #60	; 0x3c
102e2a44:	e59f1384 	ldr	r1, [pc, #900]	; 102e2dd0 <BT_Callback+0x748>
102e2a48:	e58d5000 	str	r5, [sp]
102e2a4c:	e590c000 	ldr	ip, [r0]
102e2a50:	e59f0324 	ldr	r0, [pc, #804]	; 102e2d7c <BT_Callback+0x6f4>
102e2a54:	e12fff3c 	blx	ip
102e2a58:	eaffff26 	b	102e26f8 <BT_Callback+0x70>
102e2a5c:	e3540006 	cmp	r4, #6
102e2a60:	e3a02b01 	mov	r2, #1024	; 0x400
102e2a64:	e3a01000 	mov	r1, #0
102e2a68:	e59f030c 	ldr	r0, [pc, #780]	; 102e2d7c <BT_Callback+0x6f4>
102e2a6c:	e59f330c 	ldr	r3, [pc, #780]	; 102e2d80 <BT_Callback+0x6f8>
102e2a70:	0a00008c 	beq	102e2ca8 <BT_Callback+0x620>
102e2a74:	e12fff33 	blx	r3
102e2a78:	e59f1354 	ldr	r1, [pc, #852]	; 102e2dd4 <BT_Callback+0x74c>
102e2a7c:	eaffff19 	b	102e26e8 <BT_Callback+0x60>
102e2a80:	e59f42f4 	ldr	r4, [pc, #756]	; 102e2d7c <BT_Callback+0x6f4>
102e2a84:	e1a01003 	mov	r1, r3
102e2a88:	e3a0204c 	mov	r2, #76	; 0x4c
102e2a8c:	e59f3344 	ldr	r3, [pc, #836]	; 102e2dd8 <BT_Callback+0x750>
102e2a90:	e59f0344 	ldr	r0, [pc, #836]	; 102e2ddc <BT_Callback+0x754>
102e2a94:	e59f92ec 	ldr	r9, [pc, #748]	; 102e2d88 <BT_Callback+0x700>
102e2a98:	e12fff33 	blx	r3
102e2a9c:	e59f52dc 	ldr	r5, [pc, #732]	; 102e2d80 <BT_Callback+0x6f8>
102e2aa0:	e3a01000 	mov	r1, #0
102e2aa4:	e3a02b01 	mov	r2, #1024	; 0x400
102e2aa8:	e1a00004 	mov	r0, r4
102e2aac:	e12fff35 	blx	r5
102e2ab0:	e5993000 	ldr	r3, [r9]
102e2ab4:	e59f1324 	ldr	r1, [pc, #804]	; 102e2de0 <BT_Callback+0x758>
102e2ab8:	e5942d64 	ldr	r2, [r4, #3428]	; 0xd64
102e2abc:	e1a00004 	mov	r0, r4
102e2ac0:	e12fff33 	blx	r3
102e2ac4:	e59fa2c0 	ldr	sl, [pc, #704]	; 102e2d8c <BT_Callback+0x704>
102e2ac8:	e1a00004 	mov	r0, r4
102e2acc:	e12fff3a 	blx	sl
102e2ad0:	e3a06000 	mov	r6, #0
102e2ad4:	e1a01004 	mov	r1, r4
102e2ad8:	e59f82b0 	ldr	r8, [pc, #688]	; 102e2d90 <BT_Callback+0x708>
102e2adc:	e2847edb 	add	r7, r4, #3504	; 0xdb0
102e2ae0:	e1a02000 	mov	r2, r0
102e2ae4:	e3a0000a 	mov	r0, #10
102e2ae8:	e12fff38 	blx	r8
102e2aec:	e1a00007 	mov	r0, r7
102e2af0:	e1a01006 	mov	r1, r6
102e2af4:	e59f22e8 	ldr	r2, [pc, #744]	; 102e2de4 <BT_Callback+0x75c>
102e2af8:	e58d600c 	str	r6, [sp, #12]
102e2afc:	e12fff35 	blx	r5
102e2b00:	e5940d64 	ldr	r0, [r4, #3428]	; 0xd64
102e2b04:	e1500006 	cmp	r0, r6
102e2b08:	0a000060 	beq	102e2c90 <BT_Callback+0x608>
102e2b0c:	e1a01007 	mov	r1, r7
102e2b10:	e59f22cc 	ldr	r2, [pc, #716]	; 102e2de4 <BT_Callback+0x75c>
102e2b14:	e28d300c 	add	r3, sp, #12
102e2b18:	e59fc2c8 	ldr	ip, [pc, #712]	; 102e2de8 <BT_Callback+0x760>
102e2b1c:	e12fff3c 	blx	ip
102e2b20:	e250b000 	subs	fp, r0, #0
102e2b24:	1a00008a 	bne	102e2d54 <BT_Callback+0x6cc>
102e2b28:	e59d100c 	ldr	r1, [sp, #12]
102e2b2c:	e3510000 	cmp	r1, #0
102e2b30:	1a000011 	bne	102e2b7c <BT_Callback+0x4f4>
102e2b34:	e3a02b01 	mov	r2, #1024	; 0x400
102e2b38:	e1a00004 	mov	r0, r4
102e2b3c:	e12fff35 	blx	r5
102e2b40:	e59f12a4 	ldr	r1, [pc, #676]	; 102e2dec <BT_Callback+0x764>
102e2b44:	e5993000 	ldr	r3, [r9]
102e2b48:	e1a00004 	mov	r0, r4
102e2b4c:	e12fff33 	blx	r3
102e2b50:	e1a00004 	mov	r0, r4
102e2b54:	e12fff3a 	blx	sl
102e2b58:	e1a01004 	mov	r1, r4
102e2b5c:	e1a02000 	mov	r2, r0
102e2b60:	e3a0000a 	mov	r0, #10
102e2b64:	e12fff38 	blx	r8
102e2b68:	eafffeea 	b	102e2718 <BT_Callback+0x90>
102e2b6c:	e59f0208 	ldr	r0, [pc, #520]	; 102e2d7c <BT_Callback+0x6f4>
102e2b70:	e12fff3a 	blx	sl
102e2b74:	e59f1274 	ldr	r1, [pc, #628]	; 102e2df0 <BT_Callback+0x768>
102e2b78:	eaffff91 	b	102e29c4 <BT_Callback+0x33c>
102e2b7c:	e1a0100b 	mov	r1, fp
102e2b80:	e1a00004 	mov	r0, r4
102e2b84:	e3a02b01 	mov	r2, #1024	; 0x400
102e2b88:	e12fff35 	blx	r5
102e2b8c:	e5942d64 	ldr	r2, [r4, #3428]	; 0xd64
102e2b90:	e59d300c 	ldr	r3, [sp, #12]
102e2b94:	e59f1258 	ldr	r1, [pc, #600]	; 102e2df4 <BT_Callback+0x76c>
102e2b98:	e58d7000 	str	r7, [sp]
102e2b9c:	e1a00004 	mov	r0, r4
102e2ba0:	e599c000 	ldr	ip, [r9]
102e2ba4:	e12fff3c 	blx	ip
102e2ba8:	e1a00004 	mov	r0, r4
102e2bac:	e12fff3a 	blx	sl
102e2bb0:	e1a01004 	mov	r1, r4
102e2bb4:	e1a02000 	mov	r2, r0
102e2bb8:	e3a0000a 	mov	r0, #10
102e2bbc:	e12fff38 	blx	r8
102e2bc0:	e1a00007 	mov	r0, r7
102e2bc4:	ebfffdfa 	bl	102e23b4 <proc_handle.isra.1>
102e2bc8:	eafffed2 	b	102e2718 <BT_Callback+0x90>
102e2bcc:	e59f71b4 	ldr	r7, [pc, #436]	; 102e2d88 <BT_Callback+0x700>
102e2bd0:	e59f81a8 	ldr	r8, [pc, #424]	; 102e2d80 <BT_Callback+0x6f8>
102e2bd4:	e3a01000 	mov	r1, #0
102e2bd8:	e3a02b01 	mov	r2, #1024	; 0x400
102e2bdc:	e59f0198 	ldr	r0, [pc, #408]	; 102e2d7c <BT_Callback+0x6f4>
102e2be0:	e12fff38 	blx	r8
102e2be4:	e5973000 	ldr	r3, [r7]
102e2be8:	e495203c 	ldr	r2, [r5], #60	; 0x3c
102e2bec:	e59f11a8 	ldr	r1, [pc, #424]	; 102e2d9c <BT_Callback+0x714>
102e2bf0:	e59f0184 	ldr	r0, [pc, #388]	; 102e2d7c <BT_Callback+0x6f4>
102e2bf4:	e12fff33 	blx	r3
102e2bf8:	e59f618c 	ldr	r6, [pc, #396]	; 102e2d8c <BT_Callback+0x704>
102e2bfc:	e59f0178 	ldr	r0, [pc, #376]	; 102e2d7c <BT_Callback+0x6f4>
102e2c00:	e12fff36 	blx	r6
102e2c04:	e59f4184 	ldr	r4, [pc, #388]	; 102e2d90 <BT_Callback+0x708>
102e2c08:	e59f116c 	ldr	r1, [pc, #364]	; 102e2d7c <BT_Callback+0x6f4>
102e2c0c:	e1a02000 	mov	r2, r0
102e2c10:	e3a0000a 	mov	r0, #10
102e2c14:	e12fff34 	blx	r4
102e2c18:	e3a01000 	mov	r1, #0
102e2c1c:	e3a02b01 	mov	r2, #1024	; 0x400
102e2c20:	e59f0154 	ldr	r0, [pc, #340]	; 102e2d7c <BT_Callback+0x6f4>
102e2c24:	e12fff38 	blx	r8
102e2c28:	e5973000 	ldr	r3, [r7]
102e2c2c:	e1a02005 	mov	r2, r5
102e2c30:	e59f1168 	ldr	r1, [pc, #360]	; 102e2da0 <BT_Callback+0x718>
102e2c34:	e59f0140 	ldr	r0, [pc, #320]	; 102e2d7c <BT_Callback+0x6f4>
102e2c38:	e12fff33 	blx	r3
102e2c3c:	e59f0138 	ldr	r0, [pc, #312]	; 102e2d7c <BT_Callback+0x6f4>
102e2c40:	e12fff36 	blx	r6
102e2c44:	e59f1130 	ldr	r1, [pc, #304]	; 102e2d7c <BT_Callback+0x6f4>
102e2c48:	e1a02000 	mov	r2, r0
102e2c4c:	e3a0000a 	mov	r0, #10
102e2c50:	e12fff34 	blx	r4
102e2c54:	e3a02b01 	mov	r2, #1024	; 0x400
102e2c58:	e3a01000 	mov	r1, #0
102e2c5c:	e59f0118 	ldr	r0, [pc, #280]	; 102e2d7c <BT_Callback+0x6f4>
102e2c60:	e12fff38 	blx	r8
102e2c64:	e59f118c 	ldr	r1, [pc, #396]	; 102e2df8 <BT_Callback+0x770>
102e2c68:	e5973000 	ldr	r3, [r7]
102e2c6c:	e59f0108 	ldr	r0, [pc, #264]	; 102e2d7c <BT_Callback+0x6f4>
102e2c70:	e12fff33 	blx	r3
102e2c74:	e59f0100 	ldr	r0, [pc, #256]	; 102e2d7c <BT_Callback+0x6f4>
102e2c78:	e12fff36 	blx	r6
102e2c7c:	e59f10f8 	ldr	r1, [pc, #248]	; 102e2d7c <BT_Callback+0x6f4>
102e2c80:	e1a02000 	mov	r2, r0
102e2c84:	e3a0000a 	mov	r0, #10
102e2c88:	e12fff34 	blx	r4
102e2c8c:	eafffea1 	b	102e2718 <BT_Callback+0x90>
102e2c90:	e1a01000 	mov	r1, r0
102e2c94:	e3a02b01 	mov	r2, #1024	; 0x400
102e2c98:	e1a00004 	mov	r0, r4
102e2c9c:	e12fff35 	blx	r5
102e2ca0:	e59f1154 	ldr	r1, [pc, #340]	; 102e2dfc <BT_Callback+0x774>
102e2ca4:	eaffffa6 	b	102e2b44 <BT_Callback+0x4bc>
102e2ca8:	e12fff33 	blx	r3
102e2cac:	e59f114c 	ldr	r1, [pc, #332]	; 102e2e00 <BT_Callback+0x778>
102e2cb0:	eafffe8c 	b	102e26e8 <BT_Callback+0x60>
102e2cb4:	e1a01002 	mov	r1, r2
102e2cb8:	e59f3118 	ldr	r3, [pc, #280]	; 102e2dd8 <BT_Callback+0x750>
102e2cbc:	e3a0204c 	mov	r2, #76	; 0x4c
102e2cc0:	e59f013c 	ldr	r0, [pc, #316]	; 102e2e04 <BT_Callback+0x77c>
102e2cc4:	e12fff33 	blx	r3
102e2cc8:	e3a01000 	mov	r1, #0
102e2ccc:	e3a02b01 	mov	r2, #1024	; 0x400
102e2cd0:	e59f00a4 	ldr	r0, [pc, #164]	; 102e2d7c <BT_Callback+0x6f4>
102e2cd4:	e59f30a4 	ldr	r3, [pc, #164]	; 102e2d80 <BT_Callback+0x6f8>
102e2cd8:	e12fff33 	blx	r3
102e2cdc:	e59f1124 	ldr	r1, [pc, #292]	; 102e2e08 <BT_Callback+0x780>
102e2ce0:	eafffe80 	b	102e26e8 <BT_Callback+0x60>
102e2ce4:	e59f4090 	ldr	r4, [pc, #144]	; 102e2d7c <BT_Callback+0x6f4>
102e2ce8:	e3a02b01 	mov	r2, #1024	; 0x400
102e2cec:	e3a01000 	mov	r1, #0
102e2cf0:	e59f3088 	ldr	r3, [pc, #136]	; 102e2d80 <BT_Callback+0x6f8>
102e2cf4:	e1a00004 	mov	r0, r4
102e2cf8:	e12fff33 	blx	r3
102e2cfc:	e59f3084 	ldr	r3, [pc, #132]	; 102e2d88 <BT_Callback+0x700>
102e2d00:	e59f1104 	ldr	r1, [pc, #260]	; 102e2e0c <BT_Callback+0x784>
102e2d04:	e5933000 	ldr	r3, [r3]
102e2d08:	e1a00004 	mov	r0, r4
102e2d0c:	e12fff33 	blx	r3
102e2d10:	e59f3074 	ldr	r3, [pc, #116]	; 102e2d8c <BT_Callback+0x704>
102e2d14:	e1a00004 	mov	r0, r4
102e2d18:	e12fff33 	blx	r3
102e2d1c:	e1a01004 	mov	r1, r4
102e2d20:	e59f3068 	ldr	r3, [pc, #104]	; 102e2d90 <BT_Callback+0x708>
102e2d24:	e1a02000 	mov	r2, r0
102e2d28:	e3a0000a 	mov	r0, #10
102e2d2c:	e12fff33 	blx	r3
102e2d30:	e59f30d8 	ldr	r3, [pc, #216]	; 102e2e10 <BT_Callback+0x788>
102e2d34:	e12fff33 	blx	r3
102e2d38:	e59f30d4 	ldr	r3, [pc, #212]	; 102e2e14 <BT_Callback+0x78c>
102e2d3c:	e12fff33 	blx	r3
102e2d40:	e59f30d0 	ldr	r3, [pc, #208]	; 102e2e18 <BT_Callback+0x790>
102e2d44:	e3a02001 	mov	r2, #1
102e2d48:	e5c32065 	strb	r2, [r3, #101]	; 0x65
102e2d4c:	e5840cf8 	str	r0, [r4, #3320]	; 0xcf8
102e2d50:	eafffe70 	b	102e2718 <BT_Callback+0x90>
102e2d54:	e1a01006 	mov	r1, r6
102e2d58:	e1a00004 	mov	r0, r4
102e2d5c:	e3a02b01 	mov	r2, #1024	; 0x400
102e2d60:	e12fff35 	blx	r5
102e2d64:	e1a0200b 	mov	r2, fp
102e2d68:	e59f10ac 	ldr	r1, [pc, #172]	; 102e2e1c <BT_Callback+0x794>
102e2d6c:	e5993000 	ldr	r3, [r9]
102e2d70:	e1a00004 	mov	r0, r4
102e2d74:	e12fff33 	blx	r3
102e2d78:	eaffff74 	b	102e2b50 <BT_Callback+0x4c8>
102e2d7c:	f03d3a84 	.word	0xf03d3a84
102e2d80:	102e6774 	.word	0x102e6774
102e2d84:	102e8ca0 	.word	0x102e8ca0
102e2d88:	f03d6720 	.word	0xf03d6720
102e2d8c:	102e6624 	.word	0x102e6624
102e2d90:	102e6ff4 	.word	0x102e6ff4
102e2d94:	102e6514 	.word	0x102e6514
102e2d98:	f03d4780 	.word	0xf03d4780
102e2d9c:	102e8bc8 	.word	0x102e8bc8
102e2da0:	102e8be4 	.word	0x102e8be4
102e2da4:	102e8c28 	.word	0x102e8c28
102e2da8:	102e8c3c 	.word	0x102e8c3c
102e2dac:	102dd1c4 	.word	0x102dd1c4
102e2db0:	102e8d34 	.word	0x102e8d34
102e2db4:	102e8bd4 	.word	0x102e8bd4
102e2db8:	102e8d48 	.word	0x102e8d48
102e2dbc:	102e8d54 	.word	0x102e8d54
102e2dc0:	102e8d60 	.word	0x102e8d60
102e2dc4:	102ddb38 	.word	0x102ddb38
102e2dc8:	102e8d7c 	.word	0x102e8d7c
102e2dcc:	102e8dc0 	.word	0x102e8dc0
102e2dd0:	102e8ba4 	.word	0x102e8ba4
102e2dd4:	102e8c74 	.word	0x102e8c74
102e2dd8:	102e67fc 	.word	0x102e67fc
102e2ddc:	f03d47e8 	.word	0xf03d47e8
102e2de0:	102e8cb4 	.word	0x102e8cb4
102e2de4:	00000401 	.word	0x00000401
102e2de8:	102de2c4 	.word	0x102de2c4
102e2dec:	102e8d08 	.word	0x102e8d08
102e2df0:	102e8d9c 	.word	0x102e8d9c
102e2df4:	102e8d18 	.word	0x102e8d18
102e2df8:	102e8bfc 	.word	0x102e8bfc
102e2dfc:	102e8cdc 	.word	0x102e8cdc
102e2e00:	102e8c5c 	.word	0x102e8c5c
102e2e04:	f03d4788 	.word	0xf03d4788
102e2e08:	102e8c88 	.word	0x102e8c88
102e2e0c:	102e8b94 	.word	0x102e8b94
102e2e10:	102dccdc 	.word	0x102dccdc
102e2e14:	102dcd54 	.word	0x102dcd54
102e2e18:	f03d2024 	.word	0xf03d2024
102e2e1c:	102e8cf0 	.word	0x102e8cf0

102e2e20 <CallBack_UART_Hdlr>:
102e2e20:	e92d41f0 	push	{r4, r5, r6, r7, r8, lr}
102e2e24:	e2514000 	subs	r4, r1, #0
102e2e28:	e1a05000 	mov	r5, r0
102e2e2c:	18bd81f0 	popne	{r4, r5, r6, r7, r8, pc}
102e2e30:	e59f00a0 	ldr	r0, [pc, #160]	; 102e2ed8 <CallBack_UART_Hdlr+0xb8>
102e2e34:	e3a02b02 	mov	r2, #2048	; 0x800
102e2e38:	e59f809c 	ldr	r8, [pc, #156]	; 102e2edc <CallBack_UART_Hdlr+0xbc>
102e2e3c:	e12fff38 	blx	r8
102e2e40:	e59f7090 	ldr	r7, [pc, #144]	; 102e2ed8 <CallBack_UART_Hdlr+0xb8>
102e2e44:	e59f6094 	ldr	r6, [pc, #148]	; 102e2ee0 <CallBack_UART_Hdlr+0xc0>
102e2e48:	ea000000 	b	102e2e50 <CallBack_UART_Hdlr+0x30>
102e2e4c:	e0844000 	add	r4, r4, r0
102e2e50:	e0871004 	add	r1, r7, r4
102e2e54:	e2642b02 	rsb	r2, r4, #2048	; 0x800
102e2e58:	e1a00005 	mov	r0, r5
102e2e5c:	e12fff36 	blx	r6
102e2e60:	e3500000 	cmp	r0, #0
102e2e64:	cafffff8 	bgt	102e2e4c <CallBack_UART_Hdlr+0x2c>
102e2e68:	1a000007 	bne	102e2e8c <CallBack_UART_Hdlr+0x6c>
102e2e6c:	e3540000 	cmp	r4, #0
102e2e70:	08bd81f0 	popeq	{r4, r5, r6, r7, r8, pc}
102e2e74:	e59f005c 	ldr	r0, [pc, #92]	; 102e2ed8 <CallBack_UART_Hdlr+0xb8>
102e2e78:	ebfffd4d 	bl	102e23b4 <proc_handle.isra.1>
102e2e7c:	e59f3060 	ldr	r3, [pc, #96]	; 102e2ee4 <CallBack_UART_Hdlr+0xc4>
102e2e80:	e3a02001 	mov	r2, #1
102e2e84:	e5032644 	str	r2, [r3, #-1604]	; 0xfffff9bc
102e2e88:	e8bd81f0 	pop	{r4, r5, r6, r7, r8, pc}
102e2e8c:	e3a01000 	mov	r1, #0
102e2e90:	e3a02b01 	mov	r2, #1024	; 0x400
102e2e94:	e59f004c 	ldr	r0, [pc, #76]	; 102e2ee8 <CallBack_UART_Hdlr+0xc8>
102e2e98:	e12fff38 	blx	r8
102e2e9c:	e59f3048 	ldr	r3, [pc, #72]	; 102e2eec <CallBack_UART_Hdlr+0xcc>
102e2ea0:	e1a02005 	mov	r2, r5
102e2ea4:	e59f1044 	ldr	r1, [pc, #68]	; 102e2ef0 <CallBack_UART_Hdlr+0xd0>
102e2ea8:	e5933000 	ldr	r3, [r3]
102e2eac:	e59f0034 	ldr	r0, [pc, #52]	; 102e2ee8 <CallBack_UART_Hdlr+0xc8>
102e2eb0:	e12fff33 	blx	r3
102e2eb4:	e59f3038 	ldr	r3, [pc, #56]	; 102e2ef4 <CallBack_UART_Hdlr+0xd4>
102e2eb8:	e59f0028 	ldr	r0, [pc, #40]	; 102e2ee8 <CallBack_UART_Hdlr+0xc8>
102e2ebc:	e12fff33 	blx	r3
102e2ec0:	e59f1020 	ldr	r1, [pc, #32]	; 102e2ee8 <CallBack_UART_Hdlr+0xc8>
102e2ec4:	e59f302c 	ldr	r3, [pc, #44]	; 102e2ef8 <CallBack_UART_Hdlr+0xd8>
102e2ec8:	e1a02000 	mov	r2, r0
102e2ecc:	e3a0000a 	mov	r0, #10
102e2ed0:	e12fff33 	blx	r3
102e2ed4:	e8bd81f0 	pop	{r4, r5, r6, r7, r8, pc}
102e2ed8:	f03d4c38 	.word	0xf03d4c38
102e2edc:	102e6774 	.word	0x102e6774
102e2ee0:	102e7064 	.word	0x102e7064
102e2ee4:	f03d5a7c 	.word	0xf03d5a7c
102e2ee8:	f03d3a84 	.word	0xf03d3a84
102e2eec:	f03d6720 	.word	0xf03d6720
102e2ef0:	102e8dd4 	.word	0x102e8dd4
102e2ef4:	102e6624 	.word	0x102e6624
102e2ef8:	102e6ff4 	.word	0x102e6ff4

102e2efc <QSDK_Get_Str>:
102e2efc:	e92d4ff8 	push	{r3, r4, r5, r6, r7, r8, r9, sl, fp, lr}
102e2f00:	e2506000 	subs	r6, r0, #0
102e2f04:	e1a08001 	mov	r8, r1
102e2f08:	e1a0b002 	mov	fp, r2
102e2f0c:	0a000023 	beq	102e2fa0 <QSDK_Get_Str+0xa4>
102e2f10:	e59f30ec 	ldr	r3, [pc, #236]	; 102e3004 <QSDK_Get_Str+0x108>
102e2f14:	e12fff33 	blx	r3
102e2f18:	e21050ff 	ands	r5, r0, #255	; 0xff
102e2f1c:	0a000035 	beq	102e2ff8 <QSDK_Get_Str+0xfc>
102e2f20:	e3a03000 	mov	r3, #0
102e2f24:	e1a09003 	mov	r9, r3
102e2f28:	e1a07003 	mov	r7, r3
102e2f2c:	e1a04003 	mov	r4, r3
102e2f30:	ea000002 	b	102e2f40 <QSDK_Get_Str+0x44>
102e2f34:	e2833001 	add	r3, r3, #1
102e2f38:	e1530005 	cmp	r3, r5
102e2f3c:	0a000011 	beq	102e2f88 <QSDK_Get_Str+0x8c>
102e2f40:	e7d6c003 	ldrb	ip, [r6, r3]
102e2f44:	e35c002c 	cmp	ip, #44	; 0x2c
102e2f48:	1afffff9 	bne	102e2f34 <QSDK_Get_Str+0x38>
102e2f4c:	e203c0ff 	and	ip, r3, #255	; 0xff
102e2f50:	e067a00c 	rsb	sl, r7, ip
102e2f54:	e064a00a 	rsb	sl, r4, sl
102e2f58:	e20aa0ff 	and	sl, sl, #255	; 0xff
102e2f5c:	e2842001 	add	r2, r4, #1
102e2f60:	e15b0004 	cmp	fp, r4
102e2f64:	e08a7007 	add	r7, sl, r7
102e2f68:	e28cc001 	add	ip, ip, #1
102e2f6c:	e20240ff 	and	r4, r2, #255	; 0xff
102e2f70:	e20770ff 	and	r7, r7, #255	; 0xff
102e2f74:	0a000014 	beq	102e2fcc <QSDK_Get_Str+0xd0>
102e2f78:	e2833001 	add	r3, r3, #1
102e2f7c:	e1530005 	cmp	r3, r5
102e2f80:	e20c90ff 	and	r9, ip, #255	; 0xff
102e2f84:	1affffed 	bne	102e2f40 <QSDK_Get_Str+0x44>
102e2f88:	e0553009 	subs	r3, r5, r9
102e2f8c:	13a03001 	movne	r3, #1
102e2f90:	e15b0004 	cmp	fp, r4
102e2f94:	13a03000 	movne	r3, #0
102e2f98:	e3530000 	cmp	r3, #0
102e2f9c:	1a000001 	bne	102e2fa8 <QSDK_Get_Str+0xac>
102e2fa0:	e3a00000 	mov	r0, #0
102e2fa4:	e8bd8ff8 	pop	{r3, r4, r5, r6, r7, r8, r9, sl, fp, pc}
102e2fa8:	e1a00008 	mov	r0, r8
102e2fac:	e0861009 	add	r1, r6, r9
102e2fb0:	e0692005 	rsb	r2, r9, r5
102e2fb4:	e59f304c 	ldr	r3, [pc, #76]	; 102e3008 <QSDK_Get_Str+0x10c>
102e2fb8:	e12fff33 	blx	r3
102e2fbc:	e3a03000 	mov	r3, #0
102e2fc0:	e3a00001 	mov	r0, #1
102e2fc4:	e7c83005 	strb	r3, [r8, r5]
102e2fc8:	e8bd8ff8 	pop	{r3, r4, r5, r6, r7, r8, r9, sl, fp, pc}
102e2fcc:	e35a0000 	cmp	sl, #0
102e2fd0:	0afffff2 	beq	102e2fa0 <QSDK_Get_Str+0xa4>
102e2fd4:	e1a00008 	mov	r0, r8
102e2fd8:	e0861009 	add	r1, r6, r9
102e2fdc:	e1a0200a 	mov	r2, sl
102e2fe0:	e59f3020 	ldr	r3, [pc, #32]	; 102e3008 <QSDK_Get_Str+0x10c>
102e2fe4:	e12fff33 	blx	r3
102e2fe8:	e3a03000 	mov	r3, #0
102e2fec:	e7c8300a 	strb	r3, [r8, sl]
102e2ff0:	e3a00001 	mov	r0, #1
102e2ff4:	e8bd8ff8 	pop	{r3, r4, r5, r6, r7, r8, r9, sl, fp, pc}
102e2ff8:	e1a09005 	mov	r9, r5
102e2ffc:	e1a04005 	mov	r4, r5
102e3000:	eaffffe0 	b	102e2f88 <QSDK_Get_Str+0x8c>
102e3004:	102e6624 	.word	0x102e6624
102e3008:	102e67fc 	.word	0x102e67fc

102e300c <ATResponse_mqtt_handler>:
102e300c:	e92d41f0 	push	{r4, r5, r6, r7, r8, lr}
102e3010:	e1a04002 	mov	r4, r2
102e3014:	e24dd010 	sub	sp, sp, #16
102e3018:	e5922004 	ldr	r2, [r2, #4]
102e301c:	e59f50d8 	ldr	r5, [pc, #216]	; 102e30fc <ATResponse_mqtt_handler+0xf0>
102e3020:	e1a08000 	mov	r8, r0
102e3024:	e1a07001 	mov	r7, r1
102e3028:	e12fff35 	blx	r5
102e302c:	e2506000 	subs	r6, r0, #0
102e3030:	0a000015 	beq	102e308c <ATResponse_mqtt_handler+0x80>
102e3034:	e3a01000 	mov	r1, #0
102e3038:	e3a0200a 	mov	r2, #10
102e303c:	e59f30bc 	ldr	r3, [pc, #188]	; 102e3100 <ATResponse_mqtt_handler+0xf4>
102e3040:	e28d0004 	add	r0, sp, #4
102e3044:	e12fff33 	blx	r3
102e3048:	e1a00006 	mov	r0, r6
102e304c:	e59f10b0 	ldr	r1, [pc, #176]	; 102e3104 <ATResponse_mqtt_handler+0xf8>
102e3050:	e59f30b0 	ldr	r3, [pc, #176]	; 102e3108 <ATResponse_mqtt_handler+0xfc>
102e3054:	e12fff33 	blx	r3
102e3058:	e3500000 	cmp	r0, #0
102e305c:	0a000007 	beq	102e3080 <ATResponse_mqtt_handler+0x74>
102e3060:	e28d1004 	add	r1, sp, #4
102e3064:	e5d42000 	ldrb	r2, [r4]
102e3068:	e2800001 	add	r0, r0, #1
102e306c:	ebffffa2 	bl	102e2efc <QSDK_Get_Str>
102e3070:	e28d0004 	add	r0, sp, #4
102e3074:	e59f3090 	ldr	r3, [pc, #144]	; 102e310c <ATResponse_mqtt_handler+0x100>
102e3078:	e12fff33 	blx	r3
102e307c:	e5840008 	str	r0, [r4, #8]
102e3080:	e3a00000 	mov	r0, #0
102e3084:	e28dd010 	add	sp, sp, #16
102e3088:	e8bd81f0 	pop	{r4, r5, r6, r7, r8, pc}
102e308c:	e1a00008 	mov	r0, r8
102e3090:	e1a01007 	mov	r1, r7
102e3094:	e59f2074 	ldr	r2, [pc, #116]	; 102e3110 <ATResponse_mqtt_handler+0x104>
102e3098:	e12fff35 	blx	r5
102e309c:	e3500000 	cmp	r0, #0
102e30a0:	0a000001 	beq	102e30ac <ATResponse_mqtt_handler+0xa0>
102e30a4:	e3a00001 	mov	r0, #1
102e30a8:	eafffff5 	b	102e3084 <ATResponse_mqtt_handler+0x78>
102e30ac:	e1a00008 	mov	r0, r8
102e30b0:	e1a01007 	mov	r1, r7
102e30b4:	e59f2058 	ldr	r2, [pc, #88]	; 102e3114 <ATResponse_mqtt_handler+0x108>
102e30b8:	e12fff35 	blx	r5
102e30bc:	e3500000 	cmp	r0, #0
102e30c0:	1a00000b 	bne	102e30f4 <ATResponse_mqtt_handler+0xe8>
102e30c4:	e1a00008 	mov	r0, r8
102e30c8:	e1a01007 	mov	r1, r7
102e30cc:	e59f2044 	ldr	r2, [pc, #68]	; 102e3118 <ATResponse_mqtt_handler+0x10c>
102e30d0:	e12fff35 	blx	r5
102e30d4:	e3500000 	cmp	r0, #0
102e30d8:	1a000005 	bne	102e30f4 <ATResponse_mqtt_handler+0xe8>
102e30dc:	e1a00008 	mov	r0, r8
102e30e0:	e1a01007 	mov	r1, r7
102e30e4:	e59f2030 	ldr	r2, [pc, #48]	; 102e311c <ATResponse_mqtt_handler+0x110>
102e30e8:	e12fff35 	blx	r5
102e30ec:	e3500000 	cmp	r0, #0
102e30f0:	0affffeb 	beq	102e30a4 <ATResponse_mqtt_handler+0x98>
102e30f4:	e3e00000 	mvn	r0, #0
102e30f8:	eaffffe1 	b	102e3084 <ATResponse_mqtt_handler+0x78>
102e30fc:	102e1e04 	.word	0x102e1e04
102e3100:	102e6774 	.word	0x102e6774
102e3104:	102e88b8 	.word	0x102e88b8
102e3108:	102e6884 	.word	0x102e6884
102e310c:	102e690c 	.word	0x102e690c
102e3110:	102e87c4 	.word	0x102e87c4
102e3114:	102e7f30 	.word	0x102e7f30
102e3118:	102e7fe8 	.word	0x102e7fe8
102e311c:	102e7f44 	.word	0x102e7f44

102e3120 <proc_main_task>:
102e3120:	e92d4ff0 	push	{r4, r5, r6, r7, r8, r9, sl, fp, lr}
102e3124:	e59f48e0 	ldr	r4, [pc, #2272]	; 102e3a0c <proc_main_task+0x8ec>
102e3128:	e3a02000 	mov	r2, #0
102e312c:	e24dd03c 	sub	sp, sp, #60	; 0x3c
102e3130:	e59f58d8 	ldr	r5, [pc, #2264]	; 102e3a10 <proc_main_task+0x8f0>
102e3134:	e1a03002 	mov	r3, r2
102e3138:	e3a01001 	mov	r1, #1
102e313c:	e5d40066 	ldrb	r0, [r4, #102]	; 0x66
102e3140:	e12fff35 	blx	r5
102e3144:	e3a01000 	mov	r1, #0
102e3148:	e1a02001 	mov	r2, r1
102e314c:	e3a03001 	mov	r3, #1
102e3150:	e5d40067 	ldrb	r0, [r4, #103]	; 0x67
102e3154:	e12fff35 	blx	r5
102e3158:	e3a02000 	mov	r2, #0
102e315c:	e1a03002 	mov	r3, r2
102e3160:	e3a01001 	mov	r1, #1
102e3164:	e5d40068 	ldrb	r0, [r4, #104]	; 0x68
102e3168:	e12fff35 	blx	r5
102e316c:	e3a02000 	mov	r2, #0
102e3170:	e1a03002 	mov	r3, r2
102e3174:	e3a01001 	mov	r1, #1
102e3178:	e5d40069 	ldrb	r0, [r4, #105]	; 0x69
102e317c:	e12fff35 	blx	r5
102e3180:	e59f388c 	ldr	r3, [pc, #2188]	; 102e3a14 <proc_main_task+0x8f4>
102e3184:	e59f088c 	ldr	r0, [pc, #2188]	; 102e3a18 <proc_main_task+0x8f8>
102e3188:	e12fff33 	blx	r3
102e318c:	e59f3888 	ldr	r3, [pc, #2184]	; 102e3a1c <proc_main_task+0x8fc>
102e3190:	e59f1888 	ldr	r1, [pc, #2184]	; 102e3a20 <proc_main_task+0x900>
102e3194:	e3a02000 	mov	r2, #0
102e3198:	e59f7884 	ldr	r7, [pc, #2180]	; 102e3a24 <proc_main_task+0x904>
102e319c:	e59f5884 	ldr	r5, [pc, #2180]	; 102e3a28 <proc_main_task+0x908>
102e31a0:	e59f6884 	ldr	r6, [pc, #2180]	; 102e3a2c <proc_main_task+0x90c>
102e31a4:	e59f9884 	ldr	r9, [pc, #2180]	; 102e3a30 <proc_main_task+0x910>
102e31a8:	e59f8884 	ldr	r8, [pc, #2180]	; 102e3a34 <proc_main_task+0x914>
102e31ac:	e59fa884 	ldr	sl, [pc, #2180]	; 102e3a38 <proc_main_task+0x918>
102e31b0:	e5830000 	str	r0, [r3]
102e31b4:	e59f3880 	ldr	r3, [pc, #2176]	; 102e3a3c <proc_main_task+0x91c>
102e31b8:	e3a0000a 	mov	r0, #10
102e31bc:	e12fff33 	blx	r3
102e31c0:	e59f3878 	ldr	r3, [pc, #2168]	; 102e3a40 <proc_main_task+0x920>
102e31c4:	e3a01d96 	mov	r1, #9600	; 0x2580
102e31c8:	e3a02001 	mov	r2, #1
102e31cc:	e3a0000a 	mov	r0, #10
102e31d0:	e12fff33 	blx	r3
102e31d4:	e3a02b01 	mov	r2, #1024	; 0x400
102e31d8:	e3a01000 	mov	r1, #0
102e31dc:	e59f0860 	ldr	r0, [pc, #2144]	; 102e3a44 <proc_main_task+0x924>
102e31e0:	e12fff35 	blx	r5
102e31e4:	e5973000 	ldr	r3, [r7]
102e31e8:	e59f1858 	ldr	r1, [pc, #2136]	; 102e3a48 <proc_main_task+0x928>
102e31ec:	e59f0850 	ldr	r0, [pc, #2128]	; 102e3a44 <proc_main_task+0x924>
102e31f0:	e12fff33 	blx	r3
102e31f4:	e59f0848 	ldr	r0, [pc, #2120]	; 102e3a44 <proc_main_task+0x924>
102e31f8:	e12fff36 	blx	r6
102e31fc:	e59f1840 	ldr	r1, [pc, #2112]	; 102e3a44 <proc_main_task+0x924>
102e3200:	e1a02000 	mov	r2, r0
102e3204:	e3a0000a 	mov	r0, #10
102e3208:	e12fff39 	blx	r9
102e320c:	e59f1838 	ldr	r1, [pc, #2104]	; 102e3a4c <proc_main_task+0x92c>
102e3210:	e3a02000 	mov	r2, #0
102e3214:	e3a00c01 	mov	r0, #256	; 0x100
102e3218:	e12fff38 	blx	r8
102e321c:	e59f382c 	ldr	r3, [pc, #2092]	; 102e3a50 <proc_main_task+0x930>
102e3220:	e3a01ffa 	mov	r1, #1000	; 0x3e8
102e3224:	e3a02001 	mov	r2, #1
102e3228:	e3a00c01 	mov	r0, #256	; 0x100
102e322c:	e12fff33 	blx	r3
102e3230:	e59f1814 	ldr	r1, [pc, #2068]	; 102e3a4c <proc_main_task+0x92c>
102e3234:	e3a02000 	mov	r2, #0
102e3238:	e59f0814 	ldr	r0, [pc, #2068]	; 102e3a54 <proc_main_task+0x934>
102e323c:	e12fff38 	blx	r8
102e3240:	e3a03000 	mov	r3, #0
102e3244:	e50a3640 	str	r3, [sl, #-1600]	; 0xfffff9c0
102e3248:	e59f0808 	ldr	r0, [pc, #2056]	; 102e3a58 <proc_main_task+0x938>
102e324c:	e59f3808 	ldr	r3, [pc, #2056]	; 102e3a5c <proc_main_task+0x93c>
102e3250:	e12fff33 	blx	r3
102e3254:	e50a063c 	str	r0, [sl, #-1596]	; 0xfffff9c4
102e3258:	e59f2800 	ldr	r2, [pc, #2048]	; 102e3a60 <proc_main_task+0x940>
102e325c:	e28d0028 	add	r0, sp, #40	; 0x28
102e3260:	e12fff32 	blx	r2
102e3264:	e59d3028 	ldr	r3, [sp, #40]	; 0x28
102e3268:	e59f27f4 	ldr	r2, [pc, #2036]	; 102e3a64 <proc_main_task+0x944>
102e326c:	e1530002 	cmp	r3, r2
102e3270:	0a000038 	beq	102e3358 <proc_main_task+0x238>
102e3274:	e2822001 	add	r2, r2, #1
102e3278:	e1530002 	cmp	r3, r2
102e327c:	1afffff5 	bne	102e3258 <proc_main_task+0x138>
102e3280:	e59d302c 	ldr	r3, [sp, #44]	; 0x2c
102e3284:	e353000b 	cmp	r3, #11
102e3288:	0a00009a 	beq	102e34f8 <proc_main_task+0x3d8>
102e328c:	e353000c 	cmp	r3, #12
102e3290:	1afffff0 	bne	102e3258 <proc_main_task+0x138>
102e3294:	e3a01000 	mov	r1, #0
102e3298:	e3a02b01 	mov	r2, #1024	; 0x400
102e329c:	e59f07a0 	ldr	r0, [pc, #1952]	; 102e3a44 <proc_main_task+0x924>
102e32a0:	e12fff35 	blx	r5
102e32a4:	e5973000 	ldr	r3, [r7]
102e32a8:	e59d2030 	ldr	r2, [sp, #48]	; 0x30
102e32ac:	e59f17b4 	ldr	r1, [pc, #1972]	; 102e3a68 <proc_main_task+0x948>
102e32b0:	e59f078c 	ldr	r0, [pc, #1932]	; 102e3a44 <proc_main_task+0x924>
102e32b4:	e12fff33 	blx	r3
102e32b8:	e59f0784 	ldr	r0, [pc, #1924]	; 102e3a44 <proc_main_task+0x924>
102e32bc:	e12fff36 	blx	r6
102e32c0:	e59f177c 	ldr	r1, [pc, #1916]	; 102e3a44 <proc_main_task+0x924>
102e32c4:	e1a02000 	mov	r2, r0
102e32c8:	e3a0000a 	mov	r0, #10
102e32cc:	e12fff39 	blx	r9
102e32d0:	e59fc794 	ldr	ip, [pc, #1940]	; 102e3a6c <proc_main_task+0x94c>
102e32d4:	e3a00000 	mov	r0, #0
102e32d8:	e59d8030 	ldr	r8, [sp, #48]	; 0x30
102e32dc:	e12fff3c 	blx	ip
102e32e0:	e3a00ffa 	mov	r0, #1000	; 0x3e8
102e32e4:	e59f2784 	ldr	r2, [pc, #1924]	; 102e3a70 <proc_main_task+0x950>
102e32e8:	e12fff32 	blx	r2
102e32ec:	e3a0200a 	mov	r2, #10
102e32f0:	e3a01000 	mov	r1, #0
102e32f4:	e28d001c 	add	r0, sp, #28
102e32f8:	e12fff35 	blx	r5
102e32fc:	e1a00008 	mov	r0, r8
102e3300:	e28d101c 	add	r1, sp, #28
102e3304:	e3a02003 	mov	r2, #3
102e3308:	ebfffefb 	bl	102e2efc <QSDK_Get_Str>
102e330c:	e3a01000 	mov	r1, #0
102e3310:	e3a02b01 	mov	r2, #1024	; 0x400
102e3314:	e59f0728 	ldr	r0, [pc, #1832]	; 102e3a44 <proc_main_task+0x924>
102e3318:	e12fff35 	blx	r5
102e331c:	e28d001c 	add	r0, sp, #28
102e3320:	e59f374c 	ldr	r3, [pc, #1868]	; 102e3a74 <proc_main_task+0x954>
102e3324:	e5978000 	ldr	r8, [r7]
102e3328:	e12fff33 	blx	r3
102e332c:	e59f1744 	ldr	r1, [pc, #1860]	; 102e3a78 <proc_main_task+0x958>
102e3330:	e1a02000 	mov	r2, r0
102e3334:	e59f0708 	ldr	r0, [pc, #1800]	; 102e3a44 <proc_main_task+0x924>
102e3338:	e12fff38 	blx	r8
102e333c:	e59f0700 	ldr	r0, [pc, #1792]	; 102e3a44 <proc_main_task+0x924>
102e3340:	e12fff36 	blx	r6
102e3344:	e59f16f8 	ldr	r1, [pc, #1784]	; 102e3a44 <proc_main_task+0x924>
102e3348:	e1a02000 	mov	r2, r0
102e334c:	e3a0000a 	mov	r0, #10
102e3350:	e12fff39 	blx	r9
102e3354:	eaffffbf 	b	102e3258 <proc_main_task+0x138>
102e3358:	e3a02b01 	mov	r2, #1024	; 0x400
102e335c:	e3a01000 	mov	r1, #0
102e3360:	e59f06dc 	ldr	r0, [pc, #1756]	; 102e3a44 <proc_main_task+0x924>
102e3364:	e12fff35 	blx	r5
102e3368:	e5973000 	ldr	r3, [r7]
102e336c:	e59f1708 	ldr	r1, [pc, #1800]	; 102e3a7c <proc_main_task+0x95c>
102e3370:	e59f06cc 	ldr	r0, [pc, #1740]	; 102e3a44 <proc_main_task+0x924>
102e3374:	e12fff33 	blx	r3
102e3378:	e59f06c4 	ldr	r0, [pc, #1732]	; 102e3a44 <proc_main_task+0x924>
102e337c:	e12fff36 	blx	r6
102e3380:	e59f16bc 	ldr	r1, [pc, #1724]	; 102e3a44 <proc_main_task+0x924>
102e3384:	e59fb69c 	ldr	fp, [pc, #1692]	; 102e3a28 <proc_main_task+0x908>
102e3388:	e59fa69c 	ldr	sl, [pc, #1692]	; 102e3a2c <proc_main_task+0x90c>
102e338c:	e1a02000 	mov	r2, r0
102e3390:	e3a0000a 	mov	r0, #10
102e3394:	e12fff39 	blx	r9
102e3398:	e59f36e0 	ldr	r3, [pc, #1760]	; 102e3a80 <proc_main_task+0x960>
102e339c:	e12fff33 	blx	r3
102e33a0:	e3a00001 	mov	r0, #1
102e33a4:	e59fc6d8 	ldr	ip, [pc, #1752]	; 102e3a84 <proc_main_task+0x964>
102e33a8:	e59f16d8 	ldr	r1, [pc, #1752]	; 102e3a88 <proc_main_task+0x968>
102e33ac:	e1a02000 	mov	r2, r0
102e33b0:	e12fff3c 	blx	ip
102e33b4:	e3a01000 	mov	r1, #0
102e33b8:	e3a02b01 	mov	r2, #1024	; 0x400
102e33bc:	e1a08000 	mov	r8, r0
102e33c0:	e59f067c 	ldr	r0, [pc, #1660]	; 102e3a44 <proc_main_task+0x924>
102e33c4:	e12fff35 	blx	r5
102e33c8:	e1a02008 	mov	r2, r8
102e33cc:	e5973000 	ldr	r3, [r7]
102e33d0:	e59f16b4 	ldr	r1, [pc, #1716]	; 102e3a8c <proc_main_task+0x96c>
102e33d4:	e59f0668 	ldr	r0, [pc, #1640]	; 102e3a44 <proc_main_task+0x924>
102e33d8:	e12fff33 	blx	r3
102e33dc:	e59f0660 	ldr	r0, [pc, #1632]	; 102e3a44 <proc_main_task+0x924>
102e33e0:	e12fff36 	blx	r6
102e33e4:	e59f1658 	ldr	r1, [pc, #1624]	; 102e3a44 <proc_main_task+0x924>
102e33e8:	e59f8634 	ldr	r8, [pc, #1588]	; 102e3a24 <proc_main_task+0x904>
102e33ec:	e1a02000 	mov	r2, r0
102e33f0:	e3a0000a 	mov	r0, #10
102e33f4:	e12fff39 	blx	r9
102e33f8:	e5d43064 	ldrb	r3, [r4, #100]	; 0x64
102e33fc:	e3530030 	cmp	r3, #48	; 0x30
102e3400:	0a0000e6 	beq	102e37a0 <proc_main_task+0x680>
102e3404:	e59fc684 	ldr	ip, [pc, #1668]	; 102e3a90 <proc_main_task+0x970>
102e3408:	e59f15fc 	ldr	r1, [pc, #1532]	; 102e3a0c <proc_main_task+0x8ec>
102e340c:	e59f0680 	ldr	r0, [pc, #1664]	; 102e3a94 <proc_main_task+0x974>
102e3410:	e12fff3c 	blx	ip
102e3414:	e59f067c 	ldr	r0, [pc, #1660]	; 102e3a98 <proc_main_task+0x978>
102e3418:	e59f2670 	ldr	r2, [pc, #1648]	; 102e3a90 <proc_main_task+0x970>
102e341c:	e24010a4 	sub	r1, r0, #164	; 0xa4
102e3420:	e12fff32 	blx	r2
102e3424:	e59f0670 	ldr	r0, [pc, #1648]	; 102e3a9c <proc_main_task+0x97c>
102e3428:	e59f3660 	ldr	r3, [pc, #1632]	; 102e3a90 <proc_main_task+0x970>
102e342c:	e24010a4 	sub	r1, r0, #164	; 0xa4
102e3430:	e12fff33 	blx	r3
102e3434:	e3a02b01 	mov	r2, #1024	; 0x400
102e3438:	e3a01000 	mov	r1, #0
102e343c:	e59f0600 	ldr	r0, [pc, #1536]	; 102e3a44 <proc_main_task+0x924>
102e3440:	e12fff3b 	blx	fp
102e3444:	e59f1654 	ldr	r1, [pc, #1620]	; 102e3aa0 <proc_main_task+0x980>
102e3448:	e5983000 	ldr	r3, [r8]
102e344c:	e59f05f0 	ldr	r0, [pc, #1520]	; 102e3a44 <proc_main_task+0x924>
102e3450:	e12fff33 	blx	r3
102e3454:	e59f05e8 	ldr	r0, [pc, #1512]	; 102e3a44 <proc_main_task+0x924>
102e3458:	e12fff3a 	blx	sl
102e345c:	e59f15e0 	ldr	r1, [pc, #1504]	; 102e3a44 <proc_main_task+0x924>
102e3460:	e59fc5c8 	ldr	ip, [pc, #1480]	; 102e3a30 <proc_main_task+0x910>
102e3464:	e1a02000 	mov	r2, r0
102e3468:	e3a0000a 	mov	r0, #10
102e346c:	e12fff3c 	blx	ip
102e3470:	e3e03000 	mvn	r3, #0
102e3474:	e3a08000 	mov	r8, #0
102e3478:	e28d0014 	add	r0, sp, #20
102e347c:	e59f2620 	ldr	r2, [pc, #1568]	; 102e3aa4 <proc_main_task+0x984>
102e3480:	e58d8014 	str	r8, [sp, #20]
102e3484:	e58d3018 	str	r3, [sp, #24]
102e3488:	e12fff32 	blx	r2
102e348c:	e2501000 	subs	r1, r0, #0
102e3490:	1a0000b9 	bne	102e377c <proc_main_task+0x65c>
102e3494:	e59d8014 	ldr	r8, [sp, #20]
102e3498:	e3580001 	cmp	r8, #1
102e349c:	0a000124 	beq	102e3934 <proc_main_task+0x814>
102e34a0:	e3580000 	cmp	r8, #0
102e34a4:	0a0000f8 	beq	102e388c <proc_main_task+0x76c>
102e34a8:	e3a01000 	mov	r1, #0
102e34ac:	e3a02038 	mov	r2, #56	; 0x38
102e34b0:	e59f05f0 	ldr	r0, [pc, #1520]	; 102e3aa8 <proc_main_task+0x988>
102e34b4:	e12fff35 	blx	r5
102e34b8:	e59f05e8 	ldr	r0, [pc, #1512]	; 102e3aa8 <proc_main_task+0x988>
102e34bc:	e3a01038 	mov	r1, #56	; 0x38
102e34c0:	e59fc5e4 	ldr	ip, [pc, #1508]	; 102e3aac <proc_main_task+0x98c>
102e34c4:	e12fff3c 	blx	ip
102e34c8:	e59f8558 	ldr	r8, [pc, #1368]	; 102e3a28 <proc_main_task+0x908>
102e34cc:	e2503000 	subs	r3, r0, #0
102e34d0:	0a000081 	beq	102e36dc <proc_main_task+0x5bc>
102e34d4:	e3a02b01 	mov	r2, #1024	; 0x400
102e34d8:	e3a01000 	mov	r1, #0
102e34dc:	e59f0560 	ldr	r0, [pc, #1376]	; 102e3a44 <proc_main_task+0x924>
102e34e0:	e12fff38 	blx	r8
102e34e4:	e59f15c4 	ldr	r1, [pc, #1476]	; 102e3ab0 <proc_main_task+0x990>
102e34e8:	e5973000 	ldr	r3, [r7]
102e34ec:	e59f0550 	ldr	r0, [pc, #1360]	; 102e3a44 <proc_main_task+0x924>
102e34f0:	e12fff33 	blx	r3
102e34f4:	eaffff90 	b	102e333c <proc_main_task+0x21c>
102e34f8:	e3a01000 	mov	r1, #0
102e34fc:	e3a02b01 	mov	r2, #1024	; 0x400
102e3500:	e59f053c 	ldr	r0, [pc, #1340]	; 102e3a44 <proc_main_task+0x924>
102e3504:	e12fff35 	blx	r5
102e3508:	e5973000 	ldr	r3, [r7]
102e350c:	e59f15a0 	ldr	r1, [pc, #1440]	; 102e3ab4 <proc_main_task+0x994>
102e3510:	e59d2030 	ldr	r2, [sp, #48]	; 0x30
102e3514:	e59f0528 	ldr	r0, [pc, #1320]	; 102e3a44 <proc_main_task+0x924>
102e3518:	e12fff33 	blx	r3
102e351c:	e59f0520 	ldr	r0, [pc, #1312]	; 102e3a44 <proc_main_task+0x924>
102e3520:	e12fff36 	blx	r6
102e3524:	e59f1518 	ldr	r1, [pc, #1304]	; 102e3a44 <proc_main_task+0x924>
102e3528:	e1a02000 	mov	r2, r0
102e352c:	e3a0000a 	mov	r0, #10
102e3530:	e12fff39 	blx	r9
102e3534:	e59d8030 	ldr	r8, [sp, #48]	; 0x30
102e3538:	e3a02b01 	mov	r2, #1024	; 0x400
102e353c:	e3a01000 	mov	r1, #0
102e3540:	e59f04fc 	ldr	r0, [pc, #1276]	; 102e3a44 <proc_main_task+0x924>
102e3544:	e12fff35 	blx	r5
102e3548:	e59f1568 	ldr	r1, [pc, #1384]	; 102e3ab8 <proc_main_task+0x998>
102e354c:	e59f2568 	ldr	r2, [pc, #1384]	; 102e3abc <proc_main_task+0x99c>
102e3550:	e1a00008 	mov	r0, r8
102e3554:	e597a000 	ldr	sl, [r7]
102e3558:	e12fff32 	blx	r2
102e355c:	e59f1554 	ldr	r1, [pc, #1364]	; 102e3ab8 <proc_main_task+0x998>
102e3560:	e59f3554 	ldr	r3, [pc, #1364]	; 102e3abc <proc_main_task+0x99c>
102e3564:	e1a02000 	mov	r2, r0
102e3568:	e58d200c 	str	r2, [sp, #12]
102e356c:	e1a00008 	mov	r0, r8
102e3570:	e12fff33 	blx	r3
102e3574:	e59f1544 	ldr	r1, [pc, #1348]	; 102e3ac0 <proc_main_task+0x9a0>
102e3578:	e59fc53c 	ldr	ip, [pc, #1340]	; 102e3abc <proc_main_task+0x99c>
102e357c:	e1a03000 	mov	r3, r0
102e3580:	e58d3008 	str	r3, [sp, #8]
102e3584:	e1a00008 	mov	r0, r8
102e3588:	e12fff3c 	blx	ip
102e358c:	e59fc528 	ldr	ip, [pc, #1320]	; 102e3abc <proc_main_task+0x99c>
102e3590:	e59f1528 	ldr	r1, [pc, #1320]	; 102e3ac0 <proc_main_task+0x9a0>
102e3594:	e1a0b000 	mov	fp, r0
102e3598:	e1a00008 	mov	r0, r8
102e359c:	e12fff3c 	blx	ip
102e35a0:	e59d3008 	ldr	r3, [sp, #8]
102e35a4:	e59f1518 	ldr	r1, [pc, #1304]	; 102e3ac4 <proc_main_task+0x9a4>
102e35a8:	e59d200c 	ldr	r2, [sp, #12]
102e35ac:	e58db000 	str	fp, [sp]
102e35b0:	e58d0004 	str	r0, [sp, #4]
102e35b4:	e59f0488 	ldr	r0, [pc, #1160]	; 102e3a44 <proc_main_task+0x924>
102e35b8:	e12fff3a 	blx	sl
102e35bc:	e59f0480 	ldr	r0, [pc, #1152]	; 102e3a44 <proc_main_task+0x924>
102e35c0:	e12fff36 	blx	r6
102e35c4:	e59f1478 	ldr	r1, [pc, #1144]	; 102e3a44 <proc_main_task+0x924>
102e35c8:	e1a02000 	mov	r2, r0
102e35cc:	e3a0000a 	mov	r0, #10
102e35d0:	e12fff39 	blx	r9
102e35d4:	e1a00008 	mov	r0, r8
102e35d8:	e59f14d8 	ldr	r1, [pc, #1240]	; 102e3ab8 <proc_main_task+0x998>
102e35dc:	e59f24d8 	ldr	r2, [pc, #1240]	; 102e3abc <proc_main_task+0x99c>
102e35e0:	e12fff32 	blx	r2
102e35e4:	e3500000 	cmp	r0, #0
102e35e8:	13a0a001 	movne	sl, #1
102e35ec:	0a0000fe 	beq	102e39ec <proc_main_task+0x8cc>
102e35f0:	e59fc4c4 	ldr	ip, [pc, #1220]	; 102e3abc <proc_main_task+0x99c>
102e35f4:	e59f14cc 	ldr	r1, [pc, #1228]	; 102e3ac8 <proc_main_task+0x9a8>
102e35f8:	e1a00008 	mov	r0, r8
102e35fc:	e12fff3c 	blx	ip
102e3600:	e3a01000 	mov	r1, #0
102e3604:	e3a02b01 	mov	r2, #1024	; 0x400
102e3608:	e1a08000 	mov	r8, r0
102e360c:	e59f0430 	ldr	r0, [pc, #1072]	; 102e3a44 <proc_main_task+0x924>
102e3610:	e12fff35 	blx	r5
102e3614:	e59f14b0 	ldr	r1, [pc, #1200]	; 102e3acc <proc_main_task+0x9ac>
102e3618:	e1a02008 	mov	r2, r8
102e361c:	e5973000 	ldr	r3, [r7]
102e3620:	e59f041c 	ldr	r0, [pc, #1052]	; 102e3a44 <proc_main_task+0x924>
102e3624:	e12fff33 	blx	r3
102e3628:	e59f0414 	ldr	r0, [pc, #1044]	; 102e3a44 <proc_main_task+0x924>
102e362c:	e12fff36 	blx	r6
102e3630:	e59f140c 	ldr	r1, [pc, #1036]	; 102e3a44 <proc_main_task+0x924>
102e3634:	e1a02000 	mov	r2, r0
102e3638:	e3a0000a 	mov	r0, #10
102e363c:	e12fff39 	blx	r9
102e3640:	e3a01001 	mov	r1, #1
102e3644:	e59f2484 	ldr	r2, [pc, #1156]	; 102e3ad0 <proc_main_task+0x9b0>
102e3648:	e5d40066 	ldrb	r0, [r4, #102]	; 0x66
102e364c:	e12fff32 	blx	r2
102e3650:	e5d40067 	ldrb	r0, [r4, #103]	; 0x67
102e3654:	e59f3478 	ldr	r3, [pc, #1144]	; 102e3ad4 <proc_main_task+0x9b4>
102e3658:	e12fff33 	blx	r3
102e365c:	e3500001 	cmp	r0, #1
102e3660:	1afffff6 	bne	102e3640 <proc_main_task+0x520>
102e3664:	e3a00ffa 	mov	r0, #1000	; 0x3e8
102e3668:	e59fc400 	ldr	ip, [pc, #1024]	; 102e3a70 <proc_main_task+0x950>
102e366c:	e12fff3c 	blx	ip
102e3670:	e35a0000 	cmp	sl, #0
102e3674:	0a0000c2 	beq	102e3984 <proc_main_task+0x864>
102e3678:	e35a0001 	cmp	sl, #1
102e367c:	e3a01000 	mov	r1, #0
102e3680:	e3a02b01 	mov	r2, #1024	; 0x400
102e3684:	e59f044c 	ldr	r0, [pc, #1100]	; 102e3ad8 <proc_main_task+0x9b8>
102e3688:	0a0000d3 	beq	102e39dc <proc_main_task+0x8bc>
102e368c:	e12fff35 	blx	r5
102e3690:	e59f1444 	ldr	r1, [pc, #1092]	; 102e3adc <proc_main_task+0x9bc>
102e3694:	e1a02008 	mov	r2, r8
102e3698:	e5973000 	ldr	r3, [r7]
102e369c:	e59f0434 	ldr	r0, [pc, #1076]	; 102e3ad8 <proc_main_task+0x9b8>
102e36a0:	e12fff33 	blx	r3
102e36a4:	e59f042c 	ldr	r0, [pc, #1068]	; 102e3ad8 <proc_main_task+0x9b8>
102e36a8:	e12fff36 	blx	r6
102e36ac:	e59f1424 	ldr	r1, [pc, #1060]	; 102e3ad8 <proc_main_task+0x9b8>
102e36b0:	e1a02000 	mov	r2, r0
102e36b4:	e3a0000a 	mov	r0, #10
102e36b8:	e12fff39 	blx	r9
102e36bc:	e5d40066 	ldrb	r0, [r4, #102]	; 0x66
102e36c0:	e3a01000 	mov	r1, #0
102e36c4:	e59f2404 	ldr	r2, [pc, #1028]	; 102e3ad0 <proc_main_task+0x9b0>
102e36c8:	e12fff32 	blx	r2
102e36cc:	e3a00ffa 	mov	r0, #1000	; 0x3e8
102e36d0:	e59f3398 	ldr	r3, [pc, #920]	; 102e3a70 <proc_main_task+0x950>
102e36d4:	e12fff33 	blx	r3
102e36d8:	eafffede 	b	102e3258 <proc_main_task+0x138>
102e36dc:	e1a01003 	mov	r1, r3
102e36e0:	e58d3008 	str	r3, [sp, #8]
102e36e4:	e3a02b01 	mov	r2, #1024	; 0x400
102e36e8:	e59f0354 	ldr	r0, [pc, #852]	; 102e3a44 <proc_main_task+0x924>
102e36ec:	e12fff38 	blx	r8
102e36f0:	e597c000 	ldr	ip, [r7]
102e36f4:	e59f13e4 	ldr	r1, [pc, #996]	; 102e3ae0 <proc_main_task+0x9c0>
102e36f8:	e59f23a8 	ldr	r2, [pc, #936]	; 102e3aa8 <proc_main_task+0x988>
102e36fc:	e59f0340 	ldr	r0, [pc, #832]	; 102e3a44 <proc_main_task+0x924>
102e3700:	e12fff3c 	blx	ip
102e3704:	e59f0338 	ldr	r0, [pc, #824]	; 102e3a44 <proc_main_task+0x924>
102e3708:	e12fff36 	blx	r6
102e370c:	e59f1330 	ldr	r1, [pc, #816]	; 102e3a44 <proc_main_task+0x924>
102e3710:	e59fb30c 	ldr	fp, [pc, #780]	; 102e3a24 <proc_main_task+0x904>
102e3714:	e59fa310 	ldr	sl, [pc, #784]	; 102e3a2c <proc_main_task+0x90c>
102e3718:	e1a02000 	mov	r2, r0
102e371c:	e3a0000a 	mov	r0, #10
102e3720:	e12fff39 	blx	r9
102e3724:	e59f23b8 	ldr	r2, [pc, #952]	; 102e3ae4 <proc_main_task+0x9c4>
102e3728:	e59f03b8 	ldr	r0, [pc, #952]	; 102e3ae8 <proc_main_task+0x9c8>
102e372c:	e12fff32 	blx	r2
102e3730:	e3a02b01 	mov	r2, #1024	; 0x400
102e3734:	e59d3008 	ldr	r3, [sp, #8]
102e3738:	e250c000 	subs	ip, r0, #0
102e373c:	0a000061 	beq	102e38c8 <proc_main_task+0x7a8>
102e3740:	e1a01003 	mov	r1, r3
102e3744:	e59f02f8 	ldr	r0, [pc, #760]	; 102e3a44 <proc_main_task+0x924>
102e3748:	e12fff38 	blx	r8
102e374c:	e59f1398 	ldr	r1, [pc, #920]	; 102e3aec <proc_main_task+0x9cc>
102e3750:	e59b3000 	ldr	r3, [fp]
102e3754:	e59f02e8 	ldr	r0, [pc, #744]	; 102e3a44 <proc_main_task+0x924>
102e3758:	e12fff33 	blx	r3
102e375c:	e59f02e0 	ldr	r0, [pc, #736]	; 102e3a44 <proc_main_task+0x924>
102e3760:	e12fff3a 	blx	sl
102e3764:	e59f12d8 	ldr	r1, [pc, #728]	; 102e3a44 <proc_main_task+0x924>
102e3768:	e59f32c0 	ldr	r3, [pc, #704]	; 102e3a30 <proc_main_task+0x910>
102e376c:	e1a02000 	mov	r2, r0
102e3770:	e3a0000a 	mov	r0, #10
102e3774:	e12fff33 	blx	r3
102e3778:	eafffeb6 	b	102e3258 <proc_main_task+0x138>
102e377c:	e1a01008 	mov	r1, r8
102e3780:	e3a02b01 	mov	r2, #1024	; 0x400
102e3784:	e59f02b8 	ldr	r0, [pc, #696]	; 102e3a44 <proc_main_task+0x924>
102e3788:	e12fff35 	blx	r5
102e378c:	e59f135c 	ldr	r1, [pc, #860]	; 102e3af0 <proc_main_task+0x9d0>
102e3790:	e5973000 	ldr	r3, [r7]
102e3794:	e59f02a8 	ldr	r0, [pc, #680]	; 102e3a44 <proc_main_task+0x924>
102e3798:	e12fff33 	blx	r3
102e379c:	eafffee6 	b	102e333c <proc_main_task+0x21c>
102e37a0:	e59f12ec 	ldr	r1, [pc, #748]	; 102e3a94 <proc_main_task+0x974>
102e37a4:	e3a020b0 	mov	r2, #176	; 0xb0
102e37a8:	e59f32d4 	ldr	r3, [pc, #724]	; 102e3a84 <proc_main_task+0x964>
102e37ac:	e3a0000d 	mov	r0, #13
102e37b0:	e12fff33 	blx	r3
102e37b4:	e3a01000 	mov	r1, #0
102e37b8:	e3a02b01 	mov	r2, #1024	; 0x400
102e37bc:	e1a03000 	mov	r3, r0
102e37c0:	e58d3008 	str	r3, [sp, #8]
102e37c4:	e59f0278 	ldr	r0, [pc, #632]	; 102e3a44 <proc_main_task+0x924>
102e37c8:	e12fff3b 	blx	fp
102e37cc:	e59d3008 	ldr	r3, [sp, #8]
102e37d0:	e59f12b4 	ldr	r1, [pc, #692]	; 102e3a8c <proc_main_task+0x96c>
102e37d4:	e1a02003 	mov	r2, r3
102e37d8:	e59f0264 	ldr	r0, [pc, #612]	; 102e3a44 <proc_main_task+0x924>
102e37dc:	e5983000 	ldr	r3, [r8]
102e37e0:	e12fff33 	blx	r3
102e37e4:	e59f0258 	ldr	r0, [pc, #600]	; 102e3a44 <proc_main_task+0x924>
102e37e8:	e12fff3a 	blx	sl
102e37ec:	e59f323c 	ldr	r3, [pc, #572]	; 102e3a30 <proc_main_task+0x910>
102e37f0:	e59f124c 	ldr	r1, [pc, #588]	; 102e3a44 <proc_main_task+0x924>
102e37f4:	e1a02000 	mov	r2, r0
102e37f8:	e3a0000a 	mov	r0, #10
102e37fc:	e12fff33 	blx	r3
102e3800:	e3a02b01 	mov	r2, #1024	; 0x400
102e3804:	e3a01000 	mov	r1, #0
102e3808:	e59f0234 	ldr	r0, [pc, #564]	; 102e3a44 <proc_main_task+0x924>
102e380c:	e12fff3b 	blx	fp
102e3810:	e5983000 	ldr	r3, [r8]
102e3814:	e59f12d8 	ldr	r1, [pc, #728]	; 102e3af4 <proc_main_task+0x9d4>
102e3818:	e59f0224 	ldr	r0, [pc, #548]	; 102e3a44 <proc_main_task+0x924>
102e381c:	e12fff33 	blx	r3
102e3820:	e59f021c 	ldr	r0, [pc, #540]	; 102e3a44 <proc_main_task+0x924>
102e3824:	e12fff3a 	blx	sl
102e3828:	e59fc200 	ldr	ip, [pc, #512]	; 102e3a30 <proc_main_task+0x910>
102e382c:	e59f1210 	ldr	r1, [pc, #528]	; 102e3a44 <proc_main_task+0x924>
102e3830:	e1a02000 	mov	r2, r0
102e3834:	e3a0000a 	mov	r0, #10
102e3838:	e12fff3c 	blx	ip
102e383c:	e3a01000 	mov	r1, #0
102e3840:	e3a02b01 	mov	r2, #1024	; 0x400
102e3844:	e59f01f8 	ldr	r0, [pc, #504]	; 102e3a44 <proc_main_task+0x924>
102e3848:	e12fff3b 	blx	fp
102e384c:	e59f0248 	ldr	r0, [pc, #584]	; 102e3a9c <proc_main_task+0x97c>
102e3850:	e58d0000 	str	r0, [sp]
102e3854:	e2402084 	sub	r2, r0, #132	; 0x84
102e3858:	e2823064 	add	r3, r2, #100	; 0x64
102e385c:	e59f1294 	ldr	r1, [pc, #660]	; 102e3af8 <proc_main_task+0x9d8>
102e3860:	e598c000 	ldr	ip, [r8]
102e3864:	e59f01d8 	ldr	r0, [pc, #472]	; 102e3a44 <proc_main_task+0x924>
102e3868:	e12fff3c 	blx	ip
102e386c:	e59f01d0 	ldr	r0, [pc, #464]	; 102e3a44 <proc_main_task+0x924>
102e3870:	e12fff3a 	blx	sl
102e3874:	e59f11c8 	ldr	r1, [pc, #456]	; 102e3a44 <proc_main_task+0x924>
102e3878:	e59f31b0 	ldr	r3, [pc, #432]	; 102e3a30 <proc_main_task+0x910>
102e387c:	e1a02000 	mov	r2, r0
102e3880:	e3a0000a 	mov	r0, #10
102e3884:	e12fff33 	blx	r3
102e3888:	eafffef8 	b	102e3470 <proc_main_task+0x350>
102e388c:	e3a00001 	mov	r0, #1
102e3890:	e59f3264 	ldr	r3, [pc, #612]	; 102e3afc <proc_main_task+0x9dc>
102e3894:	e12fff33 	blx	r3
102e3898:	e250a000 	subs	sl, r0, #0
102e389c:	0a000032 	beq	102e396c <proc_main_task+0x84c>
102e38a0:	e1a01008 	mov	r1, r8
102e38a4:	e3a02b01 	mov	r2, #1024	; 0x400
102e38a8:	e59f0194 	ldr	r0, [pc, #404]	; 102e3a44 <proc_main_task+0x924>
102e38ac:	e12fff35 	blx	r5
102e38b0:	e1a0200a 	mov	r2, sl
102e38b4:	e59f1244 	ldr	r1, [pc, #580]	; 102e3b00 <proc_main_task+0x9e0>
102e38b8:	e5973000 	ldr	r3, [r7]
102e38bc:	e59f0180 	ldr	r0, [pc, #384]	; 102e3a44 <proc_main_task+0x924>
102e38c0:	e12fff33 	blx	r3
102e38c4:	eafffe9c 	b	102e333c <proc_main_task+0x21c>
102e38c8:	e1a0100c 	mov	r1, ip
102e38cc:	e58dc00c 	str	ip, [sp, #12]
102e38d0:	e59f016c 	ldr	r0, [pc, #364]	; 102e3a44 <proc_main_task+0x924>
102e38d4:	e12fff38 	blx	r8
102e38d8:	e59f1224 	ldr	r1, [pc, #548]	; 102e3b04 <proc_main_task+0x9e4>
102e38dc:	e59b3000 	ldr	r3, [fp]
102e38e0:	e59f015c 	ldr	r0, [pc, #348]	; 102e3a44 <proc_main_task+0x924>
102e38e4:	e12fff33 	blx	r3
102e38e8:	e59f0154 	ldr	r0, [pc, #340]	; 102e3a44 <proc_main_task+0x924>
102e38ec:	e12fff3a 	blx	sl
102e38f0:	e59f114c 	ldr	r1, [pc, #332]	; 102e3a44 <proc_main_task+0x924>
102e38f4:	e59f3134 	ldr	r3, [pc, #308]	; 102e3a30 <proc_main_task+0x910>
102e38f8:	e1a02000 	mov	r2, r0
102e38fc:	e3a0000a 	mov	r0, #10
102e3900:	e12fff33 	blx	r3
102e3904:	e59f21fc 	ldr	r2, [pc, #508]	; 102e3b08 <proc_main_task+0x9e8>
102e3908:	e28d0018 	add	r0, sp, #24
102e390c:	e12fff32 	blx	r2
102e3910:	e3a02b01 	mov	r2, #1024	; 0x400
102e3914:	e59dc00c 	ldr	ip, [sp, #12]
102e3918:	e2501000 	subs	r1, r0, #0
102e391c:	0a00001f 	beq	102e39a0 <proc_main_task+0x880>
102e3920:	e1a0100c 	mov	r1, ip
102e3924:	e59f0118 	ldr	r0, [pc, #280]	; 102e3a44 <proc_main_task+0x924>
102e3928:	e12fff38 	blx	r8
102e392c:	e59f11d8 	ldr	r1, [pc, #472]	; 102e3b0c <proc_main_task+0x9ec>
102e3930:	eaffff86 	b	102e3750 <proc_main_task+0x630>
102e3934:	e3a02b01 	mov	r2, #1024	; 0x400
102e3938:	e59f0104 	ldr	r0, [pc, #260]	; 102e3a44 <proc_main_task+0x924>
102e393c:	e12fff35 	blx	r5
102e3940:	e59f11c8 	ldr	r1, [pc, #456]	; 102e3b10 <proc_main_task+0x9f0>
102e3944:	e5973000 	ldr	r3, [r7]
102e3948:	e59f00f4 	ldr	r0, [pc, #244]	; 102e3a44 <proc_main_task+0x924>
102e394c:	e12fff33 	blx	r3
102e3950:	e59f00ec 	ldr	r0, [pc, #236]	; 102e3a44 <proc_main_task+0x924>
102e3954:	e12fff36 	blx	r6
102e3958:	e59f10e4 	ldr	r1, [pc, #228]	; 102e3a44 <proc_main_task+0x924>
102e395c:	e1a02000 	mov	r2, r0
102e3960:	e3a0000a 	mov	r0, #10
102e3964:	e12fff39 	blx	r9
102e3968:	eafffece 	b	102e34a8 <proc_main_task+0x388>
102e396c:	e1a0100a 	mov	r1, sl
102e3970:	e3a02b01 	mov	r2, #1024	; 0x400
102e3974:	e59f00c8 	ldr	r0, [pc, #200]	; 102e3a44 <proc_main_task+0x924>
102e3978:	e12fff35 	blx	r5
102e397c:	e59f1190 	ldr	r1, [pc, #400]	; 102e3b14 <proc_main_task+0x9f4>
102e3980:	eaffffef 	b	102e3944 <proc_main_task+0x824>
102e3984:	e1a0100a 	mov	r1, sl
102e3988:	e3a02b01 	mov	r2, #1024	; 0x400
102e398c:	e59f0144 	ldr	r0, [pc, #324]	; 102e3ad8 <proc_main_task+0x9b8>
102e3990:	e12fff35 	blx	r5
102e3994:	e1a02008 	mov	r2, r8
102e3998:	e59f1178 	ldr	r1, [pc, #376]	; 102e3b18 <proc_main_task+0x9f8>
102e399c:	eaffff3d 	b	102e3698 <proc_main_task+0x578>
102e39a0:	e59f009c 	ldr	r0, [pc, #156]	; 102e3a44 <proc_main_task+0x924>
102e39a4:	e12fff38 	blx	r8
102e39a8:	e59d2018 	ldr	r2, [sp, #24]
102e39ac:	e59f1168 	ldr	r1, [pc, #360]	; 102e3b1c <proc_main_task+0x9fc>
102e39b0:	e59b3000 	ldr	r3, [fp]
102e39b4:	e59f0088 	ldr	r0, [pc, #136]	; 102e3a44 <proc_main_task+0x924>
102e39b8:	e12fff33 	blx	r3
102e39bc:	e59f0080 	ldr	r0, [pc, #128]	; 102e3a44 <proc_main_task+0x924>
102e39c0:	e12fff3a 	blx	sl
102e39c4:	e59f1078 	ldr	r1, [pc, #120]	; 102e3a44 <proc_main_task+0x924>
102e39c8:	e59fc060 	ldr	ip, [pc, #96]	; 102e3a30 <proc_main_task+0x910>
102e39cc:	e1a02000 	mov	r2, r0
102e39d0:	e3a0000a 	mov	r0, #10
102e39d4:	e12fff3c 	blx	ip
102e39d8:	eafffe1e 	b	102e3258 <proc_main_task+0x138>
102e39dc:	e12fff35 	blx	r5
102e39e0:	e1a02008 	mov	r2, r8
102e39e4:	e59f1134 	ldr	r1, [pc, #308]	; 102e3b20 <proc_main_task+0xa00>
102e39e8:	eaffff2a 	b	102e3698 <proc_main_task+0x578>
102e39ec:	e1a00008 	mov	r0, r8
102e39f0:	e59f10c8 	ldr	r1, [pc, #200]	; 102e3ac0 <proc_main_task+0x9a0>
102e39f4:	e59f30c0 	ldr	r3, [pc, #192]	; 102e3abc <proc_main_task+0x99c>
102e39f8:	e12fff33 	blx	r3
102e39fc:	e3500000 	cmp	r0, #0
102e3a00:	13a0a002 	movne	sl, #2
102e3a04:	03a0a000 	moveq	sl, #0
102e3a08:	eafffef8 	b	102e35f0 <proc_main_task+0x4d0>
102e3a0c:	f03d2024 	.word	0xf03d2024
102e3a10:	102e55f0 	.word	0x102e55f0
102e3a14:	102e719c 	.word	0x102e719c
102e3a18:	0001d4c0 	.word	0x0001d4c0
102e3a1c:	f03d6710 	.word	0xf03d6710
102e3a20:	102e2e20 	.word	0x102e2e20
102e3a24:	f03d6720 	.word	0xf03d6720
102e3a28:	102e6774 	.word	0x102e6774
102e3a2c:	102e6624 	.word	0x102e6624
102e3a30:	102e6ff4 	.word	0x102e6ff4
102e3a34:	102e6dd4 	.word	0x102e6dd4
102e3a38:	f03d5a7c 	.word	0xf03d5a7c
102e3a3c:	102e6f14 	.word	0x102e6f14
102e3a40:	102e6f84 	.word	0x102e6f84
102e3a44:	f03d3a84 	.word	0xf03d3a84
102e3a48:	102e8df8 	.word	0x102e8df8
102e3a4c:	102e4ff4 	.word	0x102e4ff4
102e3a50:	102e6e44 	.word	0x102e6e44
102e3a54:	00000101 	.word	0x00000101
102e3a58:	102e8e14 	.word	0x102e8e14
102e3a5c:	102e6cb0 	.word	0x102e6cb0
102e3a60:	102e6adc 	.word	0x102e6adc
102e3a64:	00001001 	.word	0x00001001
102e3a68:	102e9094 	.word	0x102e9094
102e3a6c:	102e6a04 	.word	0x102e6a04
102e3a70:	102e6990 	.word	0x102e6990
102e3a74:	102e690c 	.word	0x102e690c
102e3a78:	102e90ac 	.word	0x102e90ac
102e3a7c:	102e8e20 	.word	0x102e8e20
102e3a80:	102e6084 	.word	0x102e6084
102e3a84:	102e0d98 	.word	0x102e0d98
102e3a88:	f03d2088 	.word	0xf03d2088
102e3a8c:	102e8e38 	.word	0x102e8e38
102e3a90:	102e6474 	.word	0x102e6474
102e3a94:	f03d3ec4 	.word	0xf03d3ec4
102e3a98:	f03d3f28 	.word	0xf03d3f28
102e3a9c:	f03d3f48 	.word	0xf03d3f48
102e3aa0:	102e8ea8 	.word	0x102e8ea8
102e3aa4:	102dc4bc 	.word	0x102dc4bc
102e3aa8:	f03d2090 	.word	0xf03d2090
102e3aac:	102dc5c8 	.word	0x102dc5c8
102e3ab0:	102e8f50 	.word	0x102e8f50
102e3ab4:	102e9008 	.word	0x102e9008
102e3ab8:	102e9020 	.word	0x102e9020
102e3abc:	102e6884 	.word	0x102e6884
102e3ac0:	102e9028 	.word	0x102e9028
102e3ac4:	102e9034 	.word	0x102e9034
102e3ac8:	102e9064 	.word	0x102e9064
102e3acc:	102e9068 	.word	0x102e9068
102e3ad0:	102e5668 	.word	0x102e5668
102e3ad4:	102e56d0 	.word	0x102e56d0
102e3ad8:	f03d5444 	.word	0xf03d5444
102e3adc:	102e908c 	.word	0x102e908c
102e3ae0:	102e8f70 	.word	0x102e8f70
102e3ae4:	102dcedc 	.word	0x102dcedc
102e3ae8:	102e2688 	.word	0x102e2688
102e3aec:	102e8f8c 	.word	0x102e8f8c
102e3af0:	102e8ed0 	.word	0x102e8ed0
102e3af4:	102e8e74 	.word	0x102e8e74
102e3af8:	102e8e98 	.word	0x102e8e98
102e3afc:	102dc434 	.word	0x102dc434
102e3b00:	102e8f18 	.word	0x102e8f18
102e3b04:	102e8fa8 	.word	0x102e8fa8
102e3b08:	102dc9a4 	.word	0x102dc9a4
102e3b0c:	102e8fd4 	.word	0x102e8fd4
102e3b10:	102e8ef8 	.word	0x102e8ef8
102e3b14:	102e8f38 	.word	0x102e8f38
102e3b18:	102e8d2c 	.word	0x102e8d2c
102e3b1c:	102e8fec 	.word	0x102e8fec
102e3b20:	102e9084 	.word	0x102e9084

102e3b24 <RIL_MQTT_QMTCFG_Ali>:
102e3b24:	e92d45f0 	push	{r4, r5, r6, r7, r8, sl, lr}
102e3b28:	e59f80b0 	ldr	r8, [pc, #176]	; 102e3be0 <RIL_MQTT_QMTCFG_Ali+0xbc>
102e3b2c:	e24dd0d4 	sub	sp, sp, #212	; 0xd4
102e3b30:	e1a04000 	mov	r4, r0
102e3b34:	e59fa0a8 	ldr	sl, [pc, #168]	; 102e3be4 <RIL_MQTT_QMTCFG_Ali+0xc0>
102e3b38:	e3a01000 	mov	r1, #0
102e3b3c:	e3a020c8 	mov	r2, #200	; 0xc8
102e3b40:	e28d0008 	add	r0, sp, #8
102e3b44:	e12fff3a 	blx	sl
102e3b48:	e1a02004 	mov	r2, r4
102e3b4c:	e5983000 	ldr	r3, [r8]
102e3b50:	e59f1090 	ldr	r1, [pc, #144]	; 102e3be8 <RIL_MQTT_QMTCFG_Ali+0xc4>
102e3b54:	e28d0008 	add	r0, sp, #8
102e3b58:	e12fff33 	blx	r3
102e3b5c:	e59f7088 	ldr	r7, [pc, #136]	; 102e3bec <RIL_MQTT_QMTCFG_Ali+0xc8>
102e3b60:	e28d0008 	add	r0, sp, #8
102e3b64:	e12fff37 	blx	r7
102e3b68:	e3a05000 	mov	r5, #0
102e3b6c:	e1a03005 	mov	r3, r5
102e3b70:	e1a02005 	mov	r2, r5
102e3b74:	e59fc074 	ldr	ip, [pc, #116]	; 102e3bf0 <RIL_MQTT_QMTCFG_Ali+0xcc>
102e3b78:	e58d5000 	str	r5, [sp]
102e3b7c:	e59f4070 	ldr	r4, [pc, #112]	; 102e3bf4 <RIL_MQTT_QMTCFG_Ali+0xd0>
102e3b80:	e1a01000 	mov	r1, r0
102e3b84:	e28d0008 	add	r0, sp, #8
102e3b88:	e12fff3c 	blx	ip
102e3b8c:	e1a01005 	mov	r1, r5
102e3b90:	e3a02b01 	mov	r2, #1024	; 0x400
102e3b94:	e1a06000 	mov	r6, r0
102e3b98:	e1a00004 	mov	r0, r4
102e3b9c:	e12fff3a 	blx	sl
102e3ba0:	e28d2008 	add	r2, sp, #8
102e3ba4:	e1a03006 	mov	r3, r6
102e3ba8:	e598c000 	ldr	ip, [r8]
102e3bac:	e59f1044 	ldr	r1, [pc, #68]	; 102e3bf8 <RIL_MQTT_QMTCFG_Ali+0xd4>
102e3bb0:	e1a00004 	mov	r0, r4
102e3bb4:	e12fff3c 	blx	ip
102e3bb8:	e1a00004 	mov	r0, r4
102e3bbc:	e12fff37 	blx	r7
102e3bc0:	e1a01004 	mov	r1, r4
102e3bc4:	e59f3030 	ldr	r3, [pc, #48]	; 102e3bfc <RIL_MQTT_QMTCFG_Ali+0xd8>
102e3bc8:	e1a02000 	mov	r2, r0
102e3bcc:	e3a0000a 	mov	r0, #10
102e3bd0:	e12fff33 	blx	r3
102e3bd4:	e1a00006 	mov	r0, r6
102e3bd8:	e28dd0d4 	add	sp, sp, #212	; 0xd4
102e3bdc:	e8bd85f0 	pop	{r4, r5, r6, r7, r8, sl, pc}
102e3be0:	f03d6720 	.word	0xf03d6720
102e3be4:	102e6774 	.word	0x102e6774
102e3be8:	102e90c8 	.word	0x102e90c8
102e3bec:	102e6624 	.word	0x102e6624
102e3bf0:	102e6158 	.word	0x102e6158
102e3bf4:	f03d3a84 	.word	0xf03d3a84
102e3bf8:	102e90e0 	.word	0x102e90e0
102e3bfc:	102e6ff4 	.word	0x102e6ff4

102e3c00 <RIL_MQTT_QMTOPEN>:
102e3c00:	e92d47f0 	push	{r4, r5, r6, r7, r8, r9, sl, lr}
102e3c04:	e24dd0d0 	sub	sp, sp, #208	; 0xd0
102e3c08:	e59f416c 	ldr	r4, [pc, #364]	; 102e3d7c <RIL_MQTT_QMTOPEN+0x17c>
102e3c0c:	e1a0a000 	mov	sl, r0
102e3c10:	e1a06001 	mov	r6, r1
102e3c14:	e1a05002 	mov	r5, r2
102e3c18:	e3a01000 	mov	r1, #0
102e3c1c:	e3a020c8 	mov	r2, #200	; 0xc8
102e3c20:	e59f8158 	ldr	r8, [pc, #344]	; 102e3d80 <RIL_MQTT_QMTOPEN+0x180>
102e3c24:	e28d0008 	add	r0, sp, #8
102e3c28:	e12fff38 	blx	r8
102e3c2c:	e59f0150 	ldr	r0, [pc, #336]	; 102e3d84 <RIL_MQTT_QMTOPEN+0x184>
102e3c30:	e59f7150 	ldr	r7, [pc, #336]	; 102e3d88 <RIL_MQTT_QMTOPEN+0x188>
102e3c34:	e5040234 	str	r0, [r4, #-564]	; 0xfffffdcc
102e3c38:	e3a00001 	mov	r0, #1
102e3c3c:	e5440238 	strb	r0, [r4, #-568]	; 0xfffffdc8
102e3c40:	e3a000ff 	mov	r0, #255	; 0xff
102e3c44:	e1a0200a 	mov	r2, sl
102e3c48:	e59f113c 	ldr	r1, [pc, #316]	; 102e3d8c <RIL_MQTT_QMTOPEN+0x18c>
102e3c4c:	e59f313c 	ldr	r3, [pc, #316]	; 102e3d90 <RIL_MQTT_QMTOPEN+0x190>
102e3c50:	e597c000 	ldr	ip, [r7]
102e3c54:	e5040230 	str	r0, [r4, #-560]	; 0xfffffdd0
102e3c58:	e58d6000 	str	r6, [sp]
102e3c5c:	e58d5004 	str	r5, [sp, #4]
102e3c60:	e28d0008 	add	r0, sp, #8
102e3c64:	e12fff3c 	blx	ip
102e3c68:	e59f6124 	ldr	r6, [pc, #292]	; 102e3d94 <RIL_MQTT_QMTOPEN+0x194>
102e3c6c:	e28d0008 	add	r0, sp, #8
102e3c70:	e12fff36 	blx	r6
102e3c74:	e3a0a000 	mov	sl, #0
102e3c78:	e2443f8e 	sub	r3, r4, #568	; 0x238
102e3c7c:	e59fc114 	ldr	ip, [pc, #276]	; 102e3d98 <RIL_MQTT_QMTOPEN+0x198>
102e3c80:	e59f2114 	ldr	r2, [pc, #276]	; 102e3d9c <RIL_MQTT_QMTOPEN+0x19c>
102e3c84:	e58da000 	str	sl, [sp]
102e3c88:	e59f9110 	ldr	r9, [pc, #272]	; 102e3da0 <RIL_MQTT_QMTOPEN+0x1a0>
102e3c8c:	e1a01000 	mov	r1, r0
102e3c90:	e28d0008 	add	r0, sp, #8
102e3c94:	e12fff3c 	blx	ip
102e3c98:	e1a0100a 	mov	r1, sl
102e3c9c:	e3a02b01 	mov	r2, #1024	; 0x400
102e3ca0:	e1a05000 	mov	r5, r0
102e3ca4:	e59f00f8 	ldr	r0, [pc, #248]	; 102e3da4 <RIL_MQTT_QMTOPEN+0x1a4>
102e3ca8:	e12fff38 	blx	r8
102e3cac:	e59f10f4 	ldr	r1, [pc, #244]	; 102e3da8 <RIL_MQTT_QMTOPEN+0x1a8>
102e3cb0:	e28d2008 	add	r2, sp, #8
102e3cb4:	e1a03005 	mov	r3, r5
102e3cb8:	e597c000 	ldr	ip, [r7]
102e3cbc:	e59f00e0 	ldr	r0, [pc, #224]	; 102e3da4 <RIL_MQTT_QMTOPEN+0x1a4>
102e3cc0:	e12fff3c 	blx	ip
102e3cc4:	e59f00d8 	ldr	r0, [pc, #216]	; 102e3da4 <RIL_MQTT_QMTOPEN+0x1a4>
102e3cc8:	e12fff36 	blx	r6
102e3ccc:	e59f10d0 	ldr	r1, [pc, #208]	; 102e3da4 <RIL_MQTT_QMTOPEN+0x1a4>
102e3cd0:	e1a02000 	mov	r2, r0
102e3cd4:	e3a0000a 	mov	r0, #10
102e3cd8:	e12fff39 	blx	r9
102e3cdc:	e155000a 	cmp	r5, sl
102e3ce0:	1a000005 	bne	102e3cfc <RIL_MQTT_QMTOPEN+0xfc>
102e3ce4:	e5143230 	ldr	r3, [r4, #-560]	; 0xfffffdd0
102e3ce8:	e3530000 	cmp	r3, #0
102e3cec:	1a000011 	bne	102e3d38 <RIL_MQTT_QMTOPEN+0x138>
102e3cf0:	e1a00005 	mov	r0, r5
102e3cf4:	e28dd0d0 	add	sp, sp, #208	; 0xd0
102e3cf8:	e8bd87f0 	pop	{r4, r5, r6, r7, r8, r9, sl, pc}
102e3cfc:	e3a02b01 	mov	r2, #1024	; 0x400
102e3d00:	e1a0100a 	mov	r1, sl
102e3d04:	e59f0098 	ldr	r0, [pc, #152]	; 102e3da4 <RIL_MQTT_QMTOPEN+0x1a4>
102e3d08:	e12fff38 	blx	r8
102e3d0c:	e59f1098 	ldr	r1, [pc, #152]	; 102e3dac <RIL_MQTT_QMTOPEN+0x1ac>
102e3d10:	e5973000 	ldr	r3, [r7]
102e3d14:	e59f0088 	ldr	r0, [pc, #136]	; 102e3da4 <RIL_MQTT_QMTOPEN+0x1a4>
102e3d18:	e12fff33 	blx	r3
102e3d1c:	e59f0080 	ldr	r0, [pc, #128]	; 102e3da4 <RIL_MQTT_QMTOPEN+0x1a4>
102e3d20:	e12fff36 	blx	r6
102e3d24:	e59f1078 	ldr	r1, [pc, #120]	; 102e3da4 <RIL_MQTT_QMTOPEN+0x1a4>
102e3d28:	e1a02000 	mov	r2, r0
102e3d2c:	e3a0000a 	mov	r0, #10
102e3d30:	e12fff39 	blx	r9
102e3d34:	eaffffed 	b	102e3cf0 <RIL_MQTT_QMTOPEN+0xf0>
102e3d38:	e1a01005 	mov	r1, r5
102e3d3c:	e3a02b01 	mov	r2, #1024	; 0x400
102e3d40:	e59f005c 	ldr	r0, [pc, #92]	; 102e3da4 <RIL_MQTT_QMTOPEN+0x1a4>
102e3d44:	e12fff38 	blx	r8
102e3d48:	e59f1060 	ldr	r1, [pc, #96]	; 102e3db0 <RIL_MQTT_QMTOPEN+0x1b0>
102e3d4c:	e5142230 	ldr	r2, [r4, #-560]	; 0xfffffdd0
102e3d50:	e5973000 	ldr	r3, [r7]
102e3d54:	e59f0048 	ldr	r0, [pc, #72]	; 102e3da4 <RIL_MQTT_QMTOPEN+0x1a4>
102e3d58:	e12fff33 	blx	r3
102e3d5c:	e59f0040 	ldr	r0, [pc, #64]	; 102e3da4 <RIL_MQTT_QMTOPEN+0x1a4>
102e3d60:	e12fff36 	blx	r6
102e3d64:	e59f1038 	ldr	r1, [pc, #56]	; 102e3da4 <RIL_MQTT_QMTOPEN+0x1a4>
102e3d68:	e59f5044 	ldr	r5, [pc, #68]	; 102e3db4 <RIL_MQTT_QMTOPEN+0x1b4>
102e3d6c:	e1a02000 	mov	r2, r0
102e3d70:	e3a0000a 	mov	r0, #10
102e3d74:	e12fff39 	blx	r9
102e3d78:	eaffffdc 	b	102e3cf0 <RIL_MQTT_QMTOPEN+0xf0>
102e3d7c:	f03d5a7c 	.word	0xf03d5a7c
102e3d80:	102e6774 	.word	0x102e6774
102e3d84:	102e9100 	.word	0x102e9100
102e3d88:	f03d6720 	.word	0xf03d6720
102e3d8c:	102e910c 	.word	0x102e910c
102e3d90:	f03d20c8 	.word	0xf03d20c8
102e3d94:	102e6624 	.word	0x102e6624
102e3d98:	102e6158 	.word	0x102e6158
102e3d9c:	102e300c 	.word	0x102e300c
102e3da0:	102e6ff4 	.word	0x102e6ff4
102e3da4:	f03d3a84 	.word	0xf03d3a84
102e3da8:	102e90e0 	.word	0x102e90e0
102e3dac:	102e9128 	.word	0x102e9128
102e3db0:	102e914c 	.word	0x102e914c
102e3db4:	fffffda0 	.word	0xfffffda0

102e3db8 <RIL_MQTT_QMTCONN>:
102e3db8:	e92d45f0 	push	{r4, r5, r6, r7, r8, sl, lr}
102e3dbc:	e24dd0d4 	sub	sp, sp, #212	; 0xd4
102e3dc0:	e1a04002 	mov	r4, r2
102e3dc4:	e1a0a000 	mov	sl, r0
102e3dc8:	e1a06001 	mov	r6, r1
102e3dcc:	e28d0008 	add	r0, sp, #8
102e3dd0:	e3a01000 	mov	r1, #0
102e3dd4:	e3a020c8 	mov	r2, #200	; 0xc8
102e3dd8:	e59f7188 	ldr	r7, [pc, #392]	; 102e3f68 <RIL_MQTT_QMTCONN+0x1b0>
102e3ddc:	e1a05003 	mov	r5, r3
102e3de0:	e12fff37 	blx	r7
102e3de4:	e59fc180 	ldr	ip, [pc, #384]	; 102e3f6c <RIL_MQTT_QMTCONN+0x1b4>
102e3de8:	e59f3180 	ldr	r3, [pc, #384]	; 102e3f70 <RIL_MQTT_QMTCONN+0x1b8>
102e3dec:	e50c3234 	str	r3, [ip, #-564]	; 0xfffffdcc
102e3df0:	e3a03001 	mov	r3, #1
102e3df4:	e54c3238 	strb	r3, [ip, #-568]	; 0xfffffdc8
102e3df8:	e3550000 	cmp	r5, #0
102e3dfc:	13540000 	cmpne	r4, #0
102e3e00:	e3a030ff 	mov	r3, #255	; 0xff
102e3e04:	e59f8168 	ldr	r8, [pc, #360]	; 102e3f74 <RIL_MQTT_QMTCONN+0x1bc>
102e3e08:	e50c3230 	str	r3, [ip, #-560]	; 0xfffffdd0
102e3e0c:	0a00002e 	beq	102e3ecc <RIL_MQTT_QMTCONN+0x114>
102e3e10:	e88d0030 	stm	sp, {r4, r5}
102e3e14:	e598c000 	ldr	ip, [r8]
102e3e18:	e28d0008 	add	r0, sp, #8
102e3e1c:	e59f1154 	ldr	r1, [pc, #340]	; 102e3f78 <RIL_MQTT_QMTCONN+0x1c0>
102e3e20:	e1a0200a 	mov	r2, sl
102e3e24:	e1a03006 	mov	r3, r6
102e3e28:	e12fff3c 	blx	ip
102e3e2c:	e59f5148 	ldr	r5, [pc, #328]	; 102e3f7c <RIL_MQTT_QMTCONN+0x1c4>
102e3e30:	e28d0008 	add	r0, sp, #8
102e3e34:	e12fff35 	blx	r5
102e3e38:	e59fa12c 	ldr	sl, [pc, #300]	; 102e3f6c <RIL_MQTT_QMTCONN+0x1b4>
102e3e3c:	e3a06000 	mov	r6, #0
102e3e40:	e24a3f8e 	sub	r3, sl, #568	; 0x238
102e3e44:	e59fc134 	ldr	ip, [pc, #308]	; 102e3f80 <RIL_MQTT_QMTCONN+0x1c8>
102e3e48:	e59f2134 	ldr	r2, [pc, #308]	; 102e3f84 <RIL_MQTT_QMTCONN+0x1cc>
102e3e4c:	e58d6000 	str	r6, [sp]
102e3e50:	e1a01000 	mov	r1, r0
102e3e54:	e28d0008 	add	r0, sp, #8
102e3e58:	e12fff3c 	blx	ip
102e3e5c:	e1a01006 	mov	r1, r6
102e3e60:	e3a02b01 	mov	r2, #1024	; 0x400
102e3e64:	e1a04000 	mov	r4, r0
102e3e68:	e59f0118 	ldr	r0, [pc, #280]	; 102e3f88 <RIL_MQTT_QMTCONN+0x1d0>
102e3e6c:	e12fff37 	blx	r7
102e3e70:	e598c000 	ldr	ip, [r8]
102e3e74:	e59f1110 	ldr	r1, [pc, #272]	; 102e3f8c <RIL_MQTT_QMTCONN+0x1d4>
102e3e78:	e28d2008 	add	r2, sp, #8
102e3e7c:	e1a03004 	mov	r3, r4
102e3e80:	e59f0100 	ldr	r0, [pc, #256]	; 102e3f88 <RIL_MQTT_QMTCONN+0x1d0>
102e3e84:	e12fff3c 	blx	ip
102e3e88:	e59f00f8 	ldr	r0, [pc, #248]	; 102e3f88 <RIL_MQTT_QMTCONN+0x1d0>
102e3e8c:	e12fff35 	blx	r5
102e3e90:	e59f70f8 	ldr	r7, [pc, #248]	; 102e3f90 <RIL_MQTT_QMTCONN+0x1d8>
102e3e94:	e59f10ec 	ldr	r1, [pc, #236]	; 102e3f88 <RIL_MQTT_QMTCONN+0x1d0>
102e3e98:	e59f80d4 	ldr	r8, [pc, #212]	; 102e3f74 <RIL_MQTT_QMTCONN+0x1bc>
102e3e9c:	e1a02000 	mov	r2, r0
102e3ea0:	e3a0000a 	mov	r0, #10
102e3ea4:	e12fff37 	blx	r7
102e3ea8:	e1540006 	cmp	r4, r6
102e3eac:	e59fc0b4 	ldr	ip, [pc, #180]	; 102e3f68 <RIL_MQTT_QMTCONN+0x1b0>
102e3eb0:	1a00000c 	bne	102e3ee8 <RIL_MQTT_QMTCONN+0x130>
102e3eb4:	e51a3230 	ldr	r3, [sl, #-560]	; 0xfffffdd0
102e3eb8:	e3530000 	cmp	r3, #0
102e3ebc:	1a000018 	bne	102e3f24 <RIL_MQTT_QMTCONN+0x16c>
102e3ec0:	e1a00004 	mov	r0, r4
102e3ec4:	e28dd0d4 	add	sp, sp, #212	; 0xd4
102e3ec8:	e8bd85f0 	pop	{r4, r5, r6, r7, r8, sl, pc}
102e3ecc:	e28d0008 	add	r0, sp, #8
102e3ed0:	e598c000 	ldr	ip, [r8]
102e3ed4:	e59f10b8 	ldr	r1, [pc, #184]	; 102e3f94 <RIL_MQTT_QMTCONN+0x1dc>
102e3ed8:	e1a0200a 	mov	r2, sl
102e3edc:	e1a03006 	mov	r3, r6
102e3ee0:	e12fff3c 	blx	ip
102e3ee4:	eaffffd0 	b	102e3e2c <RIL_MQTT_QMTCONN+0x74>
102e3ee8:	e3a02b01 	mov	r2, #1024	; 0x400
102e3eec:	e1a01006 	mov	r1, r6
102e3ef0:	e59f0090 	ldr	r0, [pc, #144]	; 102e3f88 <RIL_MQTT_QMTCONN+0x1d0>
102e3ef4:	e12fff3c 	blx	ip
102e3ef8:	e59f1098 	ldr	r1, [pc, #152]	; 102e3f98 <RIL_MQTT_QMTCONN+0x1e0>
102e3efc:	e5983000 	ldr	r3, [r8]
102e3f00:	e59f0080 	ldr	r0, [pc, #128]	; 102e3f88 <RIL_MQTT_QMTCONN+0x1d0>
102e3f04:	e12fff33 	blx	r3
102e3f08:	e59f0078 	ldr	r0, [pc, #120]	; 102e3f88 <RIL_MQTT_QMTCONN+0x1d0>
102e3f0c:	e12fff35 	blx	r5
102e3f10:	e59f1070 	ldr	r1, [pc, #112]	; 102e3f88 <RIL_MQTT_QMTCONN+0x1d0>
102e3f14:	e1a02000 	mov	r2, r0
102e3f18:	e3a0000a 	mov	r0, #10
102e3f1c:	e12fff37 	blx	r7
102e3f20:	eaffffe6 	b	102e3ec0 <RIL_MQTT_QMTCONN+0x108>
102e3f24:	e1a01004 	mov	r1, r4
102e3f28:	e3a02b01 	mov	r2, #1024	; 0x400
102e3f2c:	e59f0054 	ldr	r0, [pc, #84]	; 102e3f88 <RIL_MQTT_QMTCONN+0x1d0>
102e3f30:	e12fff3c 	blx	ip
102e3f34:	e59f1060 	ldr	r1, [pc, #96]	; 102e3f9c <RIL_MQTT_QMTCONN+0x1e4>
102e3f38:	e51a2230 	ldr	r2, [sl, #-560]	; 0xfffffdd0
102e3f3c:	e5983000 	ldr	r3, [r8]
102e3f40:	e59f0040 	ldr	r0, [pc, #64]	; 102e3f88 <RIL_MQTT_QMTCONN+0x1d0>
102e3f44:	e12fff33 	blx	r3
102e3f48:	e59f0038 	ldr	r0, [pc, #56]	; 102e3f88 <RIL_MQTT_QMTCONN+0x1d0>
102e3f4c:	e12fff35 	blx	r5
102e3f50:	e59f1030 	ldr	r1, [pc, #48]	; 102e3f88 <RIL_MQTT_QMTCONN+0x1d0>
102e3f54:	e59f4044 	ldr	r4, [pc, #68]	; 102e3fa0 <RIL_MQTT_QMTCONN+0x1e8>
102e3f58:	e1a02000 	mov	r2, r0
102e3f5c:	e3a0000a 	mov	r0, #10
102e3f60:	e12fff37 	blx	r7
102e3f64:	eaffffd5 	b	102e3ec0 <RIL_MQTT_QMTCONN+0x108>
102e3f68:	102e6774 	.word	0x102e6774
102e3f6c:	f03d5a7c 	.word	0xf03d5a7c
102e3f70:	102e9170 	.word	0x102e9170
102e3f74:	f03d6720 	.word	0xf03d6720
102e3f78:	102e917c 	.word	0x102e917c
102e3f7c:	102e6624 	.word	0x102e6624
102e3f80:	102e6158 	.word	0x102e6158
102e3f84:	102e300c 	.word	0x102e300c
102e3f88:	f03d3a84 	.word	0xf03d3a84
102e3f8c:	102e90e0 	.word	0x102e90e0
102e3f90:	102e6ff4 	.word	0x102e6ff4
102e3f94:	102e919c 	.word	0x102e919c
102e3f98:	102e9128 	.word	0x102e9128
102e3f9c:	102e91b0 	.word	0x102e91b0
102e3fa0:	fffffda0 	.word	0xfffffda0

102e3fa4 <RIL_MQTT_QMTSUB>:
102e3fa4:	e92d45f0 	push	{r4, r5, r6, r7, r8, sl, lr}
102e3fa8:	e24dd0d4 	sub	sp, sp, #212	; 0xd4
102e3fac:	e1a05000 	mov	r5, r0
102e3fb0:	e1a04001 	mov	r4, r1
102e3fb4:	e1a08002 	mov	r8, r2
102e3fb8:	e28d0008 	add	r0, sp, #8
102e3fbc:	e3a01000 	mov	r1, #0
102e3fc0:	e3a020c8 	mov	r2, #200	; 0xc8
102e3fc4:	e59f7174 	ldr	r7, [pc, #372]	; 102e4140 <RIL_MQTT_QMTSUB+0x19c>
102e3fc8:	e1a06003 	mov	r6, r3
102e3fcc:	e12fff37 	blx	r7
102e3fd0:	e59d30f0 	ldr	r3, [sp, #240]	; 0xf0
102e3fd4:	e59fc168 	ldr	ip, [pc, #360]	; 102e4144 <RIL_MQTT_QMTSUB+0x1a0>
102e3fd8:	e3530000 	cmp	r3, #0
102e3fdc:	e59f3164 	ldr	r3, [pc, #356]	; 102e4148 <RIL_MQTT_QMTSUB+0x1a4>
102e3fe0:	e50c3234 	str	r3, [ip, #-564]	; 0xfffffdcc
102e3fe4:	e3a0e0ff 	mov	lr, #255	; 0xff
102e3fe8:	e3a03002 	mov	r3, #2
102e3fec:	e59fa158 	ldr	sl, [pc, #344]	; 102e414c <RIL_MQTT_QMTSUB+0x1a8>
102e3ff0:	e54c3238 	strb	r3, [ip, #-568]	; 0xfffffdc8
102e3ff4:	e50ce230 	str	lr, [ip, #-560]	; 0xfffffdd0
102e3ff8:	0a000036 	beq	102e40d8 <RIL_MQTT_QMTSUB+0x134>
102e3ffc:	e59f514c 	ldr	r5, [pc, #332]	; 102e4150 <RIL_MQTT_QMTSUB+0x1ac>
102e4000:	e28d0008 	add	r0, sp, #8
102e4004:	e12fff35 	blx	r5
102e4008:	e59f8134 	ldr	r8, [pc, #308]	; 102e4144 <RIL_MQTT_QMTSUB+0x1a0>
102e400c:	e3a06000 	mov	r6, #0
102e4010:	e2483f8e 	sub	r3, r8, #568	; 0x238
102e4014:	e59fc138 	ldr	ip, [pc, #312]	; 102e4154 <RIL_MQTT_QMTSUB+0x1b0>
102e4018:	e59f2138 	ldr	r2, [pc, #312]	; 102e4158 <RIL_MQTT_QMTSUB+0x1b4>
102e401c:	e58d6000 	str	r6, [sp]
102e4020:	e1a01000 	mov	r1, r0
102e4024:	e28d0008 	add	r0, sp, #8
102e4028:	e12fff3c 	blx	ip
102e402c:	e1a01006 	mov	r1, r6
102e4030:	e3a02b01 	mov	r2, #1024	; 0x400
102e4034:	e1a04000 	mov	r4, r0
102e4038:	e59f011c 	ldr	r0, [pc, #284]	; 102e415c <RIL_MQTT_QMTSUB+0x1b8>
102e403c:	e12fff37 	blx	r7
102e4040:	e59ac000 	ldr	ip, [sl]
102e4044:	e59f1114 	ldr	r1, [pc, #276]	; 102e4160 <RIL_MQTT_QMTSUB+0x1bc>
102e4048:	e28d2008 	add	r2, sp, #8
102e404c:	e1a03004 	mov	r3, r4
102e4050:	e59f0104 	ldr	r0, [pc, #260]	; 102e415c <RIL_MQTT_QMTSUB+0x1b8>
102e4054:	e12fff3c 	blx	ip
102e4058:	e59f00fc 	ldr	r0, [pc, #252]	; 102e415c <RIL_MQTT_QMTSUB+0x1b8>
102e405c:	e12fff35 	blx	r5
102e4060:	e59f70fc 	ldr	r7, [pc, #252]	; 102e4164 <RIL_MQTT_QMTSUB+0x1c0>
102e4064:	e59f10f0 	ldr	r1, [pc, #240]	; 102e415c <RIL_MQTT_QMTSUB+0x1b8>
102e4068:	e59fa0dc 	ldr	sl, [pc, #220]	; 102e414c <RIL_MQTT_QMTSUB+0x1a8>
102e406c:	e1a02000 	mov	r2, r0
102e4070:	e3a0000a 	mov	r0, #10
102e4074:	e12fff37 	blx	r7
102e4078:	e1540006 	cmp	r4, r6
102e407c:	e59fc0bc 	ldr	ip, [pc, #188]	; 102e4140 <RIL_MQTT_QMTSUB+0x19c>
102e4080:	1a000005 	bne	102e409c <RIL_MQTT_QMTSUB+0xf8>
102e4084:	e5183230 	ldr	r3, [r8, #-560]	; 0xfffffdd0
102e4088:	e3530000 	cmp	r3, #0
102e408c:	1a00001a 	bne	102e40fc <RIL_MQTT_QMTSUB+0x158>
102e4090:	e1a00004 	mov	r0, r4
102e4094:	e28dd0d4 	add	sp, sp, #212	; 0xd4
102e4098:	e8bd85f0 	pop	{r4, r5, r6, r7, r8, sl, pc}
102e409c:	e3a02b01 	mov	r2, #1024	; 0x400
102e40a0:	e1a01006 	mov	r1, r6
102e40a4:	e59f00b0 	ldr	r0, [pc, #176]	; 102e415c <RIL_MQTT_QMTSUB+0x1b8>
102e40a8:	e12fff3c 	blx	ip
102e40ac:	e59f10b4 	ldr	r1, [pc, #180]	; 102e4168 <RIL_MQTT_QMTSUB+0x1c4>
102e40b0:	e59a3000 	ldr	r3, [sl]
102e40b4:	e59f00a0 	ldr	r0, [pc, #160]	; 102e415c <RIL_MQTT_QMTSUB+0x1b8>
102e40b8:	e12fff33 	blx	r3
102e40bc:	e59f0098 	ldr	r0, [pc, #152]	; 102e415c <RIL_MQTT_QMTSUB+0x1b8>
102e40c0:	e12fff35 	blx	r5
102e40c4:	e59f1090 	ldr	r1, [pc, #144]	; 102e415c <RIL_MQTT_QMTSUB+0x1b8>
102e40c8:	e1a02000 	mov	r2, r0
102e40cc:	e3a0000a 	mov	r0, #10
102e40d0:	e12fff37 	blx	r7
102e40d4:	eaffffed 	b	102e4090 <RIL_MQTT_QMTSUB+0xec>
102e40d8:	e58d8000 	str	r8, [sp]
102e40dc:	e58d6004 	str	r6, [sp, #4]
102e40e0:	e59ac000 	ldr	ip, [sl]
102e40e4:	e28d0008 	add	r0, sp, #8
102e40e8:	e59f107c 	ldr	r1, [pc, #124]	; 102e416c <RIL_MQTT_QMTSUB+0x1c8>
102e40ec:	e1a02005 	mov	r2, r5
102e40f0:	e1a03004 	mov	r3, r4
102e40f4:	e12fff3c 	blx	ip
102e40f8:	eaffffbf 	b	102e3ffc <RIL_MQTT_QMTSUB+0x58>
102e40fc:	e1a01004 	mov	r1, r4
102e4100:	e3a02b01 	mov	r2, #1024	; 0x400
102e4104:	e59f0050 	ldr	r0, [pc, #80]	; 102e415c <RIL_MQTT_QMTSUB+0x1b8>
102e4108:	e12fff3c 	blx	ip
102e410c:	e59f105c 	ldr	r1, [pc, #92]	; 102e4170 <RIL_MQTT_QMTSUB+0x1cc>
102e4110:	e5182230 	ldr	r2, [r8, #-560]	; 0xfffffdd0
102e4114:	e59a3000 	ldr	r3, [sl]
102e4118:	e59f003c 	ldr	r0, [pc, #60]	; 102e415c <RIL_MQTT_QMTSUB+0x1b8>
102e411c:	e12fff33 	blx	r3
102e4120:	e59f0034 	ldr	r0, [pc, #52]	; 102e415c <RIL_MQTT_QMTSUB+0x1b8>
102e4124:	e12fff35 	blx	r5
102e4128:	e59f102c 	ldr	r1, [pc, #44]	; 102e415c <RIL_MQTT_QMTSUB+0x1b8>
102e412c:	e59f4040 	ldr	r4, [pc, #64]	; 102e4174 <RIL_MQTT_QMTSUB+0x1d0>
102e4130:	e1a02000 	mov	r2, r0
102e4134:	e3a0000a 	mov	r0, #10
102e4138:	e12fff37 	blx	r7
102e413c:	eaffffd3 	b	102e4090 <RIL_MQTT_QMTSUB+0xec>
102e4140:	102e6774 	.word	0x102e6774
102e4144:	f03d5a7c 	.word	0xf03d5a7c
102e4148:	102e91d8 	.word	0x102e91d8
102e414c:	f03d6720 	.word	0xf03d6720
102e4150:	102e6624 	.word	0x102e6624
102e4154:	102e6158 	.word	0x102e6158
102e4158:	102e300c 	.word	0x102e300c
102e415c:	f03d3a84 	.word	0xf03d3a84
102e4160:	102e90e0 	.word	0x102e90e0
102e4164:	102e6ff4 	.word	0x102e6ff4
102e4168:	102e9128 	.word	0x102e9128
102e416c:	102e91e4 	.word	0x102e91e4
102e4170:	102e9200 	.word	0x102e9200
102e4174:	fffffda0 	.word	0xfffffda0

102e4178 <RIL_MQTT_QMTPUB>:
102e4178:	e92d47f0 	push	{r4, r5, r6, r7, r8, r9, sl, lr}
102e417c:	e24dd0d8 	sub	sp, sp, #216	; 0xd8
102e4180:	e59f4158 	ldr	r4, [pc, #344]	; 102e42e0 <RIL_MQTT_QMTPUB+0x168>
102e4184:	e59f7158 	ldr	r7, [pc, #344]	; 102e42e4 <RIL_MQTT_QMTPUB+0x16c>
102e4188:	e1a09000 	mov	r9, r0
102e418c:	e1a0a001 	mov	sl, r1
102e4190:	e1a08002 	mov	r8, r2
102e4194:	e3a01000 	mov	r1, #0
102e4198:	e3a020c8 	mov	r2, #200	; 0xc8
102e419c:	e28d0010 	add	r0, sp, #16
102e41a0:	e1a05003 	mov	r5, r3
102e41a4:	e12fff37 	blx	r7
102e41a8:	e59d00fc 	ldr	r0, [sp, #252]	; 0xfc
102e41ac:	e59f6134 	ldr	r6, [pc, #308]	; 102e42e8 <RIL_MQTT_QMTPUB+0x170>
102e41b0:	e5040234 	str	r0, [r4, #-564]	; 0xfffffdcc
102e41b4:	e59d0100 	ldr	r0, [sp, #256]	; 0x100
102e41b8:	e504022c 	str	r0, [r4, #-556]	; 0xfffffdd4
102e41bc:	e59d00f8 	ldr	r0, [sp, #248]	; 0xf8
102e41c0:	e1a02009 	mov	r2, r9
102e41c4:	e1a0300a 	mov	r3, sl
102e41c8:	e59f111c 	ldr	r1, [pc, #284]	; 102e42ec <RIL_MQTT_QMTPUB+0x174>
102e41cc:	e596c000 	ldr	ip, [r6]
102e41d0:	e58d8000 	str	r8, [sp]
102e41d4:	e58d5004 	str	r5, [sp, #4]
102e41d8:	e58d0008 	str	r0, [sp, #8]
102e41dc:	e28d0010 	add	r0, sp, #16
102e41e0:	e12fff3c 	blx	ip
102e41e4:	e59f5104 	ldr	r5, [pc, #260]	; 102e42f0 <RIL_MQTT_QMTPUB+0x178>
102e41e8:	e28d0010 	add	r0, sp, #16
102e41ec:	e12fff35 	blx	r5
102e41f0:	e3a08000 	mov	r8, #0
102e41f4:	e2443f8e 	sub	r3, r4, #568	; 0x238
102e41f8:	e59fc0f4 	ldr	ip, [pc, #244]	; 102e42f4 <RIL_MQTT_QMTPUB+0x17c>
102e41fc:	e59f20f4 	ldr	r2, [pc, #244]	; 102e42f8 <RIL_MQTT_QMTPUB+0x180>
102e4200:	e58d8000 	str	r8, [sp]
102e4204:	e59f90f0 	ldr	r9, [pc, #240]	; 102e42fc <RIL_MQTT_QMTPUB+0x184>
102e4208:	e1a01000 	mov	r1, r0
102e420c:	e28d0010 	add	r0, sp, #16
102e4210:	e12fff3c 	blx	ip
102e4214:	e1a01008 	mov	r1, r8
102e4218:	e3a02b01 	mov	r2, #1024	; 0x400
102e421c:	e1a0a000 	mov	sl, r0
102e4220:	e59f00d8 	ldr	r0, [pc, #216]	; 102e4300 <RIL_MQTT_QMTPUB+0x188>
102e4224:	e12fff37 	blx	r7
102e4228:	e596c000 	ldr	ip, [r6]
102e422c:	e1a0300a 	mov	r3, sl
102e4230:	e59f10cc 	ldr	r1, [pc, #204]	; 102e4304 <RIL_MQTT_QMTPUB+0x18c>
102e4234:	e28d2010 	add	r2, sp, #16
102e4238:	e59f00c0 	ldr	r0, [pc, #192]	; 102e4300 <RIL_MQTT_QMTPUB+0x188>
102e423c:	e12fff3c 	blx	ip
102e4240:	e59f00b8 	ldr	r0, [pc, #184]	; 102e4300 <RIL_MQTT_QMTPUB+0x188>
102e4244:	e12fff35 	blx	r5
102e4248:	e59f10b0 	ldr	r1, [pc, #176]	; 102e4300 <RIL_MQTT_QMTPUB+0x188>
102e424c:	e1a02000 	mov	r2, r0
102e4250:	e3a0000a 	mov	r0, #10
102e4254:	e12fff39 	blx	r9
102e4258:	e1a01008 	mov	r1, r8
102e425c:	e3a02b01 	mov	r2, #1024	; 0x400
102e4260:	e59f0098 	ldr	r0, [pc, #152]	; 102e4300 <RIL_MQTT_QMTPUB+0x188>
102e4264:	e12fff37 	blx	r7
102e4268:	e59f1098 	ldr	r1, [pc, #152]	; 102e4308 <RIL_MQTT_QMTPUB+0x190>
102e426c:	e5142234 	ldr	r2, [r4, #-564]	; 0xfffffdcc
102e4270:	e5963000 	ldr	r3, [r6]
102e4274:	e59f0084 	ldr	r0, [pc, #132]	; 102e4300 <RIL_MQTT_QMTPUB+0x188>
102e4278:	e12fff33 	blx	r3
102e427c:	e59f007c 	ldr	r0, [pc, #124]	; 102e4300 <RIL_MQTT_QMTPUB+0x188>
102e4280:	e12fff35 	blx	r5
102e4284:	e59f1074 	ldr	r1, [pc, #116]	; 102e4300 <RIL_MQTT_QMTPUB+0x188>
102e4288:	e1a02000 	mov	r2, r0
102e428c:	e3a0000a 	mov	r0, #10
102e4290:	e12fff39 	blx	r9
102e4294:	e15a0008 	cmp	sl, r8
102e4298:	0a00000d 	beq	102e42d4 <RIL_MQTT_QMTPUB+0x15c>
102e429c:	e3a02b01 	mov	r2, #1024	; 0x400
102e42a0:	e1a01008 	mov	r1, r8
102e42a4:	e59f0054 	ldr	r0, [pc, #84]	; 102e4300 <RIL_MQTT_QMTPUB+0x188>
102e42a8:	e12fff37 	blx	r7
102e42ac:	e59f1058 	ldr	r1, [pc, #88]	; 102e430c <RIL_MQTT_QMTPUB+0x194>
102e42b0:	e5963000 	ldr	r3, [r6]
102e42b4:	e59f0044 	ldr	r0, [pc, #68]	; 102e4300 <RIL_MQTT_QMTPUB+0x188>
102e42b8:	e12fff33 	blx	r3
102e42bc:	e59f003c 	ldr	r0, [pc, #60]	; 102e4300 <RIL_MQTT_QMTPUB+0x188>
102e42c0:	e12fff35 	blx	r5
102e42c4:	e59f1034 	ldr	r1, [pc, #52]	; 102e4300 <RIL_MQTT_QMTPUB+0x188>
102e42c8:	e1a02000 	mov	r2, r0
102e42cc:	e3a0000a 	mov	r0, #10
102e42d0:	e12fff39 	blx	r9
102e42d4:	e1a0000a 	mov	r0, sl
102e42d8:	e28dd0d8 	add	sp, sp, #216	; 0xd8
102e42dc:	e8bd87f0 	pop	{r4, r5, r6, r7, r8, r9, sl, pc}
102e42e0:	f03d5a7c 	.word	0xf03d5a7c
102e42e4:	102e6774 	.word	0x102e6774
102e42e8:	f03d6720 	.word	0xf03d6720
102e42ec:	102e9228 	.word	0x102e9228
102e42f0:	102e6624 	.word	0x102e6624
102e42f4:	102e6158 	.word	0x102e6158
102e42f8:	102e22ec 	.word	0x102e22ec
102e42fc:	102e6ff4 	.word	0x102e6ff4
102e4300:	f03d3a84 	.word	0xf03d3a84
102e4304:	102e90e0 	.word	0x102e90e0
102e4308:	102e9244 	.word	0x102e9244
102e430c:	102e9128 	.word	0x102e9128

102e4310 <RIL_MQTT_QMTCLOSE>:
102e4310:	e92d45f0 	push	{r4, r5, r6, r7, r8, sl, lr}
102e4314:	e59f80b0 	ldr	r8, [pc, #176]	; 102e43cc <RIL_MQTT_QMTCLOSE+0xbc>
102e4318:	e24dd0d4 	sub	sp, sp, #212	; 0xd4
102e431c:	e1a04000 	mov	r4, r0
102e4320:	e59fa0a8 	ldr	sl, [pc, #168]	; 102e43d0 <RIL_MQTT_QMTCLOSE+0xc0>
102e4324:	e3a01000 	mov	r1, #0
102e4328:	e3a020c8 	mov	r2, #200	; 0xc8
102e432c:	e28d0008 	add	r0, sp, #8
102e4330:	e12fff3a 	blx	sl
102e4334:	e1a02004 	mov	r2, r4
102e4338:	e5983000 	ldr	r3, [r8]
102e433c:	e59f1090 	ldr	r1, [pc, #144]	; 102e43d4 <RIL_MQTT_QMTCLOSE+0xc4>
102e4340:	e28d0008 	add	r0, sp, #8
102e4344:	e12fff33 	blx	r3
102e4348:	e59f7088 	ldr	r7, [pc, #136]	; 102e43d8 <RIL_MQTT_QMTCLOSE+0xc8>
102e434c:	e28d0008 	add	r0, sp, #8
102e4350:	e12fff37 	blx	r7
102e4354:	e3a05000 	mov	r5, #0
102e4358:	e1a03005 	mov	r3, r5
102e435c:	e1a02005 	mov	r2, r5
102e4360:	e59fc074 	ldr	ip, [pc, #116]	; 102e43dc <RIL_MQTT_QMTCLOSE+0xcc>
102e4364:	e58d5000 	str	r5, [sp]
102e4368:	e59f4070 	ldr	r4, [pc, #112]	; 102e43e0 <RIL_MQTT_QMTCLOSE+0xd0>
102e436c:	e1a01000 	mov	r1, r0
102e4370:	e28d0008 	add	r0, sp, #8
102e4374:	e12fff3c 	blx	ip
102e4378:	e1a01005 	mov	r1, r5
102e437c:	e3a02b01 	mov	r2, #1024	; 0x400
102e4380:	e1a06000 	mov	r6, r0
102e4384:	e1a00004 	mov	r0, r4
102e4388:	e12fff3a 	blx	sl
102e438c:	e28d2008 	add	r2, sp, #8
102e4390:	e1a03006 	mov	r3, r6
102e4394:	e598c000 	ldr	ip, [r8]
102e4398:	e59f1044 	ldr	r1, [pc, #68]	; 102e43e4 <RIL_MQTT_QMTCLOSE+0xd4>
102e439c:	e1a00004 	mov	r0, r4
102e43a0:	e12fff3c 	blx	ip
102e43a4:	e1a00004 	mov	r0, r4
102e43a8:	e12fff37 	blx	r7
102e43ac:	e1a01004 	mov	r1, r4
102e43b0:	e59f3030 	ldr	r3, [pc, #48]	; 102e43e8 <RIL_MQTT_QMTCLOSE+0xd8>
102e43b4:	e1a02000 	mov	r2, r0
102e43b8:	e3a0000a 	mov	r0, #10
102e43bc:	e12fff33 	blx	r3
102e43c0:	e1a00006 	mov	r0, r6
102e43c4:	e28dd0d4 	add	sp, sp, #212	; 0xd4
102e43c8:	e8bd85f0 	pop	{r4, r5, r6, r7, r8, sl, pc}
102e43cc:	f03d6720 	.word	0xf03d6720
102e43d0:	102e6774 	.word	0x102e6774
102e43d4:	102e9254 	.word	0x102e9254
102e43d8:	102e6624 	.word	0x102e6624
102e43dc:	102e6158 	.word	0x102e6158
102e43e0:	f03d3a84 	.word	0xf03d3a84
102e43e4:	102e90e0 	.word	0x102e90e0
102e43e8:	102e6ff4 	.word	0x102e6ff4

102e43ec <Callback_Timer.part.4>:
102e43ec:	e92d4ff0 	push	{r4, r5, r6, r7, r8, r9, sl, fp, lr}
102e43f0:	e59f4b1c 	ldr	r4, [pc, #2844]	; 102e4f14 <Callback_Timer.part.4+0xb28>
102e43f4:	e24ddf41 	sub	sp, sp, #260	; 0x104
102e43f8:	e5543228 	ldrb	r3, [r4, #-552]	; 0xfffffdd8
102e43fc:	e353000a 	cmp	r3, #10
102e4400:	979ff103 	ldrls	pc, [pc, r3, lsl #2]
102e4404:	ea0000d6 	b	102e4764 <Callback_Timer.part.4+0x378>
102e4408:	102e47d4 	.word	0x102e47d4
102e440c:	102e4840 	.word	0x102e4840
102e4410:	102e48cc 	.word	0x102e48cc
102e4414:	102e4938 	.word	0x102e4938
102e4418:	102e49f8 	.word	0x102e49f8
102e441c:	102e4a6c 	.word	0x102e4a6c
102e4420:	102e4ae8 	.word	0x102e4ae8
102e4424:	102e4d1c 	.word	0x102e4d1c
102e4428:	102e4bc0 	.word	0x102e4bc0
102e442c:	102e4c98 	.word	0x102e4c98
102e4430:	102e476c 	.word	0x102e476c
102e4434:	e1a03005 	mov	r3, r5
102e4438:	e28d5024 	add	r5, sp, #36	; 0x24
102e443c:	e3a0a000 	mov	sl, #0
102e4440:	e28d2c01 	add	r2, sp, #256	; 0x100
102e4444:	e0823003 	add	r3, r2, r3
102e4448:	e1a0100a 	mov	r1, sl
102e444c:	e3a02b01 	mov	r2, #1024	; 0x400
102e4450:	e59f9ac0 	ldr	r9, [pc, #2752]	; 102e4f18 <Callback_Timer.part.4+0xb2c>
102e4454:	e59f0ac0 	ldr	r0, [pc, #2752]	; 102e4f1c <Callback_Timer.part.4+0xb30>
102e4458:	e543a0dc 	strb	sl, [r3, #-220]	; 0xffffff24
102e445c:	e12fff39 	blx	r9
102e4460:	e1a02007 	mov	r2, r7
102e4464:	e59f1ab4 	ldr	r1, [pc, #2740]	; 102e4f20 <Callback_Timer.part.4+0xb34>
102e4468:	e5963000 	ldr	r3, [r6]
102e446c:	e59f0aa8 	ldr	r0, [pc, #2728]	; 102e4f1c <Callback_Timer.part.4+0xb30>
102e4470:	e12fff33 	blx	r3
102e4474:	e59f7aa8 	ldr	r7, [pc, #2728]	; 102e4f24 <Callback_Timer.part.4+0xb38>
102e4478:	e59f0a9c 	ldr	r0, [pc, #2716]	; 102e4f1c <Callback_Timer.part.4+0xb30>
102e447c:	e12fff37 	blx	r7
102e4480:	e59f3aa0 	ldr	r3, [pc, #2720]	; 102e4f28 <Callback_Timer.part.4+0xb3c>
102e4484:	e59f1a90 	ldr	r1, [pc, #2704]	; 102e4f1c <Callback_Timer.part.4+0xb30>
102e4488:	e1a02000 	mov	r2, r0
102e448c:	e3a0000a 	mov	r0, #10
102e4490:	e12fff33 	blx	r3
102e4494:	e1a0100a 	mov	r1, sl
102e4498:	e3a02b01 	mov	r2, #1024	; 0x400
102e449c:	e59f0a78 	ldr	r0, [pc, #2680]	; 102e4f1c <Callback_Timer.part.4+0xb30>
102e44a0:	e12fff39 	blx	r9
102e44a4:	e59f1a74 	ldr	r1, [pc, #2676]	; 102e4f20 <Callback_Timer.part.4+0xb34>
102e44a8:	e1a02005 	mov	r2, r5
102e44ac:	e5963000 	ldr	r3, [r6]
102e44b0:	e59f0a64 	ldr	r0, [pc, #2660]	; 102e4f1c <Callback_Timer.part.4+0xb30>
102e44b4:	e12fff33 	blx	r3
102e44b8:	e59f0a5c 	ldr	r0, [pc, #2652]	; 102e4f1c <Callback_Timer.part.4+0xb30>
102e44bc:	e12fff37 	blx	r7
102e44c0:	e59f1a54 	ldr	r1, [pc, #2644]	; 102e4f1c <Callback_Timer.part.4+0xb30>
102e44c4:	e59f3a5c 	ldr	r3, [pc, #2652]	; 102e4f28 <Callback_Timer.part.4+0xb3c>
102e44c8:	e1a02000 	mov	r2, r0
102e44cc:	e3a0000a 	mov	r0, #10
102e44d0:	e12fff33 	blx	r3
102e44d4:	e1a00005 	mov	r0, r5
102e44d8:	e59f1a4c 	ldr	r1, [pc, #2636]	; 102e4f2c <Callback_Timer.part.4+0xb40>
102e44dc:	e59f3a4c 	ldr	r3, [pc, #2636]	; 102e4f30 <Callback_Timer.part.4+0xb44>
102e44e0:	e12fff33 	blx	r3
102e44e4:	e59fca48 	ldr	ip, [pc, #2632]	; 102e4f34 <Callback_Timer.part.4+0xb48>
102e44e8:	e150000a 	cmp	r0, sl
102e44ec:	0a00006d 	beq	102e46a8 <Callback_Timer.part.4+0x2bc>
102e44f0:	e59c3000 	ldr	r3, [ip]
102e44f4:	e59f1a3c 	ldr	r1, [pc, #2620]	; 102e4f38 <Callback_Timer.part.4+0xb4c>
102e44f8:	e58dc010 	str	ip, [sp, #16]
102e44fc:	e1a02005 	mov	r2, r5
102e4500:	e28d0038 	add	r0, sp, #56	; 0x38
102e4504:	e12fff33 	blx	r3
102e4508:	e3a03002 	mov	r3, #2
102e450c:	e3a01001 	mov	r1, #1
102e4510:	e28d2038 	add	r2, sp, #56	; 0x38
102e4514:	e58da000 	str	sl, [sp]
102e4518:	e1a0000a 	mov	r0, sl
102e451c:	ebfffea0 	bl	102e3fa4 <RIL_MQTT_QMTSUB>
102e4520:	e1a0100a 	mov	r1, sl
102e4524:	e3a02b01 	mov	r2, #1024	; 0x400
102e4528:	e1a0b000 	mov	fp, r0
102e452c:	e59f09e8 	ldr	r0, [pc, #2536]	; 102e4f1c <Callback_Timer.part.4+0xb30>
102e4530:	e12fff39 	blx	r9
102e4534:	e59dc010 	ldr	ip, [sp, #16]
102e4538:	e1a0200b 	mov	r2, fp
102e453c:	e59c3000 	ldr	r3, [ip]
102e4540:	e59f19f4 	ldr	r1, [pc, #2548]	; 102e4f3c <Callback_Timer.part.4+0xb50>
102e4544:	e59f09d0 	ldr	r0, [pc, #2512]	; 102e4f1c <Callback_Timer.part.4+0xb30>
102e4548:	e12fff33 	blx	r3
102e454c:	e59f09c8 	ldr	r0, [pc, #2504]	; 102e4f1c <Callback_Timer.part.4+0xb30>
102e4550:	e12fff37 	blx	r7
102e4554:	e59f39cc 	ldr	r3, [pc, #2508]	; 102e4f28 <Callback_Timer.part.4+0xb3c>
102e4558:	e59f19bc 	ldr	r1, [pc, #2492]	; 102e4f1c <Callback_Timer.part.4+0xb30>
102e455c:	e1a02000 	mov	r2, r0
102e4560:	e3a0000a 	mov	r0, #10
102e4564:	e12fff33 	blx	r3
102e4568:	e15b000a 	cmp	fp, sl
102e456c:	13a03009 	movne	r3, #9
102e4570:	03a02001 	moveq	r2, #1
102e4574:	e3a0b000 	mov	fp, #0
102e4578:	e59f19c0 	ldr	r1, [pc, #2496]	; 102e4f40 <Callback_Timer.part.4+0xb54>
102e457c:	e28d0038 	add	r0, sp, #56	; 0x38
102e4580:	158da014 	strne	sl, [sp, #20]
102e4584:	15443228 	strbne	r3, [r4, #-552]	; 0xfffffdd8
102e4588:	058d2014 	streq	r2, [sp, #20]
102e458c:	e5963000 	ldr	r3, [r6]
102e4590:	e1a02005 	mov	r2, r5
102e4594:	e12fff33 	blx	r3
102e4598:	e3a03002 	mov	r3, #2
102e459c:	e3a01001 	mov	r1, #1
102e45a0:	e28d2038 	add	r2, sp, #56	; 0x38
102e45a4:	e58db000 	str	fp, [sp]
102e45a8:	e1a0000b 	mov	r0, fp
102e45ac:	ebfffe7c 	bl	102e3fa4 <RIL_MQTT_QMTSUB>
102e45b0:	e1a0100b 	mov	r1, fp
102e45b4:	e3a02b01 	mov	r2, #1024	; 0x400
102e45b8:	e1a0a000 	mov	sl, r0
102e45bc:	e59f0958 	ldr	r0, [pc, #2392]	; 102e4f1c <Callback_Timer.part.4+0xb30>
102e45c0:	e12fff39 	blx	r9
102e45c4:	e59f1970 	ldr	r1, [pc, #2416]	; 102e4f3c <Callback_Timer.part.4+0xb50>
102e45c8:	e1a0200a 	mov	r2, sl
102e45cc:	e5963000 	ldr	r3, [r6]
102e45d0:	e59f0944 	ldr	r0, [pc, #2372]	; 102e4f1c <Callback_Timer.part.4+0xb30>
102e45d4:	e12fff33 	blx	r3
102e45d8:	e59f093c 	ldr	r0, [pc, #2364]	; 102e4f1c <Callback_Timer.part.4+0xb30>
102e45dc:	e12fff37 	blx	r7
102e45e0:	e59f1934 	ldr	r1, [pc, #2356]	; 102e4f1c <Callback_Timer.part.4+0xb30>
102e45e4:	e59f393c 	ldr	r3, [pc, #2364]	; 102e4f28 <Callback_Timer.part.4+0xb3c>
102e45e8:	e1a02000 	mov	r2, r0
102e45ec:	e3a0000a 	mov	r0, #10
102e45f0:	e12fff33 	blx	r3
102e45f4:	e59fc938 	ldr	ip, [pc, #2360]	; 102e4f34 <Callback_Timer.part.4+0xb48>
102e45f8:	e15a000b 	cmp	sl, fp
102e45fc:	e59f1940 	ldr	r1, [pc, #2368]	; 102e4f44 <Callback_Timer.part.4+0xb58>
102e4600:	e1a02005 	mov	r2, r5
102e4604:	e59c3000 	ldr	r3, [ip]
102e4608:	e28d0038 	add	r0, sp, #56	; 0x38
102e460c:	1a00021d 	bne	102e4e88 <Callback_Timer.part.4+0xa9c>
102e4610:	e58dc010 	str	ip, [sp, #16]
102e4614:	e12fff33 	blx	r3
102e4618:	e3a03002 	mov	r3, #2
102e461c:	e3a01001 	mov	r1, #1
102e4620:	e28d2038 	add	r2, sp, #56	; 0x38
102e4624:	e58da000 	str	sl, [sp]
102e4628:	e1a0000a 	mov	r0, sl
102e462c:	ebfffe5c 	bl	102e3fa4 <RIL_MQTT_QMTSUB>
102e4630:	e1a0100a 	mov	r1, sl
102e4634:	e3a02b01 	mov	r2, #1024	; 0x400
102e4638:	e59f38d8 	ldr	r3, [pc, #2264]	; 102e4f18 <Callback_Timer.part.4+0xb2c>
102e463c:	e1a0b000 	mov	fp, r0
102e4640:	e59f08d4 	ldr	r0, [pc, #2260]	; 102e4f1c <Callback_Timer.part.4+0xb30>
102e4644:	e12fff33 	blx	r3
102e4648:	e59dc010 	ldr	ip, [sp, #16]
102e464c:	e59f18e8 	ldr	r1, [pc, #2280]	; 102e4f3c <Callback_Timer.part.4+0xb50>
102e4650:	e59c3000 	ldr	r3, [ip]
102e4654:	e1a0200b 	mov	r2, fp
102e4658:	e59f08bc 	ldr	r0, [pc, #2236]	; 102e4f1c <Callback_Timer.part.4+0xb30>
102e465c:	e12fff33 	blx	r3
102e4660:	e59f28bc 	ldr	r2, [pc, #2236]	; 102e4f24 <Callback_Timer.part.4+0xb38>
102e4664:	e59f08b0 	ldr	r0, [pc, #2224]	; 102e4f1c <Callback_Timer.part.4+0xb30>
102e4668:	e12fff32 	blx	r2
102e466c:	e59f18a8 	ldr	r1, [pc, #2216]	; 102e4f1c <Callback_Timer.part.4+0xb30>
102e4670:	e59f38b0 	ldr	r3, [pc, #2224]	; 102e4f28 <Callback_Timer.part.4+0xb3c>
102e4674:	e1a02000 	mov	r2, r0
102e4678:	e3a0000a 	mov	r0, #10
102e467c:	e12fff33 	blx	r3
102e4680:	e35b0000 	cmp	fp, #0
102e4684:	e59dc010 	ldr	ip, [sp, #16]
102e4688:	1a00021e 	bne	102e4f08 <Callback_Timer.part.4+0xb1c>
102e468c:	e59d2014 	ldr	r2, [sp, #20]
102e4690:	e3520001 	cmp	r2, #1
102e4694:	1a000003 	bne	102e46a8 <Callback_Timer.part.4+0x2bc>
102e4698:	e59c3000 	ldr	r3, [ip]
102e469c:	e59f0888 	ldr	r0, [pc, #2184]	; 102e4f2c <Callback_Timer.part.4+0xb40>
102e46a0:	e1a01005 	mov	r1, r5
102e46a4:	e12fff33 	blx	r3
102e46a8:	e59804f0 	ldr	r0, [r8, #1264]	; 0x4f0
102e46ac:	e59f8868 	ldr	r8, [pc, #2152]	; 102e4f1c <Callback_Timer.part.4+0xb30>
102e46b0:	e5d03000 	ldrb	r3, [r0]
102e46b4:	e3530023 	cmp	r3, #35	; 0x23
102e46b8:	0a0001cf 	beq	102e4dfc <Callback_Timer.part.4+0xa10>
102e46bc:	e3530024 	cmp	r3, #36	; 0x24
102e46c0:	0a0001e8 	beq	102e4e68 <Callback_Timer.part.4+0xa7c>
102e46c4:	e12fff37 	blx	r7
102e46c8:	e59f1878 	ldr	r1, [pc, #2168]	; 102e4f48 <Callback_Timer.part.4+0xb5c>
102e46cc:	e28da09c 	add	sl, sp, #156	; 0x9c
102e46d0:	e1a0b000 	mov	fp, r0
102e46d4:	e1a02005 	mov	r2, r5
102e46d8:	e5963000 	ldr	r3, [r6]
102e46dc:	e1a0000a 	mov	r0, sl
102e46e0:	e12fff33 	blx	r3
102e46e4:	e598c4f0 	ldr	ip, [r8, #1264]	; 0x4f0
102e46e8:	e3a01001 	mov	r1, #1
102e46ec:	e3a00000 	mov	r0, #0
102e46f0:	e88d1400 	stm	sp, {sl, ip}
102e46f4:	e1a03000 	mov	r3, r0
102e46f8:	e1a02001 	mov	r2, r1
102e46fc:	e58db008 	str	fp, [sp, #8]
102e4700:	ebfffe9c 	bl	102e4178 <RIL_MQTT_QMTPUB>
102e4704:	e3a01000 	mov	r1, #0
102e4708:	e3a02b01 	mov	r2, #1024	; 0x400
102e470c:	e1a05000 	mov	r5, r0
102e4710:	e1a00008 	mov	r0, r8
102e4714:	e12fff39 	blx	r9
102e4718:	e59f182c 	ldr	r1, [pc, #2092]	; 102e4f4c <Callback_Timer.part.4+0xb60>
102e471c:	e1a02005 	mov	r2, r5
102e4720:	e5963000 	ldr	r3, [r6]
102e4724:	e1a00008 	mov	r0, r8
102e4728:	e12fff33 	blx	r3
102e472c:	e1a00008 	mov	r0, r8
102e4730:	e12fff37 	blx	r7
102e4734:	e1a01008 	mov	r1, r8
102e4738:	e59f37e8 	ldr	r3, [pc, #2024]	; 102e4f28 <Callback_Timer.part.4+0xb3c>
102e473c:	e1a02000 	mov	r2, r0
102e4740:	e3a0000a 	mov	r0, #10
102e4744:	e12fff33 	blx	r3
102e4748:	e3550000 	cmp	r5, #0
102e474c:	1a0001a7 	bne	102e4df0 <Callback_Timer.part.4+0xa04>
102e4750:	e3a03008 	mov	r3, #8
102e4754:	e5885cf4 	str	r5, [r8, #3316]	; 0xcf4
102e4758:	e58854f0 	str	r5, [r8, #1264]	; 0x4f0
102e475c:	e5045644 	str	r5, [r4, #-1604]	; 0xfffff9bc
102e4760:	e5443228 	strb	r3, [r4, #-552]	; 0xfffffdd8
102e4764:	e28ddf41 	add	sp, sp, #260	; 0x104
102e4768:	e8bd8ff0 	pop	{r4, r5, r6, r7, r8, r9, sl, fp, pc}
102e476c:	e59f37dc 	ldr	r3, [pc, #2012]	; 102e4f50 <Callback_Timer.part.4+0xb64>
102e4770:	e12fff33 	blx	r3
102e4774:	e3a01000 	mov	r1, #0
102e4778:	e3a02b01 	mov	r2, #1024	; 0x400
102e477c:	e59f3794 	ldr	r3, [pc, #1940]	; 102e4f18 <Callback_Timer.part.4+0xb2c>
102e4780:	e1a05000 	mov	r5, r0
102e4784:	e59f0790 	ldr	r0, [pc, #1936]	; 102e4f1c <Callback_Timer.part.4+0xb30>
102e4788:	e12fff33 	blx	r3
102e478c:	e59f37a0 	ldr	r3, [pc, #1952]	; 102e4f34 <Callback_Timer.part.4+0xb48>
102e4790:	e59f17bc 	ldr	r1, [pc, #1980]	; 102e4f54 <Callback_Timer.part.4+0xb68>
102e4794:	e1a02005 	mov	r2, r5
102e4798:	e5933000 	ldr	r3, [r3]
102e479c:	e59f0778 	ldr	r0, [pc, #1912]	; 102e4f1c <Callback_Timer.part.4+0xb30>
102e47a0:	e12fff33 	blx	r3
102e47a4:	e59f3778 	ldr	r3, [pc, #1912]	; 102e4f24 <Callback_Timer.part.4+0xb38>
102e47a8:	e59f076c 	ldr	r0, [pc, #1900]	; 102e4f1c <Callback_Timer.part.4+0xb30>
102e47ac:	e12fff33 	blx	r3
102e47b0:	e59f3770 	ldr	r3, [pc, #1904]	; 102e4f28 <Callback_Timer.part.4+0xb3c>
102e47b4:	e59f1760 	ldr	r1, [pc, #1888]	; 102e4f1c <Callback_Timer.part.4+0xb30>
102e47b8:	e1a02000 	mov	r2, r0
102e47bc:	e3a0000a 	mov	r0, #10
102e47c0:	e12fff33 	blx	r3
102e47c4:	e3550000 	cmp	r5, #0
102e47c8:	03a03001 	moveq	r3, #1
102e47cc:	05443228 	strbeq	r3, [r4, #-552]	; 0xfffffdd8
102e47d0:	eaffffe3 	b	102e4764 <Callback_Timer.part.4+0x378>
102e47d4:	e28d0c01 	add	r0, sp, #256	; 0x100
102e47d8:	e3a05000 	mov	r5, #0
102e47dc:	e59f3774 	ldr	r3, [pc, #1908]	; 102e4f58 <Callback_Timer.part.4+0xb6c>
102e47e0:	e52050e0 	str	r5, [r0, #-224]!	; 0xffffff20
102e47e4:	e12fff33 	blx	r3
102e47e8:	e59d3020 	ldr	r3, [sp, #32]
102e47ec:	e3a02b01 	mov	r2, #1024	; 0x400
102e47f0:	e3530001 	cmp	r3, #1
102e47f4:	e1a01005 	mov	r1, r5
102e47f8:	e59f071c 	ldr	r0, [pc, #1820]	; 102e4f1c <Callback_Timer.part.4+0xb30>
102e47fc:	0a000194 	beq	102e4e54 <Callback_Timer.part.4+0xa68>
102e4800:	e59f3710 	ldr	r3, [pc, #1808]	; 102e4f18 <Callback_Timer.part.4+0xb2c>
102e4804:	e12fff33 	blx	r3
102e4808:	e59f174c 	ldr	r1, [pc, #1868]	; 102e4f5c <Callback_Timer.part.4+0xb70>
102e480c:	e59f3720 	ldr	r3, [pc, #1824]	; 102e4f34 <Callback_Timer.part.4+0xb48>
102e4810:	e59f0704 	ldr	r0, [pc, #1796]	; 102e4f1c <Callback_Timer.part.4+0xb30>
102e4814:	e5933000 	ldr	r3, [r3]
102e4818:	e12fff33 	blx	r3
102e481c:	e59f3700 	ldr	r3, [pc, #1792]	; 102e4f24 <Callback_Timer.part.4+0xb38>
102e4820:	e59f06f4 	ldr	r0, [pc, #1780]	; 102e4f1c <Callback_Timer.part.4+0xb30>
102e4824:	e12fff33 	blx	r3
102e4828:	e59f16ec 	ldr	r1, [pc, #1772]	; 102e4f1c <Callback_Timer.part.4+0xb30>
102e482c:	e59f36f4 	ldr	r3, [pc, #1780]	; 102e4f28 <Callback_Timer.part.4+0xb3c>
102e4830:	e1a02000 	mov	r2, r0
102e4834:	e3a0000a 	mov	r0, #10
102e4838:	e12fff33 	blx	r3
102e483c:	eaffffc8 	b	102e4764 <Callback_Timer.part.4+0x378>
102e4840:	e3a05000 	mov	r5, #0
102e4844:	e59f3714 	ldr	r3, [pc, #1812]	; 102e4f60 <Callback_Timer.part.4+0xb74>
102e4848:	e28d001c 	add	r0, sp, #28
102e484c:	e58d501c 	str	r5, [sp, #28]
102e4850:	e58d5020 	str	r5, [sp, #32]
102e4854:	e12fff33 	blx	r3
102e4858:	e59f3704 	ldr	r3, [pc, #1796]	; 102e4f64 <Callback_Timer.part.4+0xb78>
102e485c:	e28d0020 	add	r0, sp, #32
102e4860:	e12fff33 	blx	r3
102e4864:	e1a01005 	mov	r1, r5
102e4868:	e3a02b01 	mov	r2, #1024	; 0x400
102e486c:	e59f36a4 	ldr	r3, [pc, #1700]	; 102e4f18 <Callback_Timer.part.4+0xb2c>
102e4870:	e59f06a4 	ldr	r0, [pc, #1700]	; 102e4f1c <Callback_Timer.part.4+0xb30>
102e4874:	e12fff33 	blx	r3
102e4878:	e59f06b4 	ldr	r0, [pc, #1716]	; 102e4f34 <Callback_Timer.part.4+0xb48>
102e487c:	e59f16e4 	ldr	r1, [pc, #1764]	; 102e4f68 <Callback_Timer.part.4+0xb7c>
102e4880:	e590c000 	ldr	ip, [r0]
102e4884:	e59d201c 	ldr	r2, [sp, #28]
102e4888:	e59d3020 	ldr	r3, [sp, #32]
102e488c:	e59f0688 	ldr	r0, [pc, #1672]	; 102e4f1c <Callback_Timer.part.4+0xb30>
102e4890:	e12fff3c 	blx	ip
102e4894:	e59f3688 	ldr	r3, [pc, #1672]	; 102e4f24 <Callback_Timer.part.4+0xb38>
102e4898:	e59f067c 	ldr	r0, [pc, #1660]	; 102e4f1c <Callback_Timer.part.4+0xb30>
102e489c:	e12fff33 	blx	r3
102e48a0:	e59f3680 	ldr	r3, [pc, #1664]	; 102e4f28 <Callback_Timer.part.4+0xb3c>
102e48a4:	e59f1670 	ldr	r1, [pc, #1648]	; 102e4f1c <Callback_Timer.part.4+0xb30>
102e48a8:	e1a02000 	mov	r2, r0
102e48ac:	e3a0000a 	mov	r0, #10
102e48b0:	e12fff33 	blx	r3
102e48b4:	e59d3020 	ldr	r3, [sp, #32]
102e48b8:	e3c33004 	bic	r3, r3, #4
102e48bc:	e3530001 	cmp	r3, #1
102e48c0:	03a03002 	moveq	r3, #2
102e48c4:	05443228 	strbeq	r3, [r4, #-552]	; 0xfffffdd8
102e48c8:	eaffffa5 	b	102e4764 <Callback_Timer.part.4+0x378>
102e48cc:	e59f3698 	ldr	r3, [pc, #1688]	; 102e4f6c <Callback_Timer.part.4+0xb80>
102e48d0:	e3a00000 	mov	r0, #0
102e48d4:	e12fff33 	blx	r3
102e48d8:	e3a01000 	mov	r1, #0
102e48dc:	e3a02b01 	mov	r2, #1024	; 0x400
102e48e0:	e59f3630 	ldr	r3, [pc, #1584]	; 102e4f18 <Callback_Timer.part.4+0xb2c>
102e48e4:	e1a05000 	mov	r5, r0
102e48e8:	e59f062c 	ldr	r0, [pc, #1580]	; 102e4f1c <Callback_Timer.part.4+0xb30>
102e48ec:	e12fff33 	blx	r3
102e48f0:	e59f363c 	ldr	r3, [pc, #1596]	; 102e4f34 <Callback_Timer.part.4+0xb48>
102e48f4:	e59f1674 	ldr	r1, [pc, #1652]	; 102e4f70 <Callback_Timer.part.4+0xb84>
102e48f8:	e1a02005 	mov	r2, r5
102e48fc:	e5933000 	ldr	r3, [r3]
102e4900:	e59f0614 	ldr	r0, [pc, #1556]	; 102e4f1c <Callback_Timer.part.4+0xb30>
102e4904:	e12fff33 	blx	r3
102e4908:	e59f3614 	ldr	r3, [pc, #1556]	; 102e4f24 <Callback_Timer.part.4+0xb38>
102e490c:	e59f0608 	ldr	r0, [pc, #1544]	; 102e4f1c <Callback_Timer.part.4+0xb30>
102e4910:	e12fff33 	blx	r3
102e4914:	e59f360c 	ldr	r3, [pc, #1548]	; 102e4f28 <Callback_Timer.part.4+0xb3c>
102e4918:	e59f15fc 	ldr	r1, [pc, #1532]	; 102e4f1c <Callback_Timer.part.4+0xb30>
102e491c:	e1a02000 	mov	r2, r0
102e4920:	e3a0000a 	mov	r0, #10
102e4924:	e12fff33 	blx	r3
102e4928:	e3550000 	cmp	r5, #0
102e492c:	03a03003 	moveq	r3, #3
102e4930:	05443228 	strbeq	r3, [r4, #-552]	; 0xfffffdd8
102e4934:	eaffff8a 	b	102e4764 <Callback_Timer.part.4+0x378>
102e4938:	e59f2634 	ldr	r2, [pc, #1588]	; 102e4f74 <Callback_Timer.part.4+0xb88>
102e493c:	e59fc634 	ldr	ip, [pc, #1588]	; 102e4f78 <Callback_Timer.part.4+0xb8c>
102e4940:	e2823020 	add	r3, r2, #32
102e4944:	e59f1630 	ldr	r1, [pc, #1584]	; 102e4f7c <Callback_Timer.part.4+0xb90>
102e4948:	e3a00001 	mov	r0, #1
102e494c:	e12fff3c 	blx	ip
102e4950:	e59f65dc 	ldr	r6, [pc, #1500]	; 102e4f34 <Callback_Timer.part.4+0xb48>
102e4954:	e3a01000 	mov	r1, #0
102e4958:	e3a02b01 	mov	r2, #1024	; 0x400
102e495c:	e59fa5b4 	ldr	sl, [pc, #1460]	; 102e4f18 <Callback_Timer.part.4+0xb2c>
102e4960:	e59f85bc 	ldr	r8, [pc, #1468]	; 102e4f24 <Callback_Timer.part.4+0xb38>
102e4964:	e59f75bc 	ldr	r7, [pc, #1468]	; 102e4f28 <Callback_Timer.part.4+0xb3c>
102e4968:	e1a05000 	mov	r5, r0
102e496c:	e59f05a8 	ldr	r0, [pc, #1448]	; 102e4f1c <Callback_Timer.part.4+0xb30>
102e4970:	e12fff3a 	blx	sl
102e4974:	e1a02005 	mov	r2, r5
102e4978:	e5963000 	ldr	r3, [r6]
102e497c:	e59f15fc 	ldr	r1, [pc, #1532]	; 102e4f80 <Callback_Timer.part.4+0xb94>
102e4980:	e59f0594 	ldr	r0, [pc, #1428]	; 102e4f1c <Callback_Timer.part.4+0xb30>
102e4984:	e12fff33 	blx	r3
102e4988:	e59f058c 	ldr	r0, [pc, #1420]	; 102e4f1c <Callback_Timer.part.4+0xb30>
102e498c:	e12fff38 	blx	r8
102e4990:	e59f1584 	ldr	r1, [pc, #1412]	; 102e4f1c <Callback_Timer.part.4+0xb30>
102e4994:	e1a02000 	mov	r2, r0
102e4998:	e3a0000a 	mov	r0, #10
102e499c:	e12fff37 	blx	r7
102e49a0:	e59f35dc 	ldr	r3, [pc, #1500]	; 102e4f84 <Callback_Timer.part.4+0xb98>
102e49a4:	e12fff33 	blx	r3
102e49a8:	e3a01000 	mov	r1, #0
102e49ac:	e3a02b01 	mov	r2, #1024	; 0x400
102e49b0:	e1a05000 	mov	r5, r0
102e49b4:	e59f0560 	ldr	r0, [pc, #1376]	; 102e4f1c <Callback_Timer.part.4+0xb30>
102e49b8:	e12fff3a 	blx	sl
102e49bc:	e5963000 	ldr	r3, [r6]
102e49c0:	e59f15c0 	ldr	r1, [pc, #1472]	; 102e4f88 <Callback_Timer.part.4+0xb9c>
102e49c4:	e1a02005 	mov	r2, r5
102e49c8:	e59f054c 	ldr	r0, [pc, #1356]	; 102e4f1c <Callback_Timer.part.4+0xb30>
102e49cc:	e12fff33 	blx	r3
102e49d0:	e59f0544 	ldr	r0, [pc, #1348]	; 102e4f1c <Callback_Timer.part.4+0xb30>
102e49d4:	e12fff38 	blx	r8
102e49d8:	e59f153c 	ldr	r1, [pc, #1340]	; 102e4f1c <Callback_Timer.part.4+0xb30>
102e49dc:	e1a02000 	mov	r2, r0
102e49e0:	e3a0000a 	mov	r0, #10
102e49e4:	e12fff37 	blx	r7
102e49e8:	e3550000 	cmp	r5, #0
102e49ec:	03a03004 	moveq	r3, #4
102e49f0:	05443228 	strbeq	r3, [r4, #-552]	; 0xfffffdd8
102e49f4:	eaffff5a 	b	102e4764 <Callback_Timer.part.4+0x378>
102e49f8:	e59f158c 	ldr	r1, [pc, #1420]	; 102e4f8c <Callback_Timer.part.4+0xba0>
102e49fc:	e59f358c 	ldr	r3, [pc, #1420]	; 102e4f90 <Callback_Timer.part.4+0xba4>
102e4a00:	e2812b02 	add	r2, r1, #2048	; 0x800
102e4a04:	e3a00000 	mov	r0, #0
102e4a08:	ebfffc45 	bl	102e3b24 <RIL_MQTT_QMTCFG_Ali>
102e4a0c:	e3a01000 	mov	r1, #0
102e4a10:	e3a02b01 	mov	r2, #1024	; 0x400
102e4a14:	e59f34fc 	ldr	r3, [pc, #1276]	; 102e4f18 <Callback_Timer.part.4+0xb2c>
102e4a18:	e1a05000 	mov	r5, r0
102e4a1c:	e59f04f8 	ldr	r0, [pc, #1272]	; 102e4f1c <Callback_Timer.part.4+0xb30>
102e4a20:	e12fff33 	blx	r3
102e4a24:	e59f3508 	ldr	r3, [pc, #1288]	; 102e4f34 <Callback_Timer.part.4+0xb48>
102e4a28:	e59f1564 	ldr	r1, [pc, #1380]	; 102e4f94 <Callback_Timer.part.4+0xba8>
102e4a2c:	e1a02005 	mov	r2, r5
102e4a30:	e5933000 	ldr	r3, [r3]
102e4a34:	e59f04e0 	ldr	r0, [pc, #1248]	; 102e4f1c <Callback_Timer.part.4+0xb30>
102e4a38:	e12fff33 	blx	r3
102e4a3c:	e59f34e0 	ldr	r3, [pc, #1248]	; 102e4f24 <Callback_Timer.part.4+0xb38>
102e4a40:	e59f04d4 	ldr	r0, [pc, #1236]	; 102e4f1c <Callback_Timer.part.4+0xb30>
102e4a44:	e12fff33 	blx	r3
102e4a48:	e59f34d8 	ldr	r3, [pc, #1240]	; 102e4f28 <Callback_Timer.part.4+0xb3c>
102e4a4c:	e59f14c8 	ldr	r1, [pc, #1224]	; 102e4f1c <Callback_Timer.part.4+0xb30>
102e4a50:	e1a02000 	mov	r2, r0
102e4a54:	e3a0000a 	mov	r0, #10
102e4a58:	e12fff33 	blx	r3
102e4a5c:	e3550000 	cmp	r5, #0
102e4a60:	03a03005 	moveq	r3, #5
102e4a64:	05443228 	strbeq	r3, [r4, #-552]	; 0xfffffdd8
102e4a68:	eaffff3d 	b	102e4764 <Callback_Timer.part.4+0x378>
102e4a6c:	e59f1524 	ldr	r1, [pc, #1316]	; 102e4f98 <Callback_Timer.part.4+0xbac>
102e4a70:	e59f2524 	ldr	r2, [pc, #1316]	; 102e4f9c <Callback_Timer.part.4+0xbb0>
102e4a74:	e3a00000 	mov	r0, #0
102e4a78:	ebfffc60 	bl	102e3c00 <RIL_MQTT_QMTOPEN>
102e4a7c:	e3a01000 	mov	r1, #0
102e4a80:	e3a02b01 	mov	r2, #1024	; 0x400
102e4a84:	e59f348c 	ldr	r3, [pc, #1164]	; 102e4f18 <Callback_Timer.part.4+0xb2c>
102e4a88:	e1a05000 	mov	r5, r0
102e4a8c:	e59f0488 	ldr	r0, [pc, #1160]	; 102e4f1c <Callback_Timer.part.4+0xb30>
102e4a90:	e12fff33 	blx	r3
102e4a94:	e59f3498 	ldr	r3, [pc, #1176]	; 102e4f34 <Callback_Timer.part.4+0xb48>
102e4a98:	e59f1500 	ldr	r1, [pc, #1280]	; 102e4fa0 <Callback_Timer.part.4+0xbb4>
102e4a9c:	e1a02005 	mov	r2, r5
102e4aa0:	e5933000 	ldr	r3, [r3]
102e4aa4:	e59f0470 	ldr	r0, [pc, #1136]	; 102e4f1c <Callback_Timer.part.4+0xb30>
102e4aa8:	e12fff33 	blx	r3
102e4aac:	e59f3470 	ldr	r3, [pc, #1136]	; 102e4f24 <Callback_Timer.part.4+0xb38>
102e4ab0:	e59f0464 	ldr	r0, [pc, #1124]	; 102e4f1c <Callback_Timer.part.4+0xb30>
102e4ab4:	e12fff33 	blx	r3
102e4ab8:	e59f3468 	ldr	r3, [pc, #1128]	; 102e4f28 <Callback_Timer.part.4+0xb3c>
102e4abc:	e59f1458 	ldr	r1, [pc, #1112]	; 102e4f1c <Callback_Timer.part.4+0xb30>
102e4ac0:	e1a02000 	mov	r2, r0
102e4ac4:	e3a0000a 	mov	r0, #10
102e4ac8:	e12fff33 	blx	r3
102e4acc:	e3550000 	cmp	r5, #0
102e4ad0:	03a03006 	moveq	r3, #6
102e4ad4:	05443228 	strbeq	r3, [r4, #-552]	; 0xfffffdd8
102e4ad8:	0affff21 	beq	102e4764 <Callback_Timer.part.4+0x378>
102e4adc:	e3a0300a 	mov	r3, #10
102e4ae0:	e5443228 	strb	r3, [r4, #-552]	; 0xfffffdd8
102e4ae4:	eaffff1e 	b	102e4764 <Callback_Timer.part.4+0x378>
102e4ae8:	e3a01000 	mov	r1, #0
102e4aec:	e3a0201e 	mov	r2, #30
102e4af0:	e59f5420 	ldr	r5, [pc, #1056]	; 102e4f18 <Callback_Timer.part.4+0xb2c>
102e4af4:	e28d009c 	add	r0, sp, #156	; 0x9c
102e4af8:	e12fff35 	blx	r5
102e4afc:	e59f34a0 	ldr	r3, [pc, #1184]	; 102e4fa4 <Callback_Timer.part.4+0xbb8>
102e4b00:	e28d009c 	add	r0, sp, #156	; 0x9c
102e4b04:	e12fff33 	blx	r3
102e4b08:	e59fa424 	ldr	sl, [pc, #1060]	; 102e4f34 <Callback_Timer.part.4+0xb48>
102e4b0c:	e3a01000 	mov	r1, #0
102e4b10:	e3a02b01 	mov	r2, #1024	; 0x400
102e4b14:	e59f8408 	ldr	r8, [pc, #1032]	; 102e4f24 <Callback_Timer.part.4+0xb38>
102e4b18:	e59f7408 	ldr	r7, [pc, #1032]	; 102e4f28 <Callback_Timer.part.4+0xb3c>
102e4b1c:	e1a06000 	mov	r6, r0
102e4b20:	e59f03f4 	ldr	r0, [pc, #1012]	; 102e4f1c <Callback_Timer.part.4+0xb30>
102e4b24:	e12fff35 	blx	r5
102e4b28:	e59ac000 	ldr	ip, [sl]
102e4b2c:	e1a03006 	mov	r3, r6
102e4b30:	e59f1470 	ldr	r1, [pc, #1136]	; 102e4fa8 <Callback_Timer.part.4+0xbbc>
102e4b34:	e28d209c 	add	r2, sp, #156	; 0x9c
102e4b38:	e59f03dc 	ldr	r0, [pc, #988]	; 102e4f1c <Callback_Timer.part.4+0xb30>
102e4b3c:	e12fff3c 	blx	ip
102e4b40:	e59f03d4 	ldr	r0, [pc, #980]	; 102e4f1c <Callback_Timer.part.4+0xb30>
102e4b44:	e12fff38 	blx	r8
102e4b48:	e59f13cc 	ldr	r1, [pc, #972]	; 102e4f1c <Callback_Timer.part.4+0xb30>
102e4b4c:	e1a02000 	mov	r2, r0
102e4b50:	e3a0000a 	mov	r0, #10
102e4b54:	e12fff37 	blx	r7
102e4b58:	e59f344c 	ldr	r3, [pc, #1100]	; 102e4fac <Callback_Timer.part.4+0xbc0>
102e4b5c:	e28d109c 	add	r1, sp, #156	; 0x9c
102e4b60:	e59f2448 	ldr	r2, [pc, #1096]	; 102e4fb0 <Callback_Timer.part.4+0xbc4>
102e4b64:	e3a00000 	mov	r0, #0
102e4b68:	ebfffc92 	bl	102e3db8 <RIL_MQTT_QMTCONN>
102e4b6c:	e3a01000 	mov	r1, #0
102e4b70:	e3a02b01 	mov	r2, #1024	; 0x400
102e4b74:	e1a06000 	mov	r6, r0
102e4b78:	e59f039c 	ldr	r0, [pc, #924]	; 102e4f1c <Callback_Timer.part.4+0xb30>
102e4b7c:	e12fff35 	blx	r5
102e4b80:	e59a3000 	ldr	r3, [sl]
102e4b84:	e59f1428 	ldr	r1, [pc, #1064]	; 102e4fb4 <Callback_Timer.part.4+0xbc8>
102e4b88:	e1a02006 	mov	r2, r6
102e4b8c:	e59f0388 	ldr	r0, [pc, #904]	; 102e4f1c <Callback_Timer.part.4+0xb30>
102e4b90:	e12fff33 	blx	r3
102e4b94:	e59f0380 	ldr	r0, [pc, #896]	; 102e4f1c <Callback_Timer.part.4+0xb30>
102e4b98:	e12fff38 	blx	r8
102e4b9c:	e59f1378 	ldr	r1, [pc, #888]	; 102e4f1c <Callback_Timer.part.4+0xb30>
102e4ba0:	e1a02000 	mov	r2, r0
102e4ba4:	e3a0000a 	mov	r0, #10
102e4ba8:	e12fff37 	blx	r7
102e4bac:	e3560000 	cmp	r6, #0
102e4bb0:	03a03007 	moveq	r3, #7
102e4bb4:	05443228 	strbeq	r3, [r4, #-552]	; 0xfffffdd8
102e4bb8:	0afffee9 	beq	102e4764 <Callback_Timer.part.4+0x378>
102e4bbc:	eaffffc6 	b	102e4adc <Callback_Timer.part.4+0x6f0>
102e4bc0:	e59f33f0 	ldr	r3, [pc, #1008]	; 102e4fb8 <Callback_Timer.part.4+0xbcc>
102e4bc4:	e3a05000 	mov	r5, #0
102e4bc8:	e5930000 	ldr	r0, [r3]
102e4bcc:	e59f33e8 	ldr	r3, [pc, #1000]	; 102e4fbc <Callback_Timer.part.4+0xbd0>
102e4bd0:	e12fff33 	blx	r3
102e4bd4:	e5143644 	ldr	r3, [r4, #-1604]	; 0xfffff9bc
102e4bd8:	e1cd52b6 	strh	r5, [sp, #38]	; 0x26
102e4bdc:	e1530005 	cmp	r3, r5
102e4be0:	e59f33d8 	ldr	r3, [pc, #984]	; 102e4fc0 <Callback_Timer.part.4+0xbd4>
102e4be4:	e1cd52b8 	strh	r5, [sp, #40]	; 0x28
102e4be8:	e1d330b0 	ldrh	r3, [r3]
102e4bec:	e1cd32b4 	strh	r3, [sp, #36]	; 0x24
102e4bf0:	e1cd52ba 	strh	r5, [sp, #42]	; 0x2a
102e4bf4:	e1cd52bc 	strh	r5, [sp, #44]	; 0x2c
102e4bf8:	e1cd52be 	strh	r5, [sp, #46]	; 0x2e
102e4bfc:	e1cd53b0 	strh	r5, [sp, #48]	; 0x30
102e4c00:	e1cd53b2 	strh	r5, [sp, #50]	; 0x32
102e4c04:	e1cd53b4 	strh	r5, [sp, #52]	; 0x34
102e4c08:	e1cd53b6 	strh	r5, [sp, #54]	; 0x36
102e4c0c:	dafffed4 	ble	102e4764 <Callback_Timer.part.4+0x378>
102e4c10:	e59f73ac 	ldr	r7, [pc, #940]	; 102e4fc4 <Callback_Timer.part.4+0xbd8>
102e4c14:	e59f8300 	ldr	r8, [pc, #768]	; 102e4f1c <Callback_Timer.part.4+0xb30>
102e4c18:	e59f13a8 	ldr	r1, [pc, #936]	; 102e4fc8 <Callback_Timer.part.4+0xbdc>
102e4c1c:	e1a00007 	mov	r0, r7
102e4c20:	e59f33a4 	ldr	r3, [pc, #932]	; 102e4fcc <Callback_Timer.part.4+0xbe0>
102e4c24:	e12fff33 	blx	r3
102e4c28:	e59f6304 	ldr	r6, [pc, #772]	; 102e4f34 <Callback_Timer.part.4+0xb48>
102e4c2c:	e598c4f0 	ldr	ip, [r8, #1264]	; 0x4f0
102e4c30:	e5980cf4 	ldr	r0, [r8, #3316]	; 0xcf4
102e4c34:	e5972000 	ldr	r2, [r7]
102e4c38:	e5963000 	ldr	r3, [r6]
102e4c3c:	e08c0000 	add	r0, ip, r0
102e4c40:	e59f1388 	ldr	r1, [pc, #904]	; 102e4fd0 <Callback_Timer.part.4+0xbe4>
102e4c44:	e12fff33 	blx	r3
102e4c48:	e59f7384 	ldr	r7, [pc, #900]	; 102e4fd4 <Callback_Timer.part.4+0xbe8>
102e4c4c:	e59f1384 	ldr	r1, [pc, #900]	; 102e4fd8 <Callback_Timer.part.4+0xbec>
102e4c50:	e59804f0 	ldr	r0, [r8, #1264]	; 0x4f0
102e4c54:	e12fff37 	blx	r7
102e4c58:	e59f137c 	ldr	r1, [pc, #892]	; 102e4fdc <Callback_Timer.part.4+0xbf0>
102e4c5c:	e2800008 	add	r0, r0, #8
102e4c60:	e12fff37 	blx	r7
102e4c64:	e5d01001 	ldrb	r1, [r0, #1]
102e4c68:	e1a07000 	mov	r7, r0
102e4c6c:	e3510022 	cmp	r1, #34	; 0x22
102e4c70:	0afffdef 	beq	102e4434 <Callback_Timer.part.4+0x48>
102e4c74:	e1a03005 	mov	r3, r5
102e4c78:	e280c001 	add	ip, r0, #1
102e4c7c:	e28d5024 	add	r5, sp, #36	; 0x24
102e4c80:	e7c51003 	strb	r1, [r5, r3]
102e4c84:	e5fc1001 	ldrb	r1, [ip, #1]!
102e4c88:	e2833001 	add	r3, r3, #1
102e4c8c:	e3510022 	cmp	r1, #34	; 0x22
102e4c90:	1afffffa 	bne	102e4c80 <Callback_Timer.part.4+0x894>
102e4c94:	eafffde8 	b	102e443c <Callback_Timer.part.4+0x50>
102e4c98:	e59f62dc 	ldr	r6, [pc, #732]	; 102e4f7c <Callback_Timer.part.4+0xb90>
102e4c9c:	e59f533c 	ldr	r5, [pc, #828]	; 102e4fe0 <Callback_Timer.part.4+0xbf4>
102e4ca0:	e3a01000 	mov	r1, #0
102e4ca4:	e5d60069 	ldrb	r0, [r6, #105]	; 0x69
102e4ca8:	e12fff35 	blx	r5
102e4cac:	e3a01001 	mov	r1, #1
102e4cb0:	e5d60068 	ldrb	r0, [r6, #104]	; 0x68
102e4cb4:	e12fff35 	blx	r5
102e4cb8:	e3a00000 	mov	r0, #0
102e4cbc:	ebfffd93 	bl	102e4310 <RIL_MQTT_QMTCLOSE>
102e4cc0:	e3a01000 	mov	r1, #0
102e4cc4:	e3a02b01 	mov	r2, #1024	; 0x400
102e4cc8:	e59f3248 	ldr	r3, [pc, #584]	; 102e4f18 <Callback_Timer.part.4+0xb2c>
102e4ccc:	e1a05000 	mov	r5, r0
102e4cd0:	e59f0244 	ldr	r0, [pc, #580]	; 102e4f1c <Callback_Timer.part.4+0xb30>
102e4cd4:	e12fff33 	blx	r3
102e4cd8:	e59f3254 	ldr	r3, [pc, #596]	; 102e4f34 <Callback_Timer.part.4+0xb48>
102e4cdc:	e59f1300 	ldr	r1, [pc, #768]	; 102e4fe4 <Callback_Timer.part.4+0xbf8>
102e4ce0:	e1a02005 	mov	r2, r5
102e4ce4:	e5933000 	ldr	r3, [r3]
102e4ce8:	e59f022c 	ldr	r0, [pc, #556]	; 102e4f1c <Callback_Timer.part.4+0xb30>
102e4cec:	e12fff33 	blx	r3
102e4cf0:	e59f322c 	ldr	r3, [pc, #556]	; 102e4f24 <Callback_Timer.part.4+0xb38>
102e4cf4:	e59f0220 	ldr	r0, [pc, #544]	; 102e4f1c <Callback_Timer.part.4+0xb30>
102e4cf8:	e12fff33 	blx	r3
102e4cfc:	e59f3224 	ldr	r3, [pc, #548]	; 102e4f28 <Callback_Timer.part.4+0xb3c>
102e4d00:	e59f1214 	ldr	r1, [pc, #532]	; 102e4f1c <Callback_Timer.part.4+0xb30>
102e4d04:	e1a02000 	mov	r2, r0
102e4d08:	e3a0000a 	mov	r0, #10
102e4d0c:	e12fff33 	blx	r3
102e4d10:	e3a0300a 	mov	r3, #10
102e4d14:	e5443228 	strb	r3, [r4, #-552]	; 0xfffffdd8
102e4d18:	eafffe91 	b	102e4764 <Callback_Timer.part.4+0x378>
102e4d1c:	e3a01000 	mov	r1, #0
102e4d20:	e3a0201e 	mov	r2, #30
102e4d24:	e59f51ec 	ldr	r5, [pc, #492]	; 102e4f18 <Callback_Timer.part.4+0xb2c>
102e4d28:	e28d009c 	add	r0, sp, #156	; 0x9c
102e4d2c:	e12fff35 	blx	r5
102e4d30:	e59f326c 	ldr	r3, [pc, #620]	; 102e4fa4 <Callback_Timer.part.4+0xbb8>
102e4d34:	e28d009c 	add	r0, sp, #156	; 0x9c
102e4d38:	e12fff33 	blx	r3
102e4d3c:	e59f91f0 	ldr	r9, [pc, #496]	; 102e4f34 <Callback_Timer.part.4+0xb48>
102e4d40:	e3a01000 	mov	r1, #0
102e4d44:	e3a02b01 	mov	r2, #1024	; 0x400
102e4d48:	e59fa1d4 	ldr	sl, [pc, #468]	; 102e4f24 <Callback_Timer.part.4+0xb38>
102e4d4c:	e59f81d4 	ldr	r8, [pc, #468]	; 102e4f28 <Callback_Timer.part.4+0xb3c>
102e4d50:	e1a06000 	mov	r6, r0
102e4d54:	e59f01c0 	ldr	r0, [pc, #448]	; 102e4f1c <Callback_Timer.part.4+0xb30>
102e4d58:	e12fff35 	blx	r5
102e4d5c:	e599c000 	ldr	ip, [r9]
102e4d60:	e1a03006 	mov	r3, r6
102e4d64:	e59f123c 	ldr	r1, [pc, #572]	; 102e4fa8 <Callback_Timer.part.4+0xbbc>
102e4d68:	e28d209c 	add	r2, sp, #156	; 0x9c
102e4d6c:	e59f01a8 	ldr	r0, [pc, #424]	; 102e4f1c <Callback_Timer.part.4+0xb30>
102e4d70:	e12fff3c 	blx	ip
102e4d74:	e59f01a0 	ldr	r0, [pc, #416]	; 102e4f1c <Callback_Timer.part.4+0xb30>
102e4d78:	e12fff3a 	blx	sl
102e4d7c:	e3a06000 	mov	r6, #0
102e4d80:	e59f1194 	ldr	r1, [pc, #404]	; 102e4f1c <Callback_Timer.part.4+0xb30>
102e4d84:	e1a02000 	mov	r2, r0
102e4d88:	e3a0000a 	mov	r0, #10
102e4d8c:	e12fff38 	blx	r8
102e4d90:	e3a03002 	mov	r3, #2
102e4d94:	e3a01001 	mov	r1, #1
102e4d98:	e28d209c 	add	r2, sp, #156	; 0x9c
102e4d9c:	e58d6000 	str	r6, [sp]
102e4da0:	e1a00006 	mov	r0, r6
102e4da4:	ebfffc7e 	bl	102e3fa4 <RIL_MQTT_QMTSUB>
102e4da8:	e1a01006 	mov	r1, r6
102e4dac:	e3a02b01 	mov	r2, #1024	; 0x400
102e4db0:	e1a07000 	mov	r7, r0
102e4db4:	e59f0160 	ldr	r0, [pc, #352]	; 102e4f1c <Callback_Timer.part.4+0xb30>
102e4db8:	e12fff35 	blx	r5
102e4dbc:	e59f1178 	ldr	r1, [pc, #376]	; 102e4f3c <Callback_Timer.part.4+0xb50>
102e4dc0:	e1a02007 	mov	r2, r7
102e4dc4:	e5993000 	ldr	r3, [r9]
102e4dc8:	e59f014c 	ldr	r0, [pc, #332]	; 102e4f1c <Callback_Timer.part.4+0xb30>
102e4dcc:	e12fff33 	blx	r3
102e4dd0:	e59f0144 	ldr	r0, [pc, #324]	; 102e4f1c <Callback_Timer.part.4+0xb30>
102e4dd4:	e12fff3a 	blx	sl
102e4dd8:	e59f113c 	ldr	r1, [pc, #316]	; 102e4f1c <Callback_Timer.part.4+0xb30>
102e4ddc:	e1a02000 	mov	r2, r0
102e4de0:	e3a0000a 	mov	r0, #10
102e4de4:	e12fff38 	blx	r8
102e4de8:	e1570006 	cmp	r7, r6
102e4dec:	0a00000a 	beq	102e4e1c <Callback_Timer.part.4+0xa30>
102e4df0:	e3a03009 	mov	r3, #9
102e4df4:	e5443228 	strb	r3, [r4, #-552]	; 0xfffffdd8
102e4df8:	eafffe59 	b	102e4764 <Callback_Timer.part.4+0x378>
102e4dfc:	e2803001 	add	r3, r0, #1
102e4e00:	e1a00003 	mov	r0, r3
102e4e04:	e58834f0 	str	r3, [r8, #1264]	; 0x4f0
102e4e08:	e12fff37 	blx	r7
102e4e0c:	e28da09c 	add	sl, sp, #156	; 0x9c
102e4e10:	e59f11d0 	ldr	r1, [pc, #464]	; 102e4fe8 <Callback_Timer.part.4+0xbfc>
102e4e14:	e1a0b000 	mov	fp, r0
102e4e18:	eafffe2d 	b	102e46d4 <Callback_Timer.part.4+0x2e8>
102e4e1c:	e59f6158 	ldr	r6, [pc, #344]	; 102e4f7c <Callback_Timer.part.4+0xb90>
102e4e20:	e59f51b8 	ldr	r5, [pc, #440]	; 102e4fe0 <Callback_Timer.part.4+0xbf4>
102e4e24:	e3a01001 	mov	r1, #1
102e4e28:	e5d60069 	ldrb	r0, [r6, #105]	; 0x69
102e4e2c:	e12fff35 	blx	r5
102e4e30:	e3a01001 	mov	r1, #1
102e4e34:	e5d60066 	ldrb	r0, [r6, #102]	; 0x66
102e4e38:	e12fff35 	blx	r5
102e4e3c:	e5d60066 	ldrb	r0, [r6, #102]	; 0x66
102e4e40:	e1a01007 	mov	r1, r7
102e4e44:	e12fff35 	blx	r5
102e4e48:	e3a03008 	mov	r3, #8
102e4e4c:	e5443228 	strb	r3, [r4, #-552]	; 0xfffffdd8
102e4e50:	eafffe43 	b	102e4764 <Callback_Timer.part.4+0x378>
102e4e54:	e5443228 	strb	r3, [r4, #-552]	; 0xfffffdd8
102e4e58:	e59f30b8 	ldr	r3, [pc, #184]	; 102e4f18 <Callback_Timer.part.4+0xb2c>
102e4e5c:	e12fff33 	blx	r3
102e4e60:	e59f1184 	ldr	r1, [pc, #388]	; 102e4fec <Callback_Timer.part.4+0xc00>
102e4e64:	eafffe68 	b	102e480c <Callback_Timer.part.4+0x420>
102e4e68:	e2803001 	add	r3, r0, #1
102e4e6c:	e1a00003 	mov	r0, r3
102e4e70:	e58834f0 	str	r3, [r8, #1264]	; 0x4f0
102e4e74:	e12fff37 	blx	r7
102e4e78:	e28da09c 	add	sl, sp, #156	; 0x9c
102e4e7c:	e59f116c 	ldr	r1, [pc, #364]	; 102e4ff0 <Callback_Timer.part.4+0xc04>
102e4e80:	e1a0b000 	mov	fp, r0
102e4e84:	eafffe12 	b	102e46d4 <Callback_Timer.part.4+0x2e8>
102e4e88:	e3a0e009 	mov	lr, #9
102e4e8c:	e58dc010 	str	ip, [sp, #16]
102e4e90:	e544e228 	strb	lr, [r4, #-552]	; 0xfffffdd8
102e4e94:	e12fff33 	blx	r3
102e4e98:	e3a03002 	mov	r3, #2
102e4e9c:	e3a01001 	mov	r1, #1
102e4ea0:	e28d2038 	add	r2, sp, #56	; 0x38
102e4ea4:	e58db000 	str	fp, [sp]
102e4ea8:	e1a0000b 	mov	r0, fp
102e4eac:	ebfffc3c 	bl	102e3fa4 <RIL_MQTT_QMTSUB>
102e4eb0:	e1a0100b 	mov	r1, fp
102e4eb4:	e3a02b01 	mov	r2, #1024	; 0x400
102e4eb8:	e59f3058 	ldr	r3, [pc, #88]	; 102e4f18 <Callback_Timer.part.4+0xb2c>
102e4ebc:	e1a0a000 	mov	sl, r0
102e4ec0:	e59f0054 	ldr	r0, [pc, #84]	; 102e4f1c <Callback_Timer.part.4+0xb30>
102e4ec4:	e12fff33 	blx	r3
102e4ec8:	e59dc010 	ldr	ip, [sp, #16]
102e4ecc:	e59f1068 	ldr	r1, [pc, #104]	; 102e4f3c <Callback_Timer.part.4+0xb50>
102e4ed0:	e59c3000 	ldr	r3, [ip]
102e4ed4:	e1a0200a 	mov	r2, sl
102e4ed8:	e59f003c 	ldr	r0, [pc, #60]	; 102e4f1c <Callback_Timer.part.4+0xb30>
102e4edc:	e12fff33 	blx	r3
102e4ee0:	e59f203c 	ldr	r2, [pc, #60]	; 102e4f24 <Callback_Timer.part.4+0xb38>
102e4ee4:	e59f0030 	ldr	r0, [pc, #48]	; 102e4f1c <Callback_Timer.part.4+0xb30>
102e4ee8:	e12fff32 	blx	r2
102e4eec:	e59f1028 	ldr	r1, [pc, #40]	; 102e4f1c <Callback_Timer.part.4+0xb30>
102e4ef0:	e59f3030 	ldr	r3, [pc, #48]	; 102e4f28 <Callback_Timer.part.4+0xb3c>
102e4ef4:	e1a02000 	mov	r2, r0
102e4ef8:	e3a0000a 	mov	r0, #10
102e4efc:	e12fff33 	blx	r3
102e4f00:	e35a0000 	cmp	sl, #0
102e4f04:	0afffde7 	beq	102e46a8 <Callback_Timer.part.4+0x2bc>
102e4f08:	e3a03009 	mov	r3, #9
102e4f0c:	e5443228 	strb	r3, [r4, #-552]	; 0xfffffdd8
102e4f10:	eafffde4 	b	102e46a8 <Callback_Timer.part.4+0x2bc>
102e4f14:	f03d5a7c 	.word	0xf03d5a7c
102e4f18:	102e6774 	.word	0x102e6774
102e4f1c:	f03d3a84 	.word	0xf03d3a84
102e4f20:	102e9244 	.word	0x102e9244
102e4f24:	102e6624 	.word	0x102e6624
102e4f28:	102e6ff4 	.word	0x102e6ff4
102e4f2c:	f03d38c8 	.word	0xf03d38c8
102e4f30:	102e669c 	.word	0x102e669c
102e4f34:	f03d6720 	.word	0xf03d6720
102e4f38:	102e9424 	.word	0x102e9424
102e4f3c:	102e93d8 	.word	0x102e93d8
102e4f40:	102e943c 	.word	0x102e943c
102e4f44:	102e9454 	.word	0x102e9454
102e4f48:	102e94bc 	.word	0x102e94bc
102e4f4c:	102e9484 	.word	0x102e9484
102e4f50:	102dff94 	.word	0x102dff94
102e4f54:	102e94ec 	.word	0x102e94ec
102e4f58:	102e05c4 	.word	0x102e05c4
102e4f5c:	102e9288 	.word	0x102e9288
102e4f60:	102df8e0 	.word	0x102df8e0
102e4f64:	102df954 	.word	0x102df954
102e4f68:	102e92b0 	.word	0x102e92b0
102e4f6c:	102dfa60 	.word	0x102dfa60
102e4f70:	102e92d8 	.word	0x102e92d8
102e4f74:	f03d3e84 	.word	0xf03d3e84
102e4f78:	102dfadc 	.word	0x102dfadc
102e4f7c:	f03d2024 	.word	0xf03d2024
102e4f80:	102e92fc 	.word	0x102e92fc
102e4f84:	102dfee4 	.word	0x102dfee4
102e4f88:	102e931c 	.word	0x102e931c
102e4f8c:	f03d20c8 	.word	0xf03d20c8
102e4f90:	f03d30c8 	.word	0xf03d30c8
102e4f94:	102e9340 	.word	0x102e9340
102e4f98:	102e9360 	.word	0x102e9360
102e4f9c:	0000075b 	.word	0x0000075b
102e4fa0:	102e936c 	.word	0x102e936c
102e4fa4:	102e0fbc 	.word	0x102e0fbc
102e4fa8:	102e9388 	.word	0x102e9388
102e4fac:	102e93ac 	.word	0x102e93ac
102e4fb0:	102e93a4 	.word	0x102e93a4
102e4fb4:	102e93b8 	.word	0x102e93b8
102e4fb8:	f03d6710 	.word	0xf03d6710
102e4fbc:	102e7250 	.word	0x102e7250
102e4fc0:	102e7ecc 	.word	0x102e7ecc
102e4fc4:	f03d6714 	.word	0xf03d6714
102e4fc8:	f03d6718 	.word	0xf03d6718
102e4fcc:	102df9d0 	.word	0x102df9d0
102e4fd0:	102e93fc 	.word	0x102e93fc
102e4fd4:	102e6884 	.word	0x102e6884
102e4fd8:	102e941c 	.word	0x102e941c
102e4fdc:	102e8210 	.word	0x102e8210
102e4fe0:	102e5668 	.word	0x102e5668
102e4fe4:	102e94d0 	.word	0x102e94d0
102e4fe8:	102e946c 	.word	0x102e946c
102e4fec:	102e9264 	.word	0x102e9264
102e4ff0:	102e94a4 	.word	0x102e94a4

102e4ff4 <Callback_Timer>:
102e4ff4:	e3500c01 	cmp	r0, #256	; 0x100
102e4ff8:	112fff1e 	bxne	lr
102e4ffc:	eafffcfa 	b	102e43ec <Callback_Timer.part.4>

102e5000 <RIL_MQTT_QMTUNS>:
102e5000:	e92d45f0 	push	{r4, r5, r6, r7, r8, sl, lr}
102e5004:	e24dd0d4 	sub	sp, sp, #212	; 0xd4
102e5008:	e1a06000 	mov	r6, r0
102e500c:	e1a05001 	mov	r5, r1
102e5010:	e1a08002 	mov	r8, r2
102e5014:	e28d0008 	add	r0, sp, #8
102e5018:	e3a01000 	mov	r1, #0
102e501c:	e3a020c8 	mov	r2, #200	; 0xc8
102e5020:	e59f716c 	ldr	r7, [pc, #364]	; 102e5194 <RIL_MQTT_QMTUNS+0x194>
102e5024:	e1a04003 	mov	r4, r3
102e5028:	e12fff37 	blx	r7
102e502c:	e59fc164 	ldr	ip, [pc, #356]	; 102e5198 <RIL_MQTT_QMTUNS+0x198>
102e5030:	e59f3164 	ldr	r3, [pc, #356]	; 102e519c <RIL_MQTT_QMTUNS+0x19c>
102e5034:	e50c3234 	str	r3, [ip, #-564]	; 0xfffffdcc
102e5038:	e3a0e0ff 	mov	lr, #255	; 0xff
102e503c:	e3a03002 	mov	r3, #2
102e5040:	e3540000 	cmp	r4, #0
102e5044:	e59fa154 	ldr	sl, [pc, #340]	; 102e51a0 <RIL_MQTT_QMTUNS+0x1a0>
102e5048:	e54c3238 	strb	r3, [ip, #-568]	; 0xfffffdc8
102e504c:	e50ce230 	str	lr, [ip, #-560]	; 0xfffffdd0
102e5050:	0a000036 	beq	102e5130 <RIL_MQTT_QMTUNS+0x130>
102e5054:	e59f5148 	ldr	r5, [pc, #328]	; 102e51a4 <RIL_MQTT_QMTUNS+0x1a4>
102e5058:	e28d0008 	add	r0, sp, #8
102e505c:	e12fff35 	blx	r5
102e5060:	e59f8130 	ldr	r8, [pc, #304]	; 102e5198 <RIL_MQTT_QMTUNS+0x198>
102e5064:	e3a06000 	mov	r6, #0
102e5068:	e2483f8e 	sub	r3, r8, #568	; 0x238
102e506c:	e59fc134 	ldr	ip, [pc, #308]	; 102e51a8 <RIL_MQTT_QMTUNS+0x1a8>
102e5070:	e59f2134 	ldr	r2, [pc, #308]	; 102e51ac <RIL_MQTT_QMTUNS+0x1ac>
102e5074:	e58d6000 	str	r6, [sp]
102e5078:	e1a01000 	mov	r1, r0
102e507c:	e28d0008 	add	r0, sp, #8
102e5080:	e12fff3c 	blx	ip
102e5084:	e1a01006 	mov	r1, r6
102e5088:	e3a02b01 	mov	r2, #1024	; 0x400
102e508c:	e1a04000 	mov	r4, r0
102e5090:	e59f0118 	ldr	r0, [pc, #280]	; 102e51b0 <RIL_MQTT_QMTUNS+0x1b0>
102e5094:	e12fff37 	blx	r7
102e5098:	e59ac000 	ldr	ip, [sl]
102e509c:	e59f1110 	ldr	r1, [pc, #272]	; 102e51b4 <RIL_MQTT_QMTUNS+0x1b4>
102e50a0:	e28d2008 	add	r2, sp, #8
102e50a4:	e1a03004 	mov	r3, r4
102e50a8:	e59f0100 	ldr	r0, [pc, #256]	; 102e51b0 <RIL_MQTT_QMTUNS+0x1b0>
102e50ac:	e12fff3c 	blx	ip
102e50b0:	e59f00f8 	ldr	r0, [pc, #248]	; 102e51b0 <RIL_MQTT_QMTUNS+0x1b0>
102e50b4:	e12fff35 	blx	r5
102e50b8:	e59f70f8 	ldr	r7, [pc, #248]	; 102e51b8 <RIL_MQTT_QMTUNS+0x1b8>
102e50bc:	e59f10ec 	ldr	r1, [pc, #236]	; 102e51b0 <RIL_MQTT_QMTUNS+0x1b0>
102e50c0:	e59fa0d8 	ldr	sl, [pc, #216]	; 102e51a0 <RIL_MQTT_QMTUNS+0x1a0>
102e50c4:	e1a02000 	mov	r2, r0
102e50c8:	e3a0000a 	mov	r0, #10
102e50cc:	e12fff37 	blx	r7
102e50d0:	e1540006 	cmp	r4, r6
102e50d4:	e59fc0b8 	ldr	ip, [pc, #184]	; 102e5194 <RIL_MQTT_QMTUNS+0x194>
102e50d8:	1a000005 	bne	102e50f4 <RIL_MQTT_QMTUNS+0xf4>
102e50dc:	e5183230 	ldr	r3, [r8, #-560]	; 0xfffffdd0
102e50e0:	e3530000 	cmp	r3, #0
102e50e4:	1a000019 	bne	102e5150 <RIL_MQTT_QMTUNS+0x150>
102e50e8:	e1a00004 	mov	r0, r4
102e50ec:	e28dd0d4 	add	sp, sp, #212	; 0xd4
102e50f0:	e8bd85f0 	pop	{r4, r5, r6, r7, r8, sl, pc}
102e50f4:	e3a02b01 	mov	r2, #1024	; 0x400
102e50f8:	e1a01006 	mov	r1, r6
102e50fc:	e59f00ac 	ldr	r0, [pc, #172]	; 102e51b0 <RIL_MQTT_QMTUNS+0x1b0>
102e5100:	e12fff3c 	blx	ip
102e5104:	e59f10b0 	ldr	r1, [pc, #176]	; 102e51bc <RIL_MQTT_QMTUNS+0x1bc>
102e5108:	e59a3000 	ldr	r3, [sl]
102e510c:	e59f009c 	ldr	r0, [pc, #156]	; 102e51b0 <RIL_MQTT_QMTUNS+0x1b0>
102e5110:	e12fff33 	blx	r3
102e5114:	e59f0094 	ldr	r0, [pc, #148]	; 102e51b0 <RIL_MQTT_QMTUNS+0x1b0>
102e5118:	e12fff35 	blx	r5
102e511c:	e59f108c 	ldr	r1, [pc, #140]	; 102e51b0 <RIL_MQTT_QMTUNS+0x1b0>
102e5120:	e1a02000 	mov	r2, r0
102e5124:	e3a0000a 	mov	r0, #10
102e5128:	e12fff37 	blx	r7
102e512c:	eaffffed 	b	102e50e8 <RIL_MQTT_QMTUNS+0xe8>
102e5130:	e58d8000 	str	r8, [sp]
102e5134:	e59ac000 	ldr	ip, [sl]
102e5138:	e28d0008 	add	r0, sp, #8
102e513c:	e59f107c 	ldr	r1, [pc, #124]	; 102e51c0 <RIL_MQTT_QMTUNS+0x1c0>
102e5140:	e1a02006 	mov	r2, r6
102e5144:	e1a03005 	mov	r3, r5
102e5148:	e12fff3c 	blx	ip
102e514c:	eaffffc0 	b	102e5054 <RIL_MQTT_QMTUNS+0x54>
102e5150:	e1a01004 	mov	r1, r4
102e5154:	e3a02b01 	mov	r2, #1024	; 0x400
102e5158:	e59f0050 	ldr	r0, [pc, #80]	; 102e51b0 <RIL_MQTT_QMTUNS+0x1b0>
102e515c:	e12fff3c 	blx	ip
102e5160:	e59f105c 	ldr	r1, [pc, #92]	; 102e51c4 <RIL_MQTT_QMTUNS+0x1c4>
102e5164:	e5182230 	ldr	r2, [r8, #-560]	; 0xfffffdd0
102e5168:	e59a3000 	ldr	r3, [sl]
102e516c:	e59f003c 	ldr	r0, [pc, #60]	; 102e51b0 <RIL_MQTT_QMTUNS+0x1b0>
102e5170:	e12fff33 	blx	r3
102e5174:	e59f0034 	ldr	r0, [pc, #52]	; 102e51b0 <RIL_MQTT_QMTUNS+0x1b0>
102e5178:	e12fff35 	blx	r5
102e517c:	e59f102c 	ldr	r1, [pc, #44]	; 102e51b0 <RIL_MQTT_QMTUNS+0x1b0>
102e5180:	e59f4040 	ldr	r4, [pc, #64]	; 102e51c8 <RIL_MQTT_QMTUNS+0x1c8>
102e5184:	e1a02000 	mov	r2, r0
102e5188:	e3a0000a 	mov	r0, #10
102e518c:	e12fff37 	blx	r7
102e5190:	eaffffd4 	b	102e50e8 <RIL_MQTT_QMTUNS+0xe8>
102e5194:	102e6774 	.word	0x102e6774
102e5198:	f03d5a7c 	.word	0xf03d5a7c
102e519c:	102e9514 	.word	0x102e9514
102e51a0:	f03d6720 	.word	0xf03d6720
102e51a4:	102e6624 	.word	0x102e6624
102e51a8:	102e6158 	.word	0x102e6158
102e51ac:	102e300c 	.word	0x102e300c
102e51b0:	f03d3a84 	.word	0xf03d3a84
102e51b4:	102e90e0 	.word	0x102e90e0
102e51b8:	102e6ff4 	.word	0x102e6ff4
102e51bc:	102e9128 	.word	0x102e9128
102e51c0:	102e9520 	.word	0x102e9520
102e51c4:	102e9200 	.word	0x102e9200
102e51c8:	fffffda0 	.word	0xfffffda0

102e51cc <_OCPU_InitUserMem>:
102e51cc:	e59f0030 	ldr	r0, [pc, #48]	; 102e5204 <_OCPU_InitUserMem+0x38>
102e51d0:	e59f1030 	ldr	r1, [pc, #48]	; 102e5208 <_OCPU_InitUserMem+0x3c>
102e51d4:	e59f2030 	ldr	r2, [pc, #48]	; 102e520c <_OCPU_InitUserMem+0x40>
102e51d8:	e1510002 	cmp	r1, r2
102e51dc:	b8b00008 	ldmlt	r0!, {r3}
102e51e0:	b8a10008 	stmialt	r1!, {r3}
102e51e4:	bafffffb 	blt	102e51d8 <_OCPU_InitUserMem+0xc>
102e51e8:	e59f1020 	ldr	r1, [pc, #32]	; 102e5210 <_OCPU_InitUserMem+0x44>
102e51ec:	e59f2020 	ldr	r2, [pc, #32]	; 102e5214 <_OCPU_InitUserMem+0x48>
102e51f0:	e3a03000 	mov	r3, #0
102e51f4:	e1510002 	cmp	r1, r2
102e51f8:	b8a10008 	stmialt	r1!, {r3}
102e51fc:	bafffffc 	blt	102e51f4 <_OCPU_InitUserMem+0x28>
102e5200:	e12fff1e 	bx	lr
102e5204:	102e99d0 	.word	0x102e99d0
102e5208:	f03d2000 	.word	0xf03d2000
102e520c:	f03d3940 	.word	0xf03d3940
102e5210:	f03d3940 	.word	0xf03d3940
102e5214:	f03d65e8 	.word	0xf03d65e8

102e5218 <memcpy>:
102e5218:	b5f0      	push	{r4, r5, r6, r7, lr}
102e521a:	4657      	mov	r7, sl
102e521c:	464e      	mov	r6, r9
102e521e:	4645      	mov	r5, r8
102e5220:	b4e0      	push	{r5, r6, r7}
102e5222:	2a03      	cmp	r2, #3
102e5224:	d80e      	bhi.n	102e5244 <memcpy+0x2c>
102e5226:	2300      	movs	r3, #0
102e5228:	2a00      	cmp	r2, #0
102e522a:	d004      	beq.n	102e5236 <memcpy+0x1e>
102e522c:	5ccc      	ldrb	r4, [r1, r3]
102e522e:	54c4      	strb	r4, [r0, r3]
102e5230:	3301      	adds	r3, #1
102e5232:	4293      	cmp	r3, r2
102e5234:	d1fa      	bne.n	102e522c <memcpy+0x14>
102e5236:	bc1c      	pop	{r2, r3, r4}
102e5238:	4690      	mov	r8, r2
102e523a:	4699      	mov	r9, r3
102e523c:	46a2      	mov	sl, r4
102e523e:	bcf0      	pop	{r4, r5, r6, r7}
102e5240:	bc02      	pop	{r1}
102e5242:	4708      	bx	r1
102e5244:	1882      	adds	r2, r0, r2
102e5246:	0783      	lsls	r3, r0, #30
102e5248:	d008      	beq.n	102e525c <memcpy+0x44>
102e524a:	1c03      	adds	r3, r0, #0
102e524c:	2403      	movs	r4, #3
102e524e:	780d      	ldrb	r5, [r1, #0]
102e5250:	701d      	strb	r5, [r3, #0]
102e5252:	3301      	adds	r3, #1
102e5254:	3101      	adds	r1, #1
102e5256:	4223      	tst	r3, r4
102e5258:	d1f9      	bne.n	102e524e <memcpy+0x36>
102e525a:	e000      	b.n	102e525e <memcpy+0x46>
102e525c:	1c03      	adds	r3, r0, #0
102e525e:	2403      	movs	r4, #3
102e5260:	400c      	ands	r4, r1
102e5262:	d046      	beq.n	102e52f2 <memcpy+0xda>
102e5264:	4267      	negs	r7, r4
102e5266:	46ba      	mov	sl, r7
102e5268:	59ce      	ldr	r6, [r1, r7]
102e526a:	1ad7      	subs	r7, r2, r3
102e526c:	2f03      	cmp	r7, #3
102e526e:	dd15      	ble.n	102e529c <memcpy+0x84>
102e5270:	2704      	movs	r7, #4
102e5272:	00e5      	lsls	r5, r4, #3
102e5274:	1b3c      	subs	r4, r7, r4
102e5276:	00e4      	lsls	r4, r4, #3
102e5278:	46ac      	mov	ip, r5
102e527a:	46a1      	mov	r9, r4
102e527c:	4654      	mov	r4, sl
102e527e:	3104      	adds	r1, #4
102e5280:	590f      	ldr	r7, [r1, r4]
102e5282:	464c      	mov	r4, r9
102e5284:	1c3d      	adds	r5, r7, #0
102e5286:	40a5      	lsls	r5, r4
102e5288:	46a8      	mov	r8, r5
102e528a:	4665      	mov	r5, ip
102e528c:	40ee      	lsrs	r6, r5
102e528e:	4644      	mov	r4, r8
102e5290:	4326      	orrs	r6, r4
102e5292:	c340      	stmia	r3!, {r6}
102e5294:	1c3e      	adds	r6, r7, #0
102e5296:	1ad7      	subs	r7, r2, r3
102e5298:	2f03      	cmp	r7, #3
102e529a:	dcef      	bgt.n	102e527c <memcpy+0x64>
102e529c:	429a      	cmp	r2, r3
102e529e:	d9ca      	bls.n	102e5236 <memcpy+0x1e>
102e52a0:	780c      	ldrb	r4, [r1, #0]
102e52a2:	701c      	strb	r4, [r3, #0]
102e52a4:	3301      	adds	r3, #1
102e52a6:	3101      	adds	r1, #1
102e52a8:	4293      	cmp	r3, r2
102e52aa:	d1f9      	bne.n	102e52a0 <memcpy+0x88>
102e52ac:	e7c3      	b.n	102e5236 <memcpy+0x1e>
102e52ae:	680c      	ldr	r4, [r1, #0]
102e52b0:	601c      	str	r4, [r3, #0]
102e52b2:	684d      	ldr	r5, [r1, #4]
102e52b4:	605d      	str	r5, [r3, #4]
102e52b6:	688f      	ldr	r7, [r1, #8]
102e52b8:	609f      	str	r7, [r3, #8]
102e52ba:	68cc      	ldr	r4, [r1, #12]
102e52bc:	60dc      	str	r4, [r3, #12]
102e52be:	690d      	ldr	r5, [r1, #16]
102e52c0:	611d      	str	r5, [r3, #16]
102e52c2:	694f      	ldr	r7, [r1, #20]
102e52c4:	615f      	str	r7, [r3, #20]
102e52c6:	698c      	ldr	r4, [r1, #24]
102e52c8:	619c      	str	r4, [r3, #24]
102e52ca:	69cd      	ldr	r5, [r1, #28]
102e52cc:	61dd      	str	r5, [r3, #28]
102e52ce:	6a0f      	ldr	r7, [r1, #32]
102e52d0:	621f      	str	r7, [r3, #32]
102e52d2:	6a4c      	ldr	r4, [r1, #36]	; 0x24
102e52d4:	625c      	str	r4, [r3, #36]	; 0x24
102e52d6:	6a8d      	ldr	r5, [r1, #40]	; 0x28
102e52d8:	629d      	str	r5, [r3, #40]	; 0x28
102e52da:	6acf      	ldr	r7, [r1, #44]	; 0x2c
102e52dc:	62df      	str	r7, [r3, #44]	; 0x2c
102e52de:	6b0c      	ldr	r4, [r1, #48]	; 0x30
102e52e0:	631c      	str	r4, [r3, #48]	; 0x30
102e52e2:	6b4d      	ldr	r5, [r1, #52]	; 0x34
102e52e4:	635d      	str	r5, [r3, #52]	; 0x34
102e52e6:	6b8f      	ldr	r7, [r1, #56]	; 0x38
102e52e8:	639f      	str	r7, [r3, #56]	; 0x38
102e52ea:	6bcc      	ldr	r4, [r1, #60]	; 0x3c
102e52ec:	3140      	adds	r1, #64	; 0x40
102e52ee:	63dc      	str	r4, [r3, #60]	; 0x3c
102e52f0:	3340      	adds	r3, #64	; 0x40
102e52f2:	1ad4      	subs	r4, r2, r3
102e52f4:	2c3f      	cmp	r4, #63	; 0x3f
102e52f6:	dcda      	bgt.n	102e52ae <memcpy+0x96>
102e52f8:	e00a      	b.n	102e5310 <memcpy+0xf8>
102e52fa:	680d      	ldr	r5, [r1, #0]
102e52fc:	601d      	str	r5, [r3, #0]
102e52fe:	684f      	ldr	r7, [r1, #4]
102e5300:	605f      	str	r7, [r3, #4]
102e5302:	688c      	ldr	r4, [r1, #8]
102e5304:	609c      	str	r4, [r3, #8]
102e5306:	68cd      	ldr	r5, [r1, #12]
102e5308:	60dd      	str	r5, [r3, #12]
102e530a:	3310      	adds	r3, #16
102e530c:	3110      	adds	r1, #16
102e530e:	1ad4      	subs	r4, r2, r3
102e5310:	2c0f      	cmp	r4, #15
102e5312:	dcf2      	bgt.n	102e52fa <memcpy+0xe2>
102e5314:	e002      	b.n	102e531c <memcpy+0x104>
102e5316:	c910      	ldmia	r1!, {r4}
102e5318:	c310      	stmia	r3!, {r4}
102e531a:	1ad4      	subs	r4, r2, r3
102e531c:	2c03      	cmp	r4, #3
102e531e:	dcfa      	bgt.n	102e5316 <memcpy+0xfe>
102e5320:	e7bc      	b.n	102e529c <memcpy+0x84>
102e5322:	46c0      	nop			; (mov r8, r8)

102e5324 <memset>:
102e5324:	b530      	push	{r4, r5, lr}
102e5326:	060c      	lsls	r4, r1, #24
102e5328:	0e24      	lsrs	r4, r4, #24
102e532a:	2a03      	cmp	r2, #3
102e532c:	d80a      	bhi.n	102e5344 <memset+0x20>
102e532e:	1c03      	adds	r3, r0, #0
102e5330:	1811      	adds	r1, r2, r0
102e5332:	2a00      	cmp	r2, #0
102e5334:	d003      	beq.n	102e533e <memset+0x1a>
102e5336:	701c      	strb	r4, [r3, #0]
102e5338:	3301      	adds	r3, #1
102e533a:	428b      	cmp	r3, r1
102e533c:	d1fb      	bne.n	102e5336 <memset+0x12>
102e533e:	bc30      	pop	{r4, r5}
102e5340:	bc02      	pop	{r1}
102e5342:	4708      	bx	r1
102e5344:	1882      	adds	r2, r0, r2
102e5346:	0783      	lsls	r3, r0, #30
102e5348:	d006      	beq.n	102e5358 <memset+0x34>
102e534a:	1c03      	adds	r3, r0, #0
102e534c:	2503      	movs	r5, #3
102e534e:	701c      	strb	r4, [r3, #0]
102e5350:	3301      	adds	r3, #1
102e5352:	422b      	tst	r3, r5
102e5354:	d1fb      	bne.n	102e534e <memset+0x2a>
102e5356:	e000      	b.n	102e535a <memset+0x36>
102e5358:	1c03      	adds	r3, r0, #0
102e535a:	25ff      	movs	r5, #255	; 0xff
102e535c:	4029      	ands	r1, r5
102e535e:	020d      	lsls	r5, r1, #8
102e5360:	1869      	adds	r1, r5, r1
102e5362:	040d      	lsls	r5, r1, #16
102e5364:	1949      	adds	r1, r1, r5
102e5366:	1ad5      	subs	r5, r2, r3
102e5368:	2d3f      	cmp	r5, #63	; 0x3f
102e536a:	dd1a      	ble.n	102e53a2 <memset+0x7e>
102e536c:	6019      	str	r1, [r3, #0]
102e536e:	6059      	str	r1, [r3, #4]
102e5370:	6099      	str	r1, [r3, #8]
102e5372:	60d9      	str	r1, [r3, #12]
102e5374:	6119      	str	r1, [r3, #16]
102e5376:	6159      	str	r1, [r3, #20]
102e5378:	6199      	str	r1, [r3, #24]
102e537a:	61d9      	str	r1, [r3, #28]
102e537c:	6219      	str	r1, [r3, #32]
102e537e:	6259      	str	r1, [r3, #36]	; 0x24
102e5380:	6299      	str	r1, [r3, #40]	; 0x28
102e5382:	62d9      	str	r1, [r3, #44]	; 0x2c
102e5384:	6319      	str	r1, [r3, #48]	; 0x30
102e5386:	6359      	str	r1, [r3, #52]	; 0x34
102e5388:	6399      	str	r1, [r3, #56]	; 0x38
102e538a:	63d9      	str	r1, [r3, #60]	; 0x3c
102e538c:	3340      	adds	r3, #64	; 0x40
102e538e:	1ad5      	subs	r5, r2, r3
102e5390:	2d3f      	cmp	r5, #63	; 0x3f
102e5392:	dceb      	bgt.n	102e536c <memset+0x48>
102e5394:	e005      	b.n	102e53a2 <memset+0x7e>
102e5396:	6019      	str	r1, [r3, #0]
102e5398:	6059      	str	r1, [r3, #4]
102e539a:	6099      	str	r1, [r3, #8]
102e539c:	60d9      	str	r1, [r3, #12]
102e539e:	3310      	adds	r3, #16
102e53a0:	1ad5      	subs	r5, r2, r3
102e53a2:	2d0f      	cmp	r5, #15
102e53a4:	dcf7      	bgt.n	102e5396 <memset+0x72>
102e53a6:	e001      	b.n	102e53ac <memset+0x88>
102e53a8:	c302      	stmia	r3!, {r1}
102e53aa:	1ad5      	subs	r5, r2, r3
102e53ac:	2d03      	cmp	r5, #3
102e53ae:	dcfb      	bgt.n	102e53a8 <memset+0x84>
102e53b0:	429a      	cmp	r2, r3
102e53b2:	d9c4      	bls.n	102e533e <memset+0x1a>
102e53b4:	701c      	strb	r4, [r3, #0]
102e53b6:	3301      	adds	r3, #1
102e53b8:	4293      	cmp	r3, r2
102e53ba:	d1fb      	bne.n	102e53b4 <memset+0x90>
102e53bc:	e7bf      	b.n	102e533e <memset+0x1a>
102e53be:	46c0      	nop			; (mov r8, r8)

102e53c0 <__aeabi_uidiv>:
102e53c0:	e2512001 	subs	r2, r1, #1
102e53c4:	012fff1e 	bxeq	lr
102e53c8:	3a000036 	bcc	102e54a8 <__aeabi_uidiv+0xe8>
102e53cc:	e1500001 	cmp	r0, r1
102e53d0:	9a000022 	bls	102e5460 <__aeabi_uidiv+0xa0>
102e53d4:	e1110002 	tst	r1, r2
102e53d8:	0a000023 	beq	102e546c <__aeabi_uidiv+0xac>
102e53dc:	e311020e 	tst	r1, #-536870912	; 0xe0000000
102e53e0:	01a01181 	lsleq	r1, r1, #3
102e53e4:	03a03008 	moveq	r3, #8
102e53e8:	13a03001 	movne	r3, #1
102e53ec:	e3510201 	cmp	r1, #268435456	; 0x10000000
102e53f0:	31510000 	cmpcc	r1, r0
102e53f4:	31a01201 	lslcc	r1, r1, #4
102e53f8:	31a03203 	lslcc	r3, r3, #4
102e53fc:	3afffffa 	bcc	102e53ec <__aeabi_uidiv+0x2c>
102e5400:	e3510102 	cmp	r1, #-2147483648	; 0x80000000
102e5404:	31510000 	cmpcc	r1, r0
102e5408:	31a01081 	lslcc	r1, r1, #1
102e540c:	31a03083 	lslcc	r3, r3, #1
102e5410:	3afffffa 	bcc	102e5400 <__aeabi_uidiv+0x40>
102e5414:	e3a02000 	mov	r2, #0
102e5418:	e1500001 	cmp	r0, r1
102e541c:	20400001 	subcs	r0, r0, r1
102e5420:	21822003 	orrcs	r2, r2, r3
102e5424:	e15000a1 	cmp	r0, r1, lsr #1
102e5428:	204000a1 	subcs	r0, r0, r1, lsr #1
102e542c:	218220a3 	orrcs	r2, r2, r3, lsr #1
102e5430:	e1500121 	cmp	r0, r1, lsr #2
102e5434:	20400121 	subcs	r0, r0, r1, lsr #2
102e5438:	21822123 	orrcs	r2, r2, r3, lsr #2
102e543c:	e15001a1 	cmp	r0, r1, lsr #3
102e5440:	204001a1 	subcs	r0, r0, r1, lsr #3
102e5444:	218221a3 	orrcs	r2, r2, r3, lsr #3
102e5448:	e3500000 	cmp	r0, #0
102e544c:	11b03223 	lsrsne	r3, r3, #4
102e5450:	11a01221 	lsrne	r1, r1, #4
102e5454:	1affffef 	bne	102e5418 <__aeabi_uidiv+0x58>
102e5458:	e1a00002 	mov	r0, r2
102e545c:	e12fff1e 	bx	lr
102e5460:	03a00001 	moveq	r0, #1
102e5464:	13a00000 	movne	r0, #0
102e5468:	e12fff1e 	bx	lr
102e546c:	e3510801 	cmp	r1, #65536	; 0x10000
102e5470:	21a01821 	lsrcs	r1, r1, #16
102e5474:	23a02010 	movcs	r2, #16
102e5478:	33a02000 	movcc	r2, #0
102e547c:	e3510c01 	cmp	r1, #256	; 0x100
102e5480:	21a01421 	lsrcs	r1, r1, #8
102e5484:	22822008 	addcs	r2, r2, #8
102e5488:	e3510010 	cmp	r1, #16
102e548c:	21a01221 	lsrcs	r1, r1, #4
102e5490:	22822004 	addcs	r2, r2, #4
102e5494:	e3510004 	cmp	r1, #4
102e5498:	82822003 	addhi	r2, r2, #3
102e549c:	908220a1 	addls	r2, r2, r1, lsr #1
102e54a0:	e1a00230 	lsr	r0, r0, r2
102e54a4:	e12fff1e 	bx	lr
102e54a8:	e12fff1f 	bx	pc
102e54ac:	e1a00000 	nop			; (mov r0, r0)
102e54b0:	e3500000 	cmp	r0, #0
102e54b4:	13e00000 	mvnne	r0, #0
102e54b8:	ea000048 	b	102e55e0 <____aeabi_idiv0_from_arm>

102e54bc <__aeabi_uidivmod>:
102e54bc:	e3510000 	cmp	r1, #0
102e54c0:	0afffff8 	beq	102e54a8 <__aeabi_uidiv+0xe8>
102e54c4:	e92d4003 	push	{r0, r1, lr}
102e54c8:	ebffffbc 	bl	102e53c0 <__aeabi_uidiv>
102e54cc:	e8bd4006 	pop	{r1, r2, lr}
102e54d0:	e0030092 	mul	r3, r2, r0
102e54d4:	e0411003 	sub	r1, r1, r3
102e54d8:	e12fff1e 	bx	lr

102e54dc <__aeabi_idiv0>:
102e54dc:	4770      	bx	lr
102e54de:	46c0      	nop			; (mov r8, r8)

102e54e0 <__aeabi_d2iz>:
102e54e0:	e1a02081 	lsl	r2, r1, #1
102e54e4:	e2922602 	adds	r2, r2, #2097152	; 0x200000
102e54e8:	2a00000c 	bcs	102e5520 <__aeabi_d2iz+0x40>
102e54ec:	5a000009 	bpl	102e5518 <__aeabi_d2iz+0x38>
102e54f0:	e3e03e3e 	mvn	r3, #992	; 0x3e0
102e54f4:	e0532ac2 	subs	r2, r3, r2, asr #21
102e54f8:	9a00000a 	bls	102e5528 <__aeabi_d2iz+0x48>
102e54fc:	e1a03581 	lsl	r3, r1, #11
102e5500:	e3833102 	orr	r3, r3, #-2147483648	; 0x80000000
102e5504:	e1833aa0 	orr	r3, r3, r0, lsr #21
102e5508:	e3110102 	tst	r1, #-2147483648	; 0x80000000
102e550c:	e1a00233 	lsr	r0, r3, r2
102e5510:	12600000 	rsbne	r0, r0, #0
102e5514:	e12fff1e 	bx	lr
102e5518:	e3a00000 	mov	r0, #0
102e551c:	e12fff1e 	bx	lr
102e5520:	e1900601 	orrs	r0, r0, r1, lsl #12
102e5524:	1a000002 	bne	102e5534 <__aeabi_d2iz+0x54>
102e5528:	e2110102 	ands	r0, r1, #-2147483648	; 0x80000000
102e552c:	03e00102 	mvneq	r0, #-2147483648	; 0x80000000
102e5530:	e12fff1e 	bx	lr
102e5534:	e3a00000 	mov	r0, #0
102e5538:	e12fff1e 	bx	lr

102e553c <__aeabi_d2f>:
102e553c:	e1a02081 	lsl	r2, r1, #1
102e5540:	e2523207 	subs	r3, r2, #1879048192	; 0x70000000
102e5544:	2253c602 	subscs	ip, r3, #2097152	; 0x200000
102e5548:	227cc57f 	rsbscs	ip, ip, #532676608	; 0x1fc00000
102e554c:	9a000006 	bls	102e556c <__aeabi_d2f+0x30>
102e5550:	e201c102 	and	ip, r1, #-2147483648	; 0x80000000
102e5554:	e1a02180 	lsl	r2, r0, #3
102e5558:	e18c0ea0 	orr	r0, ip, r0, lsr #29
102e555c:	e3520102 	cmp	r2, #-2147483648	; 0x80000000
102e5560:	e0a00103 	adc	r0, r0, r3, lsl #2
102e5564:	03c00001 	biceq	r0, r0, #1
102e5568:	e12fff1e 	bx	lr
102e556c:	e3110101 	tst	r1, #1073741824	; 0x40000000
102e5570:	1a00000f 	bne	102e55b4 <__aeabi_d2f+0x78>
102e5574:	e293262e 	adds	r2, r3, #48234496	; 0x2e00000
102e5578:	b2010102 	andlt	r0, r1, #-2147483648	; 0x80000000
102e557c:	b12fff1e 	bxlt	lr
102e5580:	e3811601 	orr	r1, r1, #1048576	; 0x100000
102e5584:	e1a02aa2 	lsr	r2, r2, #21
102e5588:	e2622018 	rsb	r2, r2, #24
102e558c:	e262c020 	rsb	ip, r2, #32
102e5590:	e1b03c10 	lsls	r3, r0, ip
102e5594:	e1a00230 	lsr	r0, r0, r2
102e5598:	13800001 	orrne	r0, r0, #1
102e559c:	e1a03581 	lsl	r3, r1, #11
102e55a0:	e1a035a3 	lsr	r3, r3, #11
102e55a4:	e1800c13 	orr	r0, r0, r3, lsl ip
102e55a8:	e1a03233 	lsr	r3, r3, r2
102e55ac:	e1a03083 	lsl	r3, r3, #1
102e55b0:	eaffffe6 	b	102e5550 <__aeabi_d2f+0x14>
102e55b4:	e1f03ac2 	mvns	r3, r2, asr #21
102e55b8:	1a000003 	bne	102e55cc <__aeabi_d2f+0x90>
102e55bc:	e1903601 	orrs	r3, r0, r1, lsl #12
102e55c0:	13a0047f 	movne	r0, #2130706432	; 0x7f000000
102e55c4:	13800503 	orrne	r0, r0, #12582912	; 0xc00000
102e55c8:	112fff1e 	bxne	lr
102e55cc:	e2010102 	and	r0, r1, #-2147483648	; 0x80000000
102e55d0:	e380047f 	orr	r0, r0, #2130706432	; 0x7f000000
102e55d4:	e3800502 	orr	r0, r0, #8388608	; 0x800000
102e55d8:	e12fff1e 	bx	lr
102e55dc:	00000000 	andeq	r0, r0, r0

102e55e0 <____aeabi_idiv0_from_arm>:
102e55e0:	e59fc000 	ldr	ip, [pc]	; 102e55e8 <____aeabi_idiv0_from_arm+0x8>
102e55e4:	e12fff1c 	bx	ip
102e55e8:	102e54dd 	.word	0x102e54dd
102e55ec:	00000000 	.word	0x00000000

Disassembly of section .text.Ql_GPIO_Init:

102e55f0 <Ql_GPIO_Init>:
102e55f0:	e92d41f0 	push	{r4, r5, r6, r7, r8, lr}
102e55f4:	e59f405c 	ldr	r4, [pc, #92]	; 102e5658 <Ql_GPIO_Init+0x68>
102e55f8:	e1a06003 	mov	r6, r3
102e55fc:	e5943000 	ldr	r3, [r4]
102e5600:	e1a05000 	mov	r5, r0
102e5604:	e3530000 	cmp	r3, #0
102e5608:	e1a08001 	mov	r8, r1
102e560c:	e1a07002 	mov	r7, r2
102e5610:	1a000006 	bne	102e5630 <Ql_GPIO_Init+0x40>
102e5614:	e59f3040 	ldr	r3, [pc, #64]	; 102e565c <Ql_GPIO_Init+0x6c>
102e5618:	e59f0040 	ldr	r0, [pc, #64]	; 102e5660 <Ql_GPIO_Init+0x70>
102e561c:	e5933000 	ldr	r3, [r3]
102e5620:	e12fff33 	blx	r3
102e5624:	e3500000 	cmp	r0, #0
102e5628:	0a000008 	beq	102e5650 <Ql_GPIO_Init+0x60>
102e562c:	e5840000 	str	r0, [r4]
102e5630:	e59f3020 	ldr	r3, [pc, #32]	; 102e5658 <Ql_GPIO_Init+0x68>
102e5634:	e1a00005 	mov	r0, r5
102e5638:	e593c000 	ldr	ip, [r3]
102e563c:	e1a01008 	mov	r1, r8
102e5640:	e1a02007 	mov	r2, r7
102e5644:	e1a03006 	mov	r3, r6
102e5648:	e12fff3c 	blx	ip
102e564c:	e8bd81f0 	pop	{r4, r5, r6, r7, r8, pc}
102e5650:	e59f000c 	ldr	r0, [pc, #12]	; 102e5664 <Ql_GPIO_Init+0x74>
102e5654:	e8bd81f0 	pop	{r4, r5, r6, r7, r8, pc}
102e5658:	f03d5858 	.word	0xf03d5858
102e565c:	f03d5884 	.word	0xf03d5884
102e5660:	102e9538 	.word	0x102e9538
102e5664:	ffffd8f0 	.word	0xffffd8f0

Disassembly of section .text.Ql_GPIO_SetLevel:

102e5668 <Ql_GPIO_SetLevel>:
102e5668:	e92d4070 	push	{r4, r5, r6, lr}
102e566c:	e59f404c 	ldr	r4, [pc, #76]	; 102e56c0 <Ql_GPIO_SetLevel+0x58>
102e5670:	e1a05000 	mov	r5, r0
102e5674:	e5943004 	ldr	r3, [r4, #4]
102e5678:	e1a06001 	mov	r6, r1
102e567c:	e3530000 	cmp	r3, #0
102e5680:	1a000006 	bne	102e56a0 <Ql_GPIO_SetLevel+0x38>
102e5684:	e59f3038 	ldr	r3, [pc, #56]	; 102e56c4 <Ql_GPIO_SetLevel+0x5c>
102e5688:	e59f0038 	ldr	r0, [pc, #56]	; 102e56c8 <Ql_GPIO_SetLevel+0x60>
102e568c:	e5933000 	ldr	r3, [r3]
102e5690:	e12fff33 	blx	r3
102e5694:	e3500000 	cmp	r0, #0
102e5698:	0a000006 	beq	102e56b8 <Ql_GPIO_SetLevel+0x50>
102e569c:	e5840004 	str	r0, [r4, #4]
102e56a0:	e59f3018 	ldr	r3, [pc, #24]	; 102e56c0 <Ql_GPIO_SetLevel+0x58>
102e56a4:	e1a00005 	mov	r0, r5
102e56a8:	e5933004 	ldr	r3, [r3, #4]
102e56ac:	e1a01006 	mov	r1, r6
102e56b0:	e12fff33 	blx	r3
102e56b4:	e8bd8070 	pop	{r4, r5, r6, pc}
102e56b8:	e59f000c 	ldr	r0, [pc, #12]	; 102e56cc <Ql_GPIO_SetLevel+0x64>
102e56bc:	e8bd8070 	pop	{r4, r5, r6, pc}
102e56c0:	f03d5858 	.word	0xf03d5858
102e56c4:	f03d5884 	.word	0xf03d5884
102e56c8:	102e9545 	.word	0x102e9545
102e56cc:	ffffd8f0 	.word	0xffffd8f0

Disassembly of section .text.Ql_GPIO_GetLevel:

102e56d0 <Ql_GPIO_GetLevel>:
102e56d0:	e92d4038 	push	{r3, r4, r5, lr}
102e56d4:	e59f4044 	ldr	r4, [pc, #68]	; 102e5720 <Ql_GPIO_GetLevel+0x50>
102e56d8:	e1a05000 	mov	r5, r0
102e56dc:	e5943008 	ldr	r3, [r4, #8]
102e56e0:	e3530000 	cmp	r3, #0
102e56e4:	1a000006 	bne	102e5704 <Ql_GPIO_GetLevel+0x34>
102e56e8:	e59f3034 	ldr	r3, [pc, #52]	; 102e5724 <Ql_GPIO_GetLevel+0x54>
102e56ec:	e59f0034 	ldr	r0, [pc, #52]	; 102e5728 <Ql_GPIO_GetLevel+0x58>
102e56f0:	e5933000 	ldr	r3, [r3]
102e56f4:	e12fff33 	blx	r3
102e56f8:	e3500000 	cmp	r0, #0
102e56fc:	0a000005 	beq	102e5718 <Ql_GPIO_GetLevel+0x48>
102e5700:	e5840008 	str	r0, [r4, #8]
102e5704:	e59f3014 	ldr	r3, [pc, #20]	; 102e5720 <Ql_GPIO_GetLevel+0x50>
102e5708:	e1a00005 	mov	r0, r5
102e570c:	e5933008 	ldr	r3, [r3, #8]
102e5710:	e12fff33 	blx	r3
102e5714:	e8bd8038 	pop	{r3, r4, r5, pc}
102e5718:	e59f000c 	ldr	r0, [pc, #12]	; 102e572c <Ql_GPIO_GetLevel+0x5c>
102e571c:	e8bd8038 	pop	{r3, r4, r5, pc}
102e5720:	f03d5858 	.word	0xf03d5858
102e5724:	f03d5884 	.word	0xf03d5884
102e5728:	102e9556 	.word	0x102e9556
102e572c:	ffffd8f0 	.word	0xffffd8f0

Disassembly of section .text.Ql_MEM_Alloc:

102e5730 <Ql_MEM_Alloc>:
102e5730:	e92d4070 	push	{r4, r5, r6, lr}
102e5734:	e59f5058 	ldr	r5, [pc, #88]	; 102e5794 <Ql_MEM_Alloc+0x64>
102e5738:	e1a06000 	mov	r6, r0
102e573c:	e5953000 	ldr	r3, [r5]
102e5740:	e3530000 	cmp	r3, #0
102e5744:	1a00000d 	bne	102e5780 <Ql_MEM_Alloc+0x50>
102e5748:	e59f3048 	ldr	r3, [pc, #72]	; 102e5798 <Ql_MEM_Alloc+0x68>
102e574c:	e59f0048 	ldr	r0, [pc, #72]	; 102e579c <Ql_MEM_Alloc+0x6c>
102e5750:	e5933000 	ldr	r3, [r3]
102e5754:	e12fff33 	blx	r3
102e5758:	e2504000 	subs	r4, r0, #0
102e575c:	15854000 	strne	r4, [r5]
102e5760:	1a000006 	bne	102e5780 <Ql_MEM_Alloc+0x50>
102e5764:	e59f3034 	ldr	r3, [pc, #52]	; 102e57a0 <Ql_MEM_Alloc+0x70>
102e5768:	e59f102c 	ldr	r1, [pc, #44]	; 102e579c <Ql_MEM_Alloc+0x6c>
102e576c:	e5933000 	ldr	r3, [r3]
102e5770:	e59f002c 	ldr	r0, [pc, #44]	; 102e57a4 <Ql_MEM_Alloc+0x74>
102e5774:	e12fff33 	blx	r3
102e5778:	e1a00004 	mov	r0, r4
102e577c:	e8bd8070 	pop	{r4, r5, r6, pc}
102e5780:	e59f300c 	ldr	r3, [pc, #12]	; 102e5794 <Ql_MEM_Alloc+0x64>
102e5784:	e1a00006 	mov	r0, r6
102e5788:	e5933000 	ldr	r3, [r3]
102e578c:	e12fff33 	blx	r3
102e5790:	e8bd8070 	pop	{r4, r5, r6, pc}
102e5794:	f03d5878 	.word	0xf03d5878
102e5798:	f03d5884 	.word	0xf03d5884
102e579c:	102e95d2 	.word	0x102e95d2
102e57a0:	f03d6724 	.word	0xf03d6724
102e57a4:	f03d3910 	.word	0xf03d3910

Disassembly of section .text.Ql_MEM_Free:

102e57a8 <Ql_MEM_Free>:
102e57a8:	e92d4038 	push	{r3, r4, r5, lr}
102e57ac:	e59f4054 	ldr	r4, [pc, #84]	; 102e5808 <Ql_MEM_Free+0x60>
102e57b0:	e1a05000 	mov	r5, r0
102e57b4:	e5943004 	ldr	r3, [r4, #4]
102e57b8:	e3530000 	cmp	r3, #0
102e57bc:	1a00000c 	bne	102e57f4 <Ql_MEM_Free+0x4c>
102e57c0:	e59f3044 	ldr	r3, [pc, #68]	; 102e580c <Ql_MEM_Free+0x64>
102e57c4:	e59f0044 	ldr	r0, [pc, #68]	; 102e5810 <Ql_MEM_Free+0x68>
102e57c8:	e5933000 	ldr	r3, [r3]
102e57cc:	e12fff33 	blx	r3
102e57d0:	e3500000 	cmp	r0, #0
102e57d4:	15840004 	strne	r0, [r4, #4]
102e57d8:	1a000005 	bne	102e57f4 <Ql_MEM_Free+0x4c>
102e57dc:	e59f3030 	ldr	r3, [pc, #48]	; 102e5814 <Ql_MEM_Free+0x6c>
102e57e0:	e59f1028 	ldr	r1, [pc, #40]	; 102e5810 <Ql_MEM_Free+0x68>
102e57e4:	e5933000 	ldr	r3, [r3]
102e57e8:	e59f0028 	ldr	r0, [pc, #40]	; 102e5818 <Ql_MEM_Free+0x70>
102e57ec:	e12fff33 	blx	r3
102e57f0:	e8bd8038 	pop	{r3, r4, r5, pc}
102e57f4:	e59f300c 	ldr	r3, [pc, #12]	; 102e5808 <Ql_MEM_Free+0x60>
102e57f8:	e1a00005 	mov	r0, r5
102e57fc:	e5933004 	ldr	r3, [r3, #4]
102e5800:	e12fff33 	blx	r3
102e5804:	e8bd8038 	pop	{r3, r4, r5, pc}
102e5808:	f03d5878 	.word	0xf03d5878
102e580c:	f03d5884 	.word	0xf03d5884
102e5810:	102e95df 	.word	0x102e95df
102e5814:	f03d6724 	.word	0xf03d6724
102e5818:	f03d3910 	.word	0xf03d3910

Disassembly of section .text.ql_InitVFunc:

102e581c <ql_InitVFunc>:
102e581c:	e5903000 	ldr	r3, [r0]
102e5820:	e59f20d8 	ldr	r2, [pc, #216]	; 102e5900 <ql_InitVFunc+0xe4>
102e5824:	e5933000 	ldr	r3, [r3]
102e5828:	e5901018 	ldr	r1, [r0, #24]
102e582c:	e3530008 	cmp	r3, #8
102e5830:	23a03008 	movcs	r3, #8
102e5834:	e5823000 	str	r3, [r2]
102e5838:	e59f20c4 	ldr	r2, [pc, #196]	; 102e5904 <ql_InitVFunc+0xe8>
102e583c:	e3530001 	cmp	r3, #1
102e5840:	e5821000 	str	r1, [r2]
102e5844:	e59f20bc 	ldr	r2, [pc, #188]	; 102e5908 <ql_InitVFunc+0xec>
102e5848:	e590101c 	ldr	r1, [r0, #28]
102e584c:	e5821000 	str	r1, [r2]
102e5850:	e59f10b4 	ldr	r1, [pc, #180]	; 102e590c <ql_InitVFunc+0xf0>
102e5854:	e59f20b4 	ldr	r2, [pc, #180]	; 102e5910 <ql_InitVFunc+0xf4>
102e5858:	9a000004 	bls	102e5870 <ql_InitVFunc+0x54>
102e585c:	e590c004 	ldr	ip, [r0, #4]
102e5860:	e3530002 	cmp	r3, #2
102e5864:	e581c000 	str	ip, [r1]
102e5868:	1a000003 	bne	102e587c <ql_InitVFunc+0x60>
102e586c:	ea000007 	b	102e5890 <ql_InitVFunc+0x74>
102e5870:	e3a03000 	mov	r3, #0
102e5874:	e5813000 	str	r3, [r1]
102e5878:	ea000004 	b	102e5890 <ql_InitVFunc+0x74>
102e587c:	e5901008 	ldr	r1, [r0, #8]
102e5880:	e3530003 	cmp	r3, #3
102e5884:	e5821000 	str	r1, [r2]
102e5888:	1a000003 	bne	102e589c <ql_InitVFunc+0x80>
102e588c:	ea000008 	b	102e58b4 <ql_InitVFunc+0x98>
102e5890:	e3a03000 	mov	r3, #0
102e5894:	e5823000 	str	r3, [r2]
102e5898:	ea000005 	b	102e58b4 <ql_InitVFunc+0x98>
102e589c:	e59f2070 	ldr	r2, [pc, #112]	; 102e5914 <ql_InitVFunc+0xf8>
102e58a0:	e590100c 	ldr	r1, [r0, #12]
102e58a4:	e3530004 	cmp	r3, #4
102e58a8:	e5821000 	str	r1, [r2]
102e58ac:	1a000004 	bne	102e58c4 <ql_InitVFunc+0xa8>
102e58b0:	ea00000a 	b	102e58e0 <ql_InitVFunc+0xc4>
102e58b4:	e59f3058 	ldr	r3, [pc, #88]	; 102e5914 <ql_InitVFunc+0xf8>
102e58b8:	e3a02000 	mov	r2, #0
102e58bc:	e5832000 	str	r2, [r3]
102e58c0:	ea000006 	b	102e58e0 <ql_InitVFunc+0xc4>
102e58c4:	e59f204c 	ldr	r2, [pc, #76]	; 102e5918 <ql_InitVFunc+0xfc>
102e58c8:	e5901010 	ldr	r1, [r0, #16]
102e58cc:	e3530005 	cmp	r3, #5
102e58d0:	e5821000 	str	r1, [r2]
102e58d4:	15902014 	ldrne	r2, [r0, #20]
102e58d8:	1a000005 	bne	102e58f4 <ql_InitVFunc+0xd8>
102e58dc:	ea000003 	b	102e58f0 <ql_InitVFunc+0xd4>
102e58e0:	e59f3030 	ldr	r3, [pc, #48]	; 102e5918 <ql_InitVFunc+0xfc>
102e58e4:	e3a02000 	mov	r2, #0
102e58e8:	e5832000 	str	r2, [r3]
102e58ec:	eaffffff 	b	102e58f0 <ql_InitVFunc+0xd4>
102e58f0:	e3a02000 	mov	r2, #0
102e58f4:	e59f3020 	ldr	r3, [pc, #32]	; 102e591c <ql_InitVFunc+0x100>
102e58f8:	e5832000 	str	r2, [r3]
102e58fc:	e12fff1e 	bx	lr
102e5900:	f03d58a4 	.word	0xf03d58a4
102e5904:	f03d58a0 	.word	0xf03d58a0
102e5908:	f03d5884 	.word	0xf03d5884
102e590c:	f03d6724 	.word	0xf03d6724
102e5910:	f03d6720 	.word	0xf03d6720
102e5914:	f03d671c 	.word	0xf03d671c
102e5918:	f03d672c 	.word	0xf03d672c
102e591c:	f03d6728 	.word	0xf03d6728

Disassembly of section .text.ocpu_main:

102e5920 <ocpu_main>:
102e5920:	e92d4010 	push	{r4, lr}
102e5924:	e24dd020 	sub	sp, sp, #32
102e5928:	e1a04000 	mov	r4, r0
102e592c:	e3a01000 	mov	r1, #0
102e5930:	e3a0201e 	mov	r2, #30
102e5934:	e59f30ac 	ldr	r3, [pc, #172]	; 102e59e8 <ocpu_main+0xc8>
102e5938:	e1a0000d 	mov	r0, sp
102e593c:	e12fff33 	blx	r3
102e5940:	e5d42000 	ldrb	r2, [r4]
102e5944:	e59f10a0 	ldr	r1, [pc, #160]	; 102e59ec <ocpu_main+0xcc>
102e5948:	e5943004 	ldr	r3, [r4, #4]
102e594c:	e3520000 	cmp	r2, #0
102e5950:	e5c12004 	strb	r2, [r1, #4]
102e5954:	e5813008 	str	r3, [r1, #8]
102e5958:	1a000004 	bne	102e5970 <ocpu_main+0x50>
102e595c:	e59f208c 	ldr	r2, [pc, #140]	; 102e59f0 <ocpu_main+0xd0>
102e5960:	e59f008c 	ldr	r0, [pc, #140]	; 102e59f4 <ocpu_main+0xd4>
102e5964:	e1a01003 	mov	r1, r3
102e5968:	e5922000 	ldr	r2, [r2]
102e596c:	e12fff33 	blx	r3
102e5970:	e5940008 	ldr	r0, [r4, #8]
102e5974:	e3500000 	cmp	r0, #0
102e5978:	0a000002 	beq	102e5988 <ocpu_main+0x68>
102e597c:	e59f3074 	ldr	r3, [pc, #116]	; 102e59f8 <ocpu_main+0xd8>
102e5980:	e12fff33 	blx	r3
102e5984:	ea000003 	b	102e5998 <ocpu_main+0x78>
102e5988:	e59f305c 	ldr	r3, [pc, #92]	; 102e59ec <ocpu_main+0xcc>
102e598c:	e59f0068 	ldr	r0, [pc, #104]	; 102e59fc <ocpu_main+0xdc>
102e5990:	e5933008 	ldr	r3, [r3, #8]
102e5994:	e12fff33 	blx	r3
102e5998:	e3a0201e 	mov	r2, #30
102e599c:	e1a0000d 	mov	r0, sp
102e59a0:	e3a01000 	mov	r1, #0
102e59a4:	e59f3054 	ldr	r3, [pc, #84]	; 102e5a00 <ocpu_main+0xe0>
102e59a8:	e12fff33 	blx	r3
102e59ac:	e1a0000d 	mov	r0, sp
102e59b0:	e3a0101e 	mov	r1, #30
102e59b4:	e59f3048 	ldr	r3, [pc, #72]	; 102e5a04 <ocpu_main+0xe4>
102e59b8:	e12fff33 	blx	r3
102e59bc:	e59f3028 	ldr	r3, [pc, #40]	; 102e59ec <ocpu_main+0xcc>
102e59c0:	e1a0100d 	mov	r1, sp
102e59c4:	e5933008 	ldr	r3, [r3, #8]
102e59c8:	e59f0038 	ldr	r0, [pc, #56]	; 102e5a08 <ocpu_main+0xe8>
102e59cc:	e12fff33 	blx	r3
102e59d0:	e59f3034 	ldr	r3, [pc, #52]	; 102e5a0c <ocpu_main+0xec>
102e59d4:	e5932000 	ldr	r2, [r3]
102e59d8:	e5930004 	ldr	r0, [r3, #4]
102e59dc:	e12fff32 	blx	r2
102e59e0:	e28dd020 	add	sp, sp, #32
102e59e4:	e8bd8010 	pop	{r4, pc}
102e59e8:	102e5325 	.word	0x102e5325
102e59ec:	f03d58a4 	.word	0xf03d58a4
102e59f0:	f03d6724 	.word	0xf03d6724
102e59f4:	102e95eb 	.word	0x102e95eb
102e59f8:	102e581c 	.word	0x102e581c
102e59fc:	102e9622 	.word	0x102e9622
102e5a00:	102e6774 	.word	0x102e6774
102e5a04:	102e6a78 	.word	0x102e6a78
102e5a08:	102e963c 	.word	0x102e963c
102e5a0c:	102e7e7c 	.word	0x102e7e7c

Disassembly of section .text.proc_reserved2:

102e5a10 <proc_reserved2>:
102e5a10:	e59f3054 	ldr	r3, [pc, #84]	; 102e5a6c <proc_reserved2+0x5c>
102e5a14:	e92d4030 	push	{r4, r5, lr}
102e5a18:	e5830000 	str	r0, [r3]
102e5a1c:	e59f404c 	ldr	r4, [pc, #76]	; 102e5a70 <proc_reserved2+0x60>
102e5a20:	e59f304c 	ldr	r3, [pc, #76]	; 102e5a74 <proc_reserved2+0x64>
102e5a24:	e59f504c 	ldr	r5, [pc, #76]	; 102e5a78 <proc_reserved2+0x68>
102e5a28:	e3a02001 	mov	r2, #1
102e5a2c:	e24dd014 	sub	sp, sp, #20
102e5a30:	e5c32000 	strb	r2, [r3]
102e5a34:	e1a0000d 	mov	r0, sp
102e5a38:	e12fff34 	blx	r4
102e5a3c:	e59d3000 	ldr	r3, [sp]
102e5a40:	e3530002 	cmp	r3, #2
102e5a44:	1afffffa 	bne	102e5a34 <proc_reserved2+0x24>
102e5a48:	e59d0008 	ldr	r0, [sp, #8]
102e5a4c:	e3a01000 	mov	r1, #0
102e5a50:	e12fff35 	blx	r5
102e5a54:	e59d0008 	ldr	r0, [sp, #8]
102e5a58:	e3500000 	cmp	r0, #0
102e5a5c:	0afffff4 	beq	102e5a34 <proc_reserved2+0x24>
102e5a60:	e59f3014 	ldr	r3, [pc, #20]	; 102e5a7c <proc_reserved2+0x6c>
102e5a64:	e12fff33 	blx	r3
102e5a68:	eafffff1 	b	102e5a34 <proc_reserved2+0x24>
102e5a6c:	f03d3928 	.word	0xf03d3928
102e5a70:	102e6adc 	.word	0x102e6adc
102e5a74:	f03d58b4 	.word	0xf03d58b4
102e5a78:	102e1b74 	.word	0x102e1b74
102e5a7c:	102e57a8 	.word	0x102e57a8

Disassembly of section .text.ril_StopATTimer:

102e5a80 <ril_StopATTimer>:
102e5a80:	e92d4008 	push	{r3, lr}
102e5a84:	e59f3020 	ldr	r3, [pc, #32]	; 102e5aac <ril_StopATTimer+0x2c>
102e5a88:	e5d30009 	ldrb	r0, [r3, #9]
102e5a8c:	e3500000 	cmp	r0, #0
102e5a90:	08bd8008 	popeq	{r3, pc}
102e5a94:	e3a02000 	mov	r2, #0
102e5a98:	e5c32009 	strb	r2, [r3, #9]
102e5a9c:	e5930000 	ldr	r0, [r3]
102e5aa0:	e59f3008 	ldr	r3, [pc, #8]	; 102e5ab0 <ril_StopATTimer+0x30>
102e5aa4:	e12fff33 	blx	r3
102e5aa8:	e8bd8008 	pop	{r3, pc}
102e5aac:	f03d392c 	.word	0xf03d392c
102e5ab0:	102e6eb4 	.word	0x102e6eb4

Disassembly of section .text.Callback_OnATTimer:

102e5ab4 <Callback_OnATTimer>:
102e5ab4:	e92d4008 	push	{r3, lr}
102e5ab8:	e59f3030 	ldr	r3, [pc, #48]	; 102e5af0 <Callback_OnATTimer+0x3c>
102e5abc:	e5d33009 	ldrb	r3, [r3, #9]
102e5ac0:	e3530000 	cmp	r3, #0
102e5ac4:	08bd8008 	popeq	{r3, pc}
102e5ac8:	e59f3024 	ldr	r3, [pc, #36]	; 102e5af4 <Callback_OnATTimer+0x40>
102e5acc:	e12fff33 	blx	r3
102e5ad0:	e59f3020 	ldr	r3, [pc, #32]	; 102e5af8 <Callback_OnATTimer+0x44>
102e5ad4:	e3e02001 	mvn	r2, #1
102e5ad8:	e5832000 	str	r2, [r3]
102e5adc:	e5930004 	ldr	r0, [r3, #4]
102e5ae0:	e3a01001 	mov	r1, #1
102e5ae4:	e59f3010 	ldr	r3, [pc, #16]	; 102e5afc <Callback_OnATTimer+0x48>
102e5ae8:	e12fff33 	blx	r3
102e5aec:	e8bd8008 	pop	{r3, pc}
102e5af0:	f03d392c 	.word	0xf03d392c
102e5af4:	102e5a80 	.word	0x102e5a80
102e5af8:	f03d58b8 	.word	0xf03d58b8
102e5afc:	102e6d6c 	.word	0x102e6d6c

Disassembly of section .text.CallBack_SerialPort_Hdlr:

102e5b00 <CallBack_SerialPort_Hdlr>:
102e5b00:	e92d4ff8 	push	{r3, r4, r5, r6, r7, r8, r9, sl, fp, lr}
102e5b04:	e2515000 	subs	r5, r1, #0
102e5b08:	18bd8ff8 	popne	{r3, r4, r5, r6, r7, r8, r9, sl, fp, pc}
102e5b0c:	e3500002 	cmp	r0, #2
102e5b10:	18bd8ff8 	popne	{r3, r4, r5, r6, r7, r8, r9, sl, fp, pc}
102e5b14:	e59f030c 	ldr	r0, [pc, #780]	; 102e5e28 <CallBack_SerialPort_Hdlr+0x328>
102e5b18:	e3a02b02 	mov	r2, #2048	; 0x800
102e5b1c:	e59f3308 	ldr	r3, [pc, #776]	; 102e5e2c <CallBack_SerialPort_Hdlr+0x32c>
102e5b20:	e12fff33 	blx	r3
102e5b24:	e59f72fc 	ldr	r7, [pc, #764]	; 102e5e28 <CallBack_SerialPort_Hdlr+0x328>
102e5b28:	e59f8300 	ldr	r8, [pc, #768]	; 102e5e30 <CallBack_SerialPort_Hdlr+0x330>
102e5b2c:	e3a00002 	mov	r0, #2
102e5b30:	e0871005 	add	r1, r7, r5
102e5b34:	e2652b02 	rsb	r2, r5, #2048	; 0x800
102e5b38:	e12fff38 	blx	r8
102e5b3c:	e59f42f0 	ldr	r4, [pc, #752]	; 102e5e34 <CallBack_SerialPort_Hdlr+0x334>
102e5b40:	e2846008 	add	r6, r4, #8
102e5b44:	e3500000 	cmp	r0, #0
102e5b48:	c0855000 	addgt	r5, r5, r0
102e5b4c:	cafffff6 	bgt	102e5b2c <CallBack_SerialPort_Hdlr+0x2c>
102e5b50:	18bd8ff8 	popne	{r3, r4, r5, r6, r7, r8, r9, sl, fp, pc}
102e5b54:	e3550000 	cmp	r5, #0
102e5b58:	08bd8ff8 	popeq	{r3, r4, r5, r6, r7, r8, r9, sl, fp, pc}
102e5b5c:	e5845808 	str	r5, [r4, #2056]	; 0x808
102e5b60:	e0845005 	add	r5, r4, r5
102e5b64:	e5c50008 	strb	r0, [r5, #8]
102e5b68:	e3a01001 	mov	r1, #1
102e5b6c:	e3a00002 	mov	r0, #2
102e5b70:	e59f32c0 	ldr	r3, [pc, #704]	; 102e5e38 <CallBack_SerialPort_Hdlr+0x338>
102e5b74:	e584680c 	str	r6, [r4, #2060]	; 0x80c
102e5b78:	e12fff33 	blx	r3
102e5b7c:	e2502000 	subs	r2, r0, #0
102e5b80:	159f82a4 	ldrne	r8, [pc, #676]	; 102e5e2c <CallBack_SerialPort_Hdlr+0x32c>
102e5b84:	1a000004 	bne	102e5b9c <CallBack_SerialPort_Hdlr+0x9c>
102e5b88:	e594080c 	ldr	r0, [r4, #2060]	; 0x80c
102e5b8c:	e5941808 	ldr	r1, [r4, #2056]	; 0x808
102e5b90:	e59f32a4 	ldr	r3, [pc, #676]	; 102e5e3c <CallBack_SerialPort_Hdlr+0x33c>
102e5b94:	e12fff33 	blx	r3
102e5b98:	e8bd8ff8 	pop	{r3, r4, r5, r6, r7, r8, r9, sl, fp, pc}
102e5b9c:	e594680c 	ldr	r6, [r4, #2060]	; 0x80c
102e5ba0:	e59f2298 	ldr	r2, [pc, #664]	; 102e5e40 <CallBack_SerialPort_Hdlr+0x340>
102e5ba4:	e3a01000 	mov	r1, #0
102e5ba8:	e5940810 	ldr	r0, [r4, #2064]	; 0x810
102e5bac:	e5949808 	ldr	r9, [r4, #2056]	; 0x808
102e5bb0:	e12fff38 	blx	r8
102e5bb4:	e59f3288 	ldr	r3, [pc, #648]	; 102e5e44 <CallBack_SerialPort_Hdlr+0x344>
102e5bb8:	e59f1288 	ldr	r1, [pc, #648]	; 102e5e48 <CallBack_SerialPort_Hdlr+0x348>
102e5bbc:	e1a00006 	mov	r0, r6
102e5bc0:	e12fff33 	blx	r3
102e5bc4:	e59fa280 	ldr	sl, [pc, #640]	; 102e5e4c <CallBack_SerialPort_Hdlr+0x34c>
102e5bc8:	e59f1278 	ldr	r1, [pc, #632]	; 102e5e48 <CallBack_SerialPort_Hdlr+0x348>
102e5bcc:	e3500000 	cmp	r0, #0
102e5bd0:	1286b002 	addne	fp, r6, #2
102e5bd4:	01a0b006 	moveq	fp, r6
102e5bd8:	e1a0000b 	mov	r0, fp
102e5bdc:	e12fff3a 	blx	sl
102e5be0:	e59f1268 	ldr	r1, [pc, #616]	; 102e5e50 <CallBack_SerialPort_Hdlr+0x350>
102e5be4:	e1a07000 	mov	r7, r0
102e5be8:	e1a0000b 	mov	r0, fp
102e5bec:	e12fff3a 	blx	sl
102e5bf0:	e59f125c 	ldr	r1, [pc, #604]	; 102e5e54 <CallBack_SerialPort_Hdlr+0x354>
102e5bf4:	e1a05000 	mov	r5, r0
102e5bf8:	e1a0000b 	mov	r0, fp
102e5bfc:	e12fff3a 	blx	sl
102e5c00:	e2971000 	adds	r1, r7, #0
102e5c04:	13a01001 	movne	r1, #1
102e5c08:	e2952000 	adds	r2, r5, #0
102e5c0c:	13a02001 	movne	r2, #1
102e5c10:	e1923001 	orrs	r3, r2, r1
102e5c14:	1a000002 	bne	102e5c24 <CallBack_SerialPort_Hdlr+0x124>
102e5c18:	e3500000 	cmp	r0, #0
102e5c1c:	1a000018 	bne	102e5c84 <CallBack_SerialPort_Hdlr+0x184>
102e5c20:	ea000027 	b	102e5cc4 <CallBack_SerialPort_Hdlr+0x1c4>
102e5c24:	e3510000 	cmp	r1, #0
102e5c28:	0a00000c 	beq	102e5c60 <CallBack_SerialPort_Hdlr+0x160>
102e5c2c:	e1550007 	cmp	r5, r7
102e5c30:	83a02000 	movhi	r2, #0
102e5c34:	92022001 	andls	r2, r2, #1
102e5c38:	e3520000 	cmp	r2, #0
102e5c3c:	01a05007 	moveq	r5, r7
102e5c40:	e1500005 	cmp	r0, r5
102e5c44:	83a02000 	movhi	r2, #0
102e5c48:	93a02001 	movls	r2, #1
102e5c4c:	e3500000 	cmp	r0, #0
102e5c50:	03a02000 	moveq	r2, #0
102e5c54:	e3520000 	cmp	r2, #0
102e5c58:	01a00005 	moveq	r0, r5
102e5c5c:	ea000008 	b	102e5c84 <CallBack_SerialPort_Hdlr+0x184>
102e5c60:	e3520000 	cmp	r2, #0
102e5c64:	0a000006 	beq	102e5c84 <CallBack_SerialPort_Hdlr+0x184>
102e5c68:	e1500005 	cmp	r0, r5
102e5c6c:	83a02000 	movhi	r2, #0
102e5c70:	93a02001 	movls	r2, #1
102e5c74:	e3500000 	cmp	r0, #0
102e5c78:	03a02000 	moveq	r2, #0
102e5c7c:	e3520000 	cmp	r2, #0
102e5c80:	0a000004 	beq	102e5c98 <CallBack_SerialPort_Hdlr+0x198>
102e5c84:	e1500007 	cmp	r0, r7
102e5c88:	00663000 	rsbeq	r3, r6, r0
102e5c8c:	02835002 	addeq	r5, r3, #2
102e5c90:	0a000002 	beq	102e5ca0 <CallBack_SerialPort_Hdlr+0x1a0>
102e5c94:	e1a05000 	mov	r5, r0
102e5c98:	e0665005 	rsb	r5, r6, r5
102e5c9c:	e2855001 	add	r5, r5, #1
102e5ca0:	e59f31b0 	ldr	r3, [pc, #432]	; 102e5e58 <CallBack_SerialPort_Hdlr+0x358>
102e5ca4:	e5940810 	ldr	r0, [r4, #2064]	; 0x810
102e5ca8:	e1a01006 	mov	r1, r6
102e5cac:	e1a02005 	mov	r2, r5
102e5cb0:	e12fff33 	blx	r3
102e5cb4:	e5943810 	ldr	r3, [r4, #2064]	; 0x810
102e5cb8:	e5843814 	str	r3, [r4, #2068]	; 0x814
102e5cbc:	e5845818 	str	r5, [r4, #2072]	; 0x818
102e5cc0:	ea000007 	b	102e5ce4 <CallBack_SerialPort_Hdlr+0x1e4>
102e5cc4:	e59f318c 	ldr	r3, [pc, #396]	; 102e5e58 <CallBack_SerialPort_Hdlr+0x358>
102e5cc8:	e5940810 	ldr	r0, [r4, #2064]	; 0x810
102e5ccc:	e1a01006 	mov	r1, r6
102e5cd0:	e1a02009 	mov	r2, r9
102e5cd4:	e12fff33 	blx	r3
102e5cd8:	e5943810 	ldr	r3, [r4, #2064]	; 0x810
102e5cdc:	e5843814 	str	r3, [r4, #2068]	; 0x814
102e5ce0:	e5849818 	str	r9, [r4, #2072]	; 0x818
102e5ce4:	e5d4381c 	ldrb	r3, [r4, #2076]	; 0x81c
102e5ce8:	e3530001 	cmp	r3, #1
102e5cec:	1a000029 	bne	102e5d98 <CallBack_SerialPort_Hdlr+0x298>
102e5cf0:	e59f0164 	ldr	r0, [pc, #356]	; 102e5e5c <CallBack_SerialPort_Hdlr+0x35c>
102e5cf4:	e5941814 	ldr	r1, [r4, #2068]	; 0x814
102e5cf8:	e5942818 	ldr	r2, [r4, #2072]	; 0x818
102e5cfc:	e59f315c 	ldr	r3, [pc, #348]	; 102e5e60 <CallBack_SerialPort_Hdlr+0x360>
102e5d00:	e12fff33 	blx	r3
102e5d04:	e3500000 	cmp	r0, #0
102e5d08:	0a00003c 	beq	102e5e00 <CallBack_SerialPort_Hdlr+0x300>
102e5d0c:	e5943c20 	ldr	r3, [r4, #3104]	; 0xc20
102e5d10:	e5940814 	ldr	r0, [r4, #2068]	; 0x814
102e5d14:	e3530000 	cmp	r3, #0
102e5d18:	059f3144 	ldreq	r3, [pc, #324]	; 102e5e64 <CallBack_SerialPort_Hdlr+0x364>
102e5d1c:	e5941818 	ldr	r1, [r4, #2072]	; 0x818
102e5d20:	e5942c24 	ldr	r2, [r4, #3108]	; 0xc24
102e5d24:	e12fff33 	blx	r3
102e5d28:	e5840c28 	str	r0, [r4, #3112]	; 0xc28
102e5d2c:	e5943c28 	ldr	r3, [r4, #3112]	; 0xc28
102e5d30:	e3530001 	cmp	r3, #1
102e5d34:	0a000012 	beq	102e5d84 <CallBack_SerialPort_Hdlr+0x284>
102e5d38:	e5942c20 	ldr	r2, [r4, #3104]	; 0xc20
102e5d3c:	e3520000 	cmp	r2, #0
102e5d40:	13a02000 	movne	r2, #0
102e5d44:	15842c20 	strne	r2, [r4, #3104]	; 0xc20
102e5d48:	e3530000 	cmp	r3, #0
102e5d4c:	0a000001 	beq	102e5d58 <CallBack_SerialPort_Hdlr+0x258>
102e5d50:	e3730001 	cmn	r3, #1
102e5d54:	1a000001 	bne	102e5d60 <CallBack_SerialPort_Hdlr+0x260>
102e5d58:	e59f20d4 	ldr	r2, [pc, #212]	; 102e5e34 <CallBack_SerialPort_Hdlr+0x334>
102e5d5c:	e5823000 	str	r3, [r2]
102e5d60:	e59f3100 	ldr	r3, [pc, #256]	; 102e5e68 <CallBack_SerialPort_Hdlr+0x368>
102e5d64:	e12fff33 	blx	r3
102e5d68:	e59f30fc 	ldr	r3, [pc, #252]	; 102e5e6c <CallBack_SerialPort_Hdlr+0x36c>
102e5d6c:	e5940004 	ldr	r0, [r4, #4]
102e5d70:	e3a01001 	mov	r1, #1
102e5d74:	e12fff33 	blx	r3
102e5d78:	e3a03000 	mov	r3, #0
102e5d7c:	e5c4381c 	strb	r3, [r4, #2076]	; 0x81c
102e5d80:	ea00001e 	b	102e5e00 <CallBack_SerialPort_Hdlr+0x300>
102e5d84:	e5940814 	ldr	r0, [r4, #2068]	; 0x814
102e5d88:	e59f30e0 	ldr	r3, [pc, #224]	; 102e5e70 <CallBack_SerialPort_Hdlr+0x370>
102e5d8c:	e12fff33 	blx	r3
102e5d90:	e3500000 	cmp	r0, #0
102e5d94:	0a000019 	beq	102e5e00 <CallBack_SerialPort_Hdlr+0x300>
102e5d98:	e59f30d4 	ldr	r3, [pc, #212]	; 102e5e74 <CallBack_SerialPort_Hdlr+0x374>
102e5d9c:	e5d33000 	ldrb	r3, [r3]
102e5da0:	e3530000 	cmp	r3, #0
102e5da4:	0a000015 	beq	102e5e00 <CallBack_SerialPort_Hdlr+0x300>
102e5da8:	e5945818 	ldr	r5, [r4, #2072]	; 0x818
102e5dac:	e59f30c4 	ldr	r3, [pc, #196]	; 102e5e78 <CallBack_SerialPort_Hdlr+0x378>
102e5db0:	e2857001 	add	r7, r5, #1
102e5db4:	e1a00007 	mov	r0, r7
102e5db8:	e12fff33 	blx	r3
102e5dbc:	e2506000 	subs	r6, r0, #0
102e5dc0:	0a00000e 	beq	102e5e00 <CallBack_SerialPort_Hdlr+0x300>
102e5dc4:	e3a01000 	mov	r1, #0
102e5dc8:	e1a02007 	mov	r2, r7
102e5dcc:	e12fff38 	blx	r8
102e5dd0:	e5941814 	ldr	r1, [r4, #2068]	; 0x814
102e5dd4:	e1a02005 	mov	r2, r5
102e5dd8:	e59f3078 	ldr	r3, [pc, #120]	; 102e5e58 <CallBack_SerialPort_Hdlr+0x358>
102e5ddc:	e1a00006 	mov	r0, r6
102e5de0:	e12fff33 	blx	r3
102e5de4:	e59f3090 	ldr	r3, [pc, #144]	; 102e5e7c <CallBack_SerialPort_Hdlr+0x37c>
102e5de8:	e3a01002 	mov	r1, #2
102e5dec:	e5930000 	ldr	r0, [r3]
102e5df0:	e1a02005 	mov	r2, r5
102e5df4:	e1a03006 	mov	r3, r6
102e5df8:	e59fc080 	ldr	ip, [pc, #128]	; 102e5e80 <CallBack_SerialPort_Hdlr+0x380>
102e5dfc:	e12fff3c 	blx	ip
102e5e00:	e5943818 	ldr	r3, [r4, #2072]	; 0x818
102e5e04:	e594280c 	ldr	r2, [r4, #2060]	; 0x80c
102e5e08:	e0822003 	add	r2, r2, r3
102e5e0c:	e584280c 	str	r2, [r4, #2060]	; 0x80c
102e5e10:	e5942808 	ldr	r2, [r4, #2056]	; 0x808
102e5e14:	e0633002 	rsb	r3, r3, r2
102e5e18:	e3530000 	cmp	r3, #0
102e5e1c:	e5843808 	str	r3, [r4, #2056]	; 0x808
102e5e20:	1affff5d 	bne	102e5b9c <CallBack_SerialPort_Hdlr+0x9c>
102e5e24:	e8bd8ff8 	pop	{r3, r4, r5, r6, r7, r8, r9, sl, fp, pc}
102e5e28:	f03d58c0 	.word	0xf03d58c0
102e5e2c:	102e6774 	.word	0x102e6774
102e5e30:	102e7064 	.word	0x102e7064
102e5e34:	f03d58b8 	.word	0xf03d58b8
102e5e38:	102e70d4 	.word	0x102e70d4
102e5e3c:	102de778 	.word	0x102de778
102e5e40:	00000801 	.word	0x00000801
102e5e44:	102e1cc4 	.word	0x102e1cc4
102e5e48:	102e9639 	.word	0x102e9639
102e5e4c:	102e6884 	.word	0x102e6884
102e5e50:	102e965b 	.word	0x102e965b
102e5e54:	102e963a 	.word	0x102e963a
102e5e58:	102e67fc 	.word	0x102e67fc
102e5e5c:	f03d60d5 	.word	0xf03d60d5
102e5e60:	102e6704 	.word	0x102e6704
102e5e64:	102db64c 	.word	0x102db64c
102e5e68:	102e5a80 	.word	0x102e5a80
102e5e6c:	102e6d6c 	.word	0x102e6d6c
102e5e70:	102e1c44 	.word	0x102e1c44
102e5e74:	f03d58b4 	.word	0xf03d58b4
102e5e78:	102e5730 	.word	0x102e5730
102e5e7c:	f03d3928 	.word	0xf03d3928
102e5e80:	102e6b3c 	.word	0x102e6b3c

Disassembly of section .text.proc_reserved1:

102e5e84 <proc_reserved1>:
102e5e84:	e92d40f0 	push	{r4, r5, r6, r7, lr}
102e5e88:	e59f118c 	ldr	r1, [pc, #396]	; 102e601c <proc_reserved1+0x198>
102e5e8c:	e24dd014 	sub	sp, sp, #20
102e5e90:	e1a04000 	mov	r4, r0
102e5e94:	e3a02000 	mov	r2, #0
102e5e98:	e59f3180 	ldr	r3, [pc, #384]	; 102e6020 <proc_reserved1+0x19c>
102e5e9c:	e3a00002 	mov	r0, #2
102e5ea0:	e12fff33 	blx	r3
102e5ea4:	e59f5178 	ldr	r5, [pc, #376]	; 102e6024 <proc_reserved1+0x1a0>
102e5ea8:	e3a01000 	mov	r1, #0
102e5eac:	e3a02001 	mov	r2, #1
102e5eb0:	e59f3170 	ldr	r3, [pc, #368]	; 102e6028 <proc_reserved1+0x1a4>
102e5eb4:	e3a00002 	mov	r0, #2
102e5eb8:	e12fff33 	blx	r3
102e5ebc:	e59f3168 	ldr	r3, [pc, #360]	; 102e602c <proc_reserved1+0x1a8>
102e5ec0:	e59f0168 	ldr	r0, [pc, #360]	; 102e6030 <proc_reserved1+0x1ac>
102e5ec4:	e585400c 	str	r4, [r5, #12]
102e5ec8:	e12fff33 	blx	r3
102e5ecc:	e59f4160 	ldr	r4, [pc, #352]	; 102e6034 <proc_reserved1+0x1b0>
102e5ed0:	e59f3160 	ldr	r3, [pc, #352]	; 102e6038 <proc_reserved1+0x1b4>
102e5ed4:	e1a06004 	mov	r6, r4
102e5ed8:	e5840c30 	str	r0, [r4, #3120]	; 0xc30
102e5edc:	e59f0158 	ldr	r0, [pc, #344]	; 102e603c <proc_reserved1+0x1b8>
102e5ee0:	e12fff33 	blx	r3
102e5ee4:	e59f1154 	ldr	r1, [pc, #340]	; 102e6040 <proc_reserved1+0x1bc>
102e5ee8:	e3a02000 	mov	r2, #0
102e5eec:	e59f3150 	ldr	r3, [pc, #336]	; 102e6044 <proc_reserved1+0x1c0>
102e5ef0:	e5840004 	str	r0, [r4, #4]
102e5ef4:	e5950000 	ldr	r0, [r5]
102e5ef8:	e12fff33 	blx	r3
102e5efc:	e3a00000 	mov	r0, #0
102e5f00:	e59f1140 	ldr	r1, [pc, #320]	; 102e6048 <proc_reserved1+0x1c4>
102e5f04:	e1a02000 	mov	r2, r0
102e5f08:	e1a03000 	mov	r3, r0
102e5f0c:	e59fc138 	ldr	ip, [pc, #312]	; 102e604c <proc_reserved1+0x1c8>
102e5f10:	e12fff3c 	blx	ip
102e5f14:	e59f0134 	ldr	r0, [pc, #308]	; 102e6050 <proc_reserved1+0x1cc>
102e5f18:	e59f3134 	ldr	r3, [pc, #308]	; 102e6054 <proc_reserved1+0x1d0>
102e5f1c:	e12fff33 	blx	r3
102e5f20:	e5840810 	str	r0, [r4, #2064]	; 0x810
102e5f24:	e1a0000d 	mov	r0, sp
102e5f28:	e59f3128 	ldr	r3, [pc, #296]	; 102e6058 <proc_reserved1+0x1d4>
102e5f2c:	e12fff33 	blx	r3
102e5f30:	e59d5000 	ldr	r5, [sp]
102e5f34:	e3550001 	cmp	r5, #1
102e5f38:	1afffff9 	bne	102e5f24 <proc_reserved1+0xa0>
102e5f3c:	e59f0118 	ldr	r0, [pc, #280]	; 102e605c <proc_reserved1+0x1d8>
102e5f40:	e59f1118 	ldr	r1, [pc, #280]	; 102e6060 <proc_reserved1+0x1dc>
102e5f44:	e3a02004 	mov	r2, #4
102e5f48:	e59f3114 	ldr	r3, [pc, #276]	; 102e6064 <proc_reserved1+0x1e0>
102e5f4c:	e12fff33 	blx	r3
102e5f50:	e2507000 	subs	r7, r0, #0
102e5f54:	1a00000e 	bne	102e5f94 <proc_reserved1+0x110>
102e5f58:	e3a00002 	mov	r0, #2
102e5f5c:	e59f3104 	ldr	r3, [pc, #260]	; 102e6068 <proc_reserved1+0x1e4>
102e5f60:	e12fff33 	blx	r3
102e5f64:	e5847000 	str	r7, [r4]
102e5f68:	e3500000 	cmp	r0, #0
102e5f6c:	aa000003 	bge	102e5f80 <proc_reserved1+0xfc>
102e5f70:	e59f30f4 	ldr	r3, [pc, #244]	; 102e606c <proc_reserved1+0x1e8>
102e5f74:	e12fff33 	blx	r3
102e5f78:	e3e03000 	mvn	r3, #0
102e5f7c:	e5843000 	str	r3, [r4]
102e5f80:	e5960004 	ldr	r0, [r6, #4]
102e5f84:	e3a01001 	mov	r1, #1
102e5f88:	e59f30e0 	ldr	r3, [pc, #224]	; 102e6070 <proc_reserved1+0x1ec>
102e5f8c:	e12fff33 	blx	r3
102e5f90:	eaffffe3 	b	102e5f24 <proc_reserved1+0xa0>
102e5f94:	e59f30d8 	ldr	r3, [pc, #216]	; 102e6074 <proc_reserved1+0x1f0>
102e5f98:	e59f00bc 	ldr	r0, [pc, #188]	; 102e605c <proc_reserved1+0x1d8>
102e5f9c:	e12fff33 	blx	r3
102e5fa0:	e59f10b4 	ldr	r1, [pc, #180]	; 102e605c <proc_reserved1+0x1d8>
102e5fa4:	e59f30cc 	ldr	r3, [pc, #204]	; 102e6078 <proc_reserved1+0x1f4>
102e5fa8:	e1a02000 	mov	r2, r0
102e5fac:	e3a00002 	mov	r0, #2
102e5fb0:	e12fff33 	blx	r3
102e5fb4:	e3500000 	cmp	r0, #0
102e5fb8:	aa000007 	bge	102e5fdc <proc_reserved1+0x158>
102e5fbc:	e59f30a8 	ldr	r3, [pc, #168]	; 102e606c <proc_reserved1+0x1e8>
102e5fc0:	e12fff33 	blx	r3
102e5fc4:	e3e03000 	mvn	r3, #0
102e5fc8:	e5843000 	str	r3, [r4]
102e5fcc:	e5940004 	ldr	r0, [r4, #4]
102e5fd0:	e1a01005 	mov	r1, r5
102e5fd4:	e59f3094 	ldr	r3, [pc, #148]	; 102e6070 <proc_reserved1+0x1ec>
102e5fd8:	e12fff33 	blx	r3
102e5fdc:	e59f2040 	ldr	r2, [pc, #64]	; 102e6024 <proc_reserved1+0x1a0>
102e5fe0:	e5923004 	ldr	r3, [r2, #4]
102e5fe4:	e3530000 	cmp	r3, #0
102e5fe8:	059f308c 	ldreq	r3, [pc, #140]	; 102e607c <proc_reserved1+0x1f8>
102e5fec:	05823004 	streq	r3, [r2, #4]
102e5ff0:	e5d22009 	ldrb	r2, [r2, #9]
102e5ff4:	e59f3028 	ldr	r3, [pc, #40]	; 102e6024 <proc_reserved1+0x1a0>
102e5ff8:	e3520001 	cmp	r2, #1
102e5ffc:	0affffc8 	beq	102e5f24 <proc_reserved1+0xa0>
102e6000:	e3a02001 	mov	r2, #1
102e6004:	e5c32009 	strb	r2, [r3, #9]
102e6008:	e8930003 	ldm	r3, {r0, r1}
102e600c:	e5d32008 	ldrb	r2, [r3, #8]
102e6010:	e59f3068 	ldr	r3, [pc, #104]	; 102e6080 <proc_reserved1+0x1fc>
102e6014:	e12fff33 	blx	r3
102e6018:	eaffffc1 	b	102e5f24 <proc_reserved1+0xa0>
102e601c:	102e5b00 	.word	0x102e5b00
102e6020:	102e6f14 	.word	0x102e6f14
102e6024:	f03d392c 	.word	0xf03d392c
102e6028:	102e6f84 	.word	0x102e6f84
102e602c:	102e6bb4 	.word	0x102e6bb4
102e6030:	102e9641 	.word	0x102e9641
102e6034:	f03d58b8 	.word	0xf03d58b8
102e6038:	102e6cb0 	.word	0x102e6cb0
102e603c:	102e964b 	.word	0x102e964b
102e6040:	102e5ab4 	.word	0x102e5ab4
102e6044:	102e6dd4 	.word	0x102e6dd4
102e6048:	00001001 	.word	0x00001001
102e604c:	102e6b3c 	.word	0x102e6b3c
102e6050:	00000801 	.word	0x00000801
102e6054:	102e5730 	.word	0x102e5730
102e6058:	102e6adc 	.word	0x102e6adc
102e605c:	f03d60d5 	.word	0xf03d60d5
102e6060:	102e9658 	.word	0x102e9658
102e6064:	102e6704 	.word	0x102e6704
102e6068:	102e713c 	.word	0x102e713c
102e606c:	102e5a80 	.word	0x102e5a80
102e6070:	102e6d6c 	.word	0x102e6d6c
102e6074:	102e6624 	.word	0x102e6624
102e6078:	102e6ff4 	.word	0x102e6ff4
102e607c:	0002bf20 	.word	0x0002bf20
102e6080:	102e6e44 	.word	0x102e6e44

Disassembly of section .text.Ql_RIL_Initialize:

102e6084 <Ql_RIL_Initialize>:
102e6084:	e92d4ff8 	push	{r3, r4, r5, r6, r7, r8, r9, sl, fp, lr}
102e6088:	e59f30a4 	ldr	r3, [pc, #164]	; 102e6134 <Ql_RIL_Initialize+0xb0>
102e608c:	e12fff33 	blx	r3
102e6090:	e59f40a0 	ldr	r4, [pc, #160]	; 102e6138 <Ql_RIL_Initialize+0xb4>
102e6094:	e3a06000 	mov	r6, #0
102e6098:	e59f709c 	ldr	r7, [pc, #156]	; 102e613c <Ql_RIL_Initialize+0xb8>
102e609c:	e59fb09c 	ldr	fp, [pc, #156]	; 102e6140 <Ql_RIL_Initialize+0xbc>
102e60a0:	e59f809c 	ldr	r8, [pc, #156]	; 102e6144 <Ql_RIL_Initialize+0xc0>
102e60a4:	e1a09000 	mov	r9, r0
102e60a8:	ea00001b 	b	102e611c <Ql_RIL_Initialize+0x98>
102e60ac:	e3a01000 	mov	r1, #0
102e60b0:	e3a02b01 	mov	r2, #1024	; 0x400
102e60b4:	e59f008c 	ldr	r0, [pc, #140]	; 102e6148 <Ql_RIL_Initialize+0xc4>
102e60b8:	e5c7581c 	strb	r5, [r7, #2076]	; 0x81c
102e60bc:	e12fff3b 	blx	fp
102e60c0:	e594a004 	ldr	sl, [r4, #4]
102e60c4:	e2866001 	add	r6, r6, #1
102e60c8:	e1a0000a 	mov	r0, sl
102e60cc:	e12fff38 	blx	r8
102e60d0:	e1a0100a 	mov	r1, sl
102e60d4:	e59f3070 	ldr	r3, [pc, #112]	; 102e614c <Ql_RIL_Initialize+0xc8>
102e60d8:	e1a02000 	mov	r2, r0
102e60dc:	e59f0064 	ldr	r0, [pc, #100]	; 102e6148 <Ql_RIL_Initialize+0xc4>
102e60e0:	e12fff33 	blx	r3
102e60e4:	e5b4a004 	ldr	sl, [r4, #4]!
102e60e8:	e1a0000a 	mov	r0, sl
102e60ec:	e12fff38 	blx	r8
102e60f0:	e1a0100a 	mov	r1, sl
102e60f4:	e59f3054 	ldr	r3, [pc, #84]	; 102e6150 <Ql_RIL_Initialize+0xcc>
102e60f8:	e1a02000 	mov	r2, r0
102e60fc:	e3a00002 	mov	r0, #2
102e6100:	e12fff33 	blx	r3
102e6104:	e59f3048 	ldr	r3, [pc, #72]	; 102e6154 <Ql_RIL_Initialize+0xd0>
102e6108:	e5970004 	ldr	r0, [r7, #4]
102e610c:	e1a01005 	mov	r1, r5
102e6110:	e12fff33 	blx	r3
102e6114:	e3a03000 	mov	r3, #0
102e6118:	e5c7381c 	strb	r3, [r7, #2076]	; 0x81c
102e611c:	e1560009 	cmp	r6, r9
102e6120:	e3a05001 	mov	r5, #1
102e6124:	baffffe0 	blt	102e60ac <Ql_RIL_Initialize+0x28>
102e6128:	e59f300c 	ldr	r3, [pc, #12]	; 102e613c <Ql_RIL_Initialize+0xb8>
102e612c:	e5c35c2c 	strb	r5, [r3, #3116]	; 0xc2c
102e6130:	e8bd8ff8 	pop	{r3, r4, r5, r6, r7, r8, r9, sl, fp, pc}
102e6134:	102df254 	.word	0x102df254
102e6138:	f03d2008 	.word	0xf03d2008
102e613c:	f03d58b8 	.word	0xf03d58b8
102e6140:	102e6774 	.word	0x102e6774
102e6144:	102e6624 	.word	0x102e6624
102e6148:	f03d60d5 	.word	0xf03d60d5
102e614c:	102e67fc 	.word	0x102e67fc
102e6150:	102e6ff4 	.word	0x102e6ff4
102e6154:	102e6d04 	.word	0x102e6d04

Disassembly of section .text.Ql_RIL_SendATCmd:

102e6158 <Ql_RIL_SendATCmd>:
102e6158:	e92d4ff8 	push	{r3, r4, r5, r6, r7, r8, r9, sl, fp, lr}
102e615c:	e1a04000 	mov	r4, r0
102e6160:	e1a08003 	mov	r8, r3
102e6164:	e3e00000 	mvn	r0, #0
102e6168:	e59f31f4 	ldr	r3, [pc, #500]	; 102e6364 <Ql_RIL_SendATCmd+0x20c>
102e616c:	e1a07002 	mov	r7, r2
102e6170:	e12fff33 	blx	r3
102e6174:	e59f31ec 	ldr	r3, [pc, #492]	; 102e6368 <Ql_RIL_SendATCmd+0x210>
102e6178:	e5d33c2c 	ldrb	r3, [r3, #3116]	; 0xc2c
102e617c:	e3530000 	cmp	r3, #0
102e6180:	0a000059 	beq	102e62ec <Ql_RIL_SendATCmd+0x194>
102e6184:	e3540000 	cmp	r4, #0
102e6188:	13a03000 	movne	r3, #0
102e618c:	159f21d8 	ldrne	r2, [pc, #472]	; 102e636c <Ql_RIL_SendATCmd+0x214>
102e6190:	1a000001 	bne	102e619c <Ql_RIL_SendATCmd+0x44>
102e6194:	e3e06003 	mvn	r6, #3
102e6198:	ea00006f 	b	102e635c <Ql_RIL_SendATCmd+0x204>
102e619c:	e5d40000 	ldrb	r0, [r4]
102e61a0:	e7d31002 	ldrb	r1, [r3, r2]
102e61a4:	e1500001 	cmp	r0, r1
102e61a8:	0afffff9 	beq	102e6194 <Ql_RIL_SendATCmd+0x3c>
102e61ac:	e2833001 	add	r3, r3, #1
102e61b0:	e3530004 	cmp	r3, #4
102e61b4:	1afffff8 	bne	102e619c <Ql_RIL_SendATCmd+0x44>
102e61b8:	ea00004f 	b	102e62fc <Ql_RIL_SendATCmd+0x1a4>
102e61bc:	e1a00004 	mov	r0, r4
102e61c0:	e59f11a8 	ldr	r1, [pc, #424]	; 102e6370 <Ql_RIL_SendATCmd+0x218>
102e61c4:	e12fff35 	blx	r5
102e61c8:	e59f61a4 	ldr	r6, [pc, #420]	; 102e6374 <Ql_RIL_SendATCmd+0x21c>
102e61cc:	e3a05000 	mov	r5, #0
102e61d0:	e59fa1a0 	ldr	sl, [pc, #416]	; 102e6378 <Ql_RIL_SendATCmd+0x220>
102e61d4:	e59f91a0 	ldr	r9, [pc, #416]	; 102e637c <Ql_RIL_SendATCmd+0x224>
102e61d8:	e3500000 	cmp	r0, #0
102e61dc:	13a03000 	movne	r3, #0
102e61e0:	15c03000 	strbne	r3, [r0]
102e61e4:	ea000005 	b	102e6200 <Ql_RIL_SendATCmd+0xa8>
102e61e8:	e1a00004 	mov	r0, r4
102e61ec:	e79a1105 	ldr	r1, [sl, r5, lsl #2]
102e61f0:	e12fff39 	blx	r9
102e61f4:	e3500000 	cmp	r0, #0
102e61f8:	1a00003d 	bne	102e62f4 <Ql_RIL_SendATCmd+0x19c>
102e61fc:	e2855001 	add	r5, r5, #1
102e6200:	e12fff36 	blx	r6
102e6204:	e1550000 	cmp	r5, r0
102e6208:	3afffff6 	bcc	102e61e8 <Ql_RIL_SendATCmd+0x90>
102e620c:	ea000042 	b	102e631c <Ql_RIL_SendATCmd+0x1c4>
102e6210:	e1a00004 	mov	r0, r4
102e6214:	e59f1164 	ldr	r1, [pc, #356]	; 102e6380 <Ql_RIL_SendATCmd+0x228>
102e6218:	e59f3164 	ldr	r3, [pc, #356]	; 102e6384 <Ql_RIL_SendATCmd+0x22c>
102e621c:	e12fff33 	blx	r3
102e6220:	e59f9160 	ldr	r9, [pc, #352]	; 102e6388 <Ql_RIL_SendATCmd+0x230>
102e6224:	e59fb160 	ldr	fp, [pc, #352]	; 102e638c <Ql_RIL_SendATCmd+0x234>
102e6228:	e3500000 	cmp	r0, #0
102e622c:	0a00000b 	beq	102e6260 <Ql_RIL_SendATCmd+0x108>
102e6230:	e0646000 	rsb	r6, r4, r0
102e6234:	e1a01004 	mov	r1, r4
102e6238:	e1a02006 	mov	r2, r6
102e623c:	e1a00005 	mov	r0, r5
102e6240:	e12fff39 	blx	r9
102e6244:	e1a00005 	mov	r0, r5
102e6248:	e12fff3b 	blx	fp
102e624c:	e0850006 	add	r0, r5, r6
102e6250:	e0841006 	add	r1, r4, r6
102e6254:	e066200a 	rsb	r2, r6, sl
102e6258:	e12fff39 	blx	r9
102e625c:	ea000005 	b	102e6278 <Ql_RIL_SendATCmd+0x120>
102e6260:	e1a00005 	mov	r0, r5
102e6264:	e1a01004 	mov	r1, r4
102e6268:	e1a0200a 	mov	r2, sl
102e626c:	e12fff39 	blx	r9
102e6270:	e1a00005 	mov	r0, r5
102e6274:	e12fff3b 	blx	fp
102e6278:	e59f40e8 	ldr	r4, [pc, #232]	; 102e6368 <Ql_RIL_SendATCmd+0x210>
102e627c:	e3a0300d 	mov	r3, #13
102e6280:	e084a00a 	add	sl, r4, sl
102e6284:	e5ca381d 	strb	r3, [sl, #2077]	; 0x81d
102e6288:	e59f3100 	ldr	r3, [pc, #256]	; 102e6390 <Ql_RIL_SendATCmd+0x238>
102e628c:	e3a05000 	mov	r5, #0
102e6290:	e3a06001 	mov	r6, #1
102e6294:	e59d2028 	ldr	r2, [sp, #40]	; 0x28
102e6298:	e5832004 	str	r2, [r3, #4]
102e629c:	e1a01006 	mov	r1, r6
102e62a0:	e1a02005 	mov	r2, r5
102e62a4:	e59fc0e8 	ldr	ip, [pc, #232]	; 102e6394 <Ql_RIL_SendATCmd+0x23c>
102e62a8:	e593000c 	ldr	r0, [r3, #12]
102e62ac:	e1a03005 	mov	r3, r5
102e62b0:	e5c4681c 	strb	r6, [r4, #2076]	; 0x81c
102e62b4:	e5ca581e 	strb	r5, [sl, #2078]	; 0x81e
102e62b8:	e5848c24 	str	r8, [r4, #3108]	; 0xc24
102e62bc:	e5847c20 	str	r7, [r4, #3104]	; 0xc20
102e62c0:	e12fff3c 	blx	ip
102e62c4:	e1a01006 	mov	r1, r6
102e62c8:	e59f30c8 	ldr	r3, [pc, #200]	; 102e6398 <Ql_RIL_SendATCmd+0x240>
102e62cc:	e5940004 	ldr	r0, [r4, #4]
102e62d0:	e12fff33 	blx	r3
102e62d4:	e5940c30 	ldr	r0, [r4, #3120]	; 0xc30
102e62d8:	e59f30bc 	ldr	r3, [pc, #188]	; 102e639c <Ql_RIL_SendATCmd+0x244>
102e62dc:	e5946000 	ldr	r6, [r4]
102e62e0:	e12fff33 	blx	r3
102e62e4:	e5c4581c 	strb	r5, [r4, #2076]	; 0x81c
102e62e8:	ea00001b 	b	102e635c <Ql_RIL_SendATCmd+0x204>
102e62ec:	e3e06004 	mvn	r6, #4
102e62f0:	ea000019 	b	102e635c <Ql_RIL_SendATCmd+0x204>
102e62f4:	e59f60a4 	ldr	r6, [pc, #164]	; 102e63a0 <Ql_RIL_SendATCmd+0x248>
102e62f8:	ea000017 	b	102e635c <Ql_RIL_SendATCmd+0x204>
102e62fc:	e1a00004 	mov	r0, r4
102e6300:	e59f109c 	ldr	r1, [pc, #156]	; 102e63a4 <Ql_RIL_SendATCmd+0x24c>
102e6304:	e59f5078 	ldr	r5, [pc, #120]	; 102e6384 <Ql_RIL_SendATCmd+0x22c>
102e6308:	e12fff35 	blx	r5
102e630c:	e3500000 	cmp	r0, #0
102e6310:	13a03000 	movne	r3, #0
102e6314:	15c03000 	strbne	r3, [r0]
102e6318:	eaffffa7 	b	102e61bc <Ql_RIL_SendATCmd+0x64>
102e631c:	e59f3044 	ldr	r3, [pc, #68]	; 102e6368 <Ql_RIL_SendATCmd+0x210>
102e6320:	e59f5080 	ldr	r5, [pc, #128]	; 102e63a8 <Ql_RIL_SendATCmd+0x250>
102e6324:	e5930c30 	ldr	r0, [r3, #3120]	; 0xc30
102e6328:	e59f307c 	ldr	r3, [pc, #124]	; 102e63ac <Ql_RIL_SendATCmd+0x254>
102e632c:	e12fff33 	blx	r3
102e6330:	e3a01000 	mov	r1, #0
102e6334:	e3a02b01 	mov	r2, #1024	; 0x400
102e6338:	e59f3070 	ldr	r3, [pc, #112]	; 102e63b0 <Ql_RIL_SendATCmd+0x258>
102e633c:	e1a00005 	mov	r0, r5
102e6340:	e12fff33 	blx	r3
102e6344:	e1a00004 	mov	r0, r4
102e6348:	e59f3064 	ldr	r3, [pc, #100]	; 102e63b4 <Ql_RIL_SendATCmd+0x25c>
102e634c:	e12fff33 	blx	r3
102e6350:	e250a000 	subs	sl, r0, #0
102e6354:	1affffad 	bne	102e6210 <Ql_RIL_SendATCmd+0xb8>
102e6358:	eaffff8d 	b	102e6194 <Ql_RIL_SendATCmd+0x3c>
102e635c:	e1a00006 	mov	r0, r6
102e6360:	e8bd8ff8 	pop	{r3, r4, r5, r6, r7, r8, r9, sl, fp, pc}
102e6364:	102db638 	.word	0x102db638
102e6368:	f03d58b8 	.word	0xf03d58b8
102e636c:	102e7ef6 	.word	0x102e7ef6
102e6370:	102e963a 	.word	0x102e963a
102e6374:	102df25c 	.word	0x102df25c
102e6378:	f03d2004 	.word	0xf03d2004
102e637c:	102e1cc4 	.word	0x102e1cc4
102e6380:	102e965d 	.word	0x102e965d
102e6384:	102e6884 	.word	0x102e6884
102e6388:	102e67fc 	.word	0x102e67fc
102e638c:	102e1d14 	.word	0x102e1d14
102e6390:	f03d392c 	.word	0xf03d392c
102e6394:	102e6b3c 	.word	0x102e6b3c
102e6398:	102e6d04 	.word	0x102e6d04
102e639c:	102e6c5c 	.word	0x102e6c5c
102e63a0:	ffffd8f0 	.word	0xffffd8f0
102e63a4:	102e965b 	.word	0x102e965b
102e63a8:	f03d60d5 	.word	0xf03d60d5
102e63ac:	102e6c08 	.word	0x102e6c08
102e63b0:	102e6774 	.word	0x102e6774
102e63b4:	102e6624 	.word	0x102e6624

Disassembly of section .text.Ql_RIL_WriteDataToCore:

102e63b8 <Ql_RIL_WriteDataToCore>:
102e63b8:	e92d4008 	push	{r3, lr}
102e63bc:	e1a03000 	mov	r3, r0
102e63c0:	e1a02001 	mov	r2, r1
102e63c4:	e3a00002 	mov	r0, #2
102e63c8:	e1a01003 	mov	r1, r3
102e63cc:	e59f3004 	ldr	r3, [pc, #4]	; 102e63d8 <Ql_RIL_WriteDataToCore+0x20>
102e63d0:	e12fff33 	blx	r3
102e63d4:	e8bd8008 	pop	{r3, pc}
102e63d8:	102e6ff4 	.word	0x102e6ff4

Disassembly of section .text.Ql_atof:

102e63dc <Ql_atof>:
102e63dc:	e92d4037 	push	{r0, r1, r2, r4, r5, lr}
102e63e0:	e59f4074 	ldr	r4, [pc, #116]	; 102e645c <Ql_atof+0x80>
102e63e4:	e1a05000 	mov	r5, r0
102e63e8:	e5943008 	ldr	r3, [r4, #8]
102e63ec:	e3530000 	cmp	r3, #0
102e63f0:	1a000013 	bne	102e6444 <Ql_atof+0x68>
102e63f4:	e59f1064 	ldr	r1, [pc, #100]	; 102e6460 <Ql_atof+0x84>
102e63f8:	e3a02008 	mov	r2, #8
102e63fc:	e59f3060 	ldr	r3, [pc, #96]	; 102e6464 <Ql_atof+0x88>
102e6400:	e1a0000d 	mov	r0, sp
102e6404:	e12fff33 	blx	r3
102e6408:	e59f3058 	ldr	r3, [pc, #88]	; 102e6468 <Ql_atof+0x8c>
102e640c:	e1a0000d 	mov	r0, sp
102e6410:	e5933000 	ldr	r3, [r3]
102e6414:	e12fff33 	blx	r3
102e6418:	e3500000 	cmp	r0, #0
102e641c:	15840008 	strne	r0, [r4, #8]
102e6420:	1a000007 	bne	102e6444 <Ql_atof+0x68>
102e6424:	e59f3040 	ldr	r3, [pc, #64]	; 102e646c <Ql_atof+0x90>
102e6428:	e1a0100d 	mov	r1, sp
102e642c:	e5933000 	ldr	r3, [r3]
102e6430:	e59f0038 	ldr	r0, [pc, #56]	; 102e6470 <Ql_atof+0x94>
102e6434:	e12fff33 	blx	r3
102e6438:	e3a00000 	mov	r0, #0
102e643c:	e3a01000 	mov	r1, #0
102e6440:	ea000003 	b	102e6454 <Ql_atof+0x78>
102e6444:	e59f3010 	ldr	r3, [pc, #16]	; 102e645c <Ql_atof+0x80>
102e6448:	e1a00005 	mov	r0, r5
102e644c:	e5933008 	ldr	r3, [r3, #8]
102e6450:	e12fff33 	blx	r3
102e6454:	e28dd00c 	add	sp, sp, #12
102e6458:	e8bd8030 	pop	{r4, r5, pc}
102e645c:	f03d64ec 	.word	0xf03d64ec
102e6460:	102e9672 	.word	0x102e9672
102e6464:	102e5219 	.word	0x102e5219
102e6468:	f03d5884 	.word	0xf03d5884
102e646c:	f03d6724 	.word	0xf03d6724
102e6470:	f03d3910 	.word	0xf03d3910

Disassembly of section .text.Ql_strcpy:

102e6474 <Ql_strcpy>:
102e6474:	e92d40f0 	push	{r4, r5, r6, r7, lr}
102e6478:	e59f407c 	ldr	r4, [pc, #124]	; 102e64fc <Ql_strcpy+0x88>
102e647c:	e24dd014 	sub	sp, sp, #20
102e6480:	e594300c 	ldr	r3, [r4, #12]
102e6484:	e1a07000 	mov	r7, r0
102e6488:	e3530000 	cmp	r3, #0
102e648c:	e1a06001 	mov	r6, r1
102e6490:	1a000012 	bne	102e64e0 <Ql_strcpy+0x6c>
102e6494:	e59f1064 	ldr	r1, [pc, #100]	; 102e6500 <Ql_strcpy+0x8c>
102e6498:	e3a0200a 	mov	r2, #10
102e649c:	e59f3060 	ldr	r3, [pc, #96]	; 102e6504 <Ql_strcpy+0x90>
102e64a0:	e28d0004 	add	r0, sp, #4
102e64a4:	e12fff33 	blx	r3
102e64a8:	e59f3058 	ldr	r3, [pc, #88]	; 102e6508 <Ql_strcpy+0x94>
102e64ac:	e28d0004 	add	r0, sp, #4
102e64b0:	e5933000 	ldr	r3, [r3]
102e64b4:	e12fff33 	blx	r3
102e64b8:	e2505000 	subs	r5, r0, #0
102e64bc:	1584500c 	strne	r5, [r4, #12]
102e64c0:	1a000006 	bne	102e64e0 <Ql_strcpy+0x6c>
102e64c4:	e59f3040 	ldr	r3, [pc, #64]	; 102e650c <Ql_strcpy+0x98>
102e64c8:	e59f0040 	ldr	r0, [pc, #64]	; 102e6510 <Ql_strcpy+0x9c>
102e64cc:	e5933000 	ldr	r3, [r3]
102e64d0:	e28d1004 	add	r1, sp, #4
102e64d4:	e12fff33 	blx	r3
102e64d8:	e1a00005 	mov	r0, r5
102e64dc:	ea000004 	b	102e64f4 <Ql_strcpy+0x80>
102e64e0:	e59f3014 	ldr	r3, [pc, #20]	; 102e64fc <Ql_strcpy+0x88>
102e64e4:	e1a00007 	mov	r0, r7
102e64e8:	e593300c 	ldr	r3, [r3, #12]
102e64ec:	e1a01006 	mov	r1, r6
102e64f0:	e12fff33 	blx	r3
102e64f4:	e28dd014 	add	sp, sp, #20
102e64f8:	e8bd80f0 	pop	{r4, r5, r6, r7, pc}
102e64fc:	f03d64ec 	.word	0xf03d64ec
102e6500:	102e967a 	.word	0x102e967a
102e6504:	102e5219 	.word	0x102e5219
102e6508:	f03d5884 	.word	0xf03d5884
102e650c:	f03d6724 	.word	0xf03d6724
102e6510:	f03d3910 	.word	0xf03d3910

Disassembly of section .text.Ql_strncpy:

102e6514 <Ql_strncpy>:
102e6514:	e92d41f0 	push	{r4, r5, r6, r7, r8, lr}
102e6518:	e59f5068 	ldr	r5, [pc, #104]	; 102e6588 <Ql_strncpy+0x74>
102e651c:	e1a06000 	mov	r6, r0
102e6520:	e5953010 	ldr	r3, [r5, #16]
102e6524:	e1a08001 	mov	r8, r1
102e6528:	e3530000 	cmp	r3, #0
102e652c:	e1a07002 	mov	r7, r2
102e6530:	1a00000d 	bne	102e656c <Ql_strncpy+0x58>
102e6534:	e59f3050 	ldr	r3, [pc, #80]	; 102e658c <Ql_strncpy+0x78>
102e6538:	e59f0050 	ldr	r0, [pc, #80]	; 102e6590 <Ql_strncpy+0x7c>
102e653c:	e5933000 	ldr	r3, [r3]
102e6540:	e12fff33 	blx	r3
102e6544:	e2504000 	subs	r4, r0, #0
102e6548:	15854010 	strne	r4, [r5, #16]
102e654c:	1a000006 	bne	102e656c <Ql_strncpy+0x58>
102e6550:	e59f303c 	ldr	r3, [pc, #60]	; 102e6594 <Ql_strncpy+0x80>
102e6554:	e59f1034 	ldr	r1, [pc, #52]	; 102e6590 <Ql_strncpy+0x7c>
102e6558:	e5933000 	ldr	r3, [r3]
102e655c:	e59f0034 	ldr	r0, [pc, #52]	; 102e6598 <Ql_strncpy+0x84>
102e6560:	e12fff33 	blx	r3
102e6564:	e1a00004 	mov	r0, r4
102e6568:	e8bd81f0 	pop	{r4, r5, r6, r7, r8, pc}
102e656c:	e59f3014 	ldr	r3, [pc, #20]	; 102e6588 <Ql_strncpy+0x74>
102e6570:	e1a00006 	mov	r0, r6
102e6574:	e5933010 	ldr	r3, [r3, #16]
102e6578:	e1a01008 	mov	r1, r8
102e657c:	e1a02007 	mov	r2, r7
102e6580:	e12fff33 	blx	r3
102e6584:	e8bd81f0 	pop	{r4, r5, r6, r7, r8, pc}
102e6588:	f03d64ec 	.word	0xf03d64ec
102e658c:	f03d5884 	.word	0xf03d5884
102e6590:	102e9684 	.word	0x102e9684
102e6594:	f03d6724 	.word	0xf03d6724
102e6598:	f03d3910 	.word	0xf03d3910

Disassembly of section .text.Ql_strncat:

102e659c <Ql_strncat>:
102e659c:	e92d41f0 	push	{r4, r5, r6, r7, r8, lr}
102e65a0:	e59f5068 	ldr	r5, [pc, #104]	; 102e6610 <Ql_strncat+0x74>
102e65a4:	e1a06000 	mov	r6, r0
102e65a8:	e5953018 	ldr	r3, [r5, #24]
102e65ac:	e1a08001 	mov	r8, r1
102e65b0:	e3530000 	cmp	r3, #0
102e65b4:	e1a07002 	mov	r7, r2
102e65b8:	1a00000d 	bne	102e65f4 <Ql_strncat+0x58>
102e65bc:	e59f3050 	ldr	r3, [pc, #80]	; 102e6614 <Ql_strncat+0x78>
102e65c0:	e59f0050 	ldr	r0, [pc, #80]	; 102e6618 <Ql_strncat+0x7c>
102e65c4:	e5933000 	ldr	r3, [r3]
102e65c8:	e12fff33 	blx	r3
102e65cc:	e2504000 	subs	r4, r0, #0
102e65d0:	15854018 	strne	r4, [r5, #24]
102e65d4:	1a000006 	bne	102e65f4 <Ql_strncat+0x58>
102e65d8:	e59f303c 	ldr	r3, [pc, #60]	; 102e661c <Ql_strncat+0x80>
102e65dc:	e59f1034 	ldr	r1, [pc, #52]	; 102e6618 <Ql_strncat+0x7c>
102e65e0:	e5933000 	ldr	r3, [r3]
102e65e4:	e59f0034 	ldr	r0, [pc, #52]	; 102e6620 <Ql_strncat+0x84>
102e65e8:	e12fff33 	blx	r3
102e65ec:	e1a00004 	mov	r0, r4
102e65f0:	e8bd81f0 	pop	{r4, r5, r6, r7, r8, pc}
102e65f4:	e59f3014 	ldr	r3, [pc, #20]	; 102e6610 <Ql_strncat+0x74>
102e65f8:	e1a00006 	mov	r0, r6
102e65fc:	e5933018 	ldr	r3, [r3, #24]
102e6600:	e1a01008 	mov	r1, r8
102e6604:	e1a02007 	mov	r2, r7
102e6608:	e12fff33 	blx	r3
102e660c:	e8bd81f0 	pop	{r4, r5, r6, r7, r8, pc}
102e6610:	f03d64ec 	.word	0xf03d64ec
102e6614:	f03d5884 	.word	0xf03d5884
102e6618:	102e9699 	.word	0x102e9699
102e661c:	f03d6724 	.word	0xf03d6724
102e6620:	f03d3910 	.word	0xf03d3910

Disassembly of section .text.Ql_strlen:

102e6624 <Ql_strlen>:
102e6624:	e92d4070 	push	{r4, r5, r6, lr}
102e6628:	e59f5058 	ldr	r5, [pc, #88]	; 102e6688 <Ql_strlen+0x64>
102e662c:	e1a06000 	mov	r6, r0
102e6630:	e595301c 	ldr	r3, [r5, #28]
102e6634:	e3530000 	cmp	r3, #0
102e6638:	1a00000d 	bne	102e6674 <Ql_strlen+0x50>
102e663c:	e59f3048 	ldr	r3, [pc, #72]	; 102e668c <Ql_strlen+0x68>
102e6640:	e59f0048 	ldr	r0, [pc, #72]	; 102e6690 <Ql_strlen+0x6c>
102e6644:	e5933000 	ldr	r3, [r3]
102e6648:	e12fff33 	blx	r3
102e664c:	e2504000 	subs	r4, r0, #0
102e6650:	1585401c 	strne	r4, [r5, #28]
102e6654:	1a000006 	bne	102e6674 <Ql_strlen+0x50>
102e6658:	e59f3034 	ldr	r3, [pc, #52]	; 102e6694 <Ql_strlen+0x70>
102e665c:	e59f102c 	ldr	r1, [pc, #44]	; 102e6690 <Ql_strlen+0x6c>
102e6660:	e5933000 	ldr	r3, [r3]
102e6664:	e59f002c 	ldr	r0, [pc, #44]	; 102e6698 <Ql_strlen+0x74>
102e6668:	e12fff33 	blx	r3
102e666c:	e1a00004 	mov	r0, r4
102e6670:	e8bd8070 	pop	{r4, r5, r6, pc}
102e6674:	e59f300c 	ldr	r3, [pc, #12]	; 102e6688 <Ql_strlen+0x64>
102e6678:	e1a00006 	mov	r0, r6
102e667c:	e593301c 	ldr	r3, [r3, #28]
102e6680:	e12fff33 	blx	r3
102e6684:	e8bd8070 	pop	{r4, r5, r6, pc}
102e6688:	f03d64ec 	.word	0xf03d64ec
102e668c:	f03d5884 	.word	0xf03d5884
102e6690:	102e96a4 	.word	0x102e96a4
102e6694:	f03d6724 	.word	0xf03d6724
102e6698:	f03d3910 	.word	0xf03d3910

Disassembly of section .text.Ql_strcmp:

102e669c <Ql_strcmp>:
102e669c:	e92d4070 	push	{r4, r5, r6, lr}
102e66a0:	e59f404c 	ldr	r4, [pc, #76]	; 102e66f4 <Ql_strcmp+0x58>
102e66a4:	e1a05000 	mov	r5, r0
102e66a8:	e5943020 	ldr	r3, [r4, #32]
102e66ac:	e1a06001 	mov	r6, r1
102e66b0:	e3530000 	cmp	r3, #0
102e66b4:	1a000006 	bne	102e66d4 <Ql_strcmp+0x38>
102e66b8:	e59f3038 	ldr	r3, [pc, #56]	; 102e66f8 <Ql_strcmp+0x5c>
102e66bc:	e59f0038 	ldr	r0, [pc, #56]	; 102e66fc <Ql_strcmp+0x60>
102e66c0:	e5933000 	ldr	r3, [r3]
102e66c4:	e12fff33 	blx	r3
102e66c8:	e3500000 	cmp	r0, #0
102e66cc:	0a000006 	beq	102e66ec <Ql_strcmp+0x50>
102e66d0:	e5840020 	str	r0, [r4, #32]
102e66d4:	e59f3018 	ldr	r3, [pc, #24]	; 102e66f4 <Ql_strcmp+0x58>
102e66d8:	e1a00005 	mov	r0, r5
102e66dc:	e5933020 	ldr	r3, [r3, #32]
102e66e0:	e1a01006 	mov	r1, r6
102e66e4:	e12fff33 	blx	r3
102e66e8:	e8bd8070 	pop	{r4, r5, r6, pc}
102e66ec:	e59f000c 	ldr	r0, [pc, #12]	; 102e6700 <Ql_strcmp+0x64>
102e66f0:	e8bd8070 	pop	{r4, r5, r6, pc}
102e66f4:	f03d64ec 	.word	0xf03d64ec
102e66f8:	f03d5884 	.word	0xf03d5884
102e66fc:	102e96ae 	.word	0x102e96ae
102e6700:	ffffd8f0 	.word	0xffffd8f0

Disassembly of section .text.Ql_strncmp:

102e6704 <Ql_strncmp>:
102e6704:	e92d40f8 	push	{r3, r4, r5, r6, r7, lr}
102e6708:	e59f4054 	ldr	r4, [pc, #84]	; 102e6764 <Ql_strncmp+0x60>
102e670c:	e1a05000 	mov	r5, r0
102e6710:	e5943024 	ldr	r3, [r4, #36]	; 0x24
102e6714:	e1a07001 	mov	r7, r1
102e6718:	e3530000 	cmp	r3, #0
102e671c:	e1a06002 	mov	r6, r2
102e6720:	1a000006 	bne	102e6740 <Ql_strncmp+0x3c>
102e6724:	e59f303c 	ldr	r3, [pc, #60]	; 102e6768 <Ql_strncmp+0x64>
102e6728:	e59f003c 	ldr	r0, [pc, #60]	; 102e676c <Ql_strncmp+0x68>
102e672c:	e5933000 	ldr	r3, [r3]
102e6730:	e12fff33 	blx	r3
102e6734:	e3500000 	cmp	r0, #0
102e6738:	0a000007 	beq	102e675c <Ql_strncmp+0x58>
102e673c:	e5840024 	str	r0, [r4, #36]	; 0x24
102e6740:	e59f301c 	ldr	r3, [pc, #28]	; 102e6764 <Ql_strncmp+0x60>
102e6744:	e1a00005 	mov	r0, r5
102e6748:	e5933024 	ldr	r3, [r3, #36]	; 0x24
102e674c:	e1a01007 	mov	r1, r7
102e6750:	e1a02006 	mov	r2, r6
102e6754:	e12fff33 	blx	r3
102e6758:	e8bd80f8 	pop	{r3, r4, r5, r6, r7, pc}
102e675c:	e59f000c 	ldr	r0, [pc, #12]	; 102e6770 <Ql_strncmp+0x6c>
102e6760:	e8bd80f8 	pop	{r3, r4, r5, r6, r7, pc}
102e6764:	f03d64ec 	.word	0xf03d64ec
102e6768:	f03d5884 	.word	0xf03d5884
102e676c:	102e96b8 	.word	0x102e96b8
102e6770:	ffffd8f0 	.word	0xffffd8f0

Disassembly of section .text.Ql_memset:

102e6774 <Ql_memset>:
102e6774:	e92d41f0 	push	{r4, r5, r6, r7, r8, lr}
102e6778:	e59f5068 	ldr	r5, [pc, #104]	; 102e67e8 <Ql_memset+0x74>
102e677c:	e1a06000 	mov	r6, r0
102e6780:	e5953028 	ldr	r3, [r5, #40]	; 0x28
102e6784:	e1a08001 	mov	r8, r1
102e6788:	e3530000 	cmp	r3, #0
102e678c:	e1a07002 	mov	r7, r2
102e6790:	1a00000d 	bne	102e67cc <Ql_memset+0x58>
102e6794:	e59f3050 	ldr	r3, [pc, #80]	; 102e67ec <Ql_memset+0x78>
102e6798:	e59f0050 	ldr	r0, [pc, #80]	; 102e67f0 <Ql_memset+0x7c>
102e679c:	e5933000 	ldr	r3, [r3]
102e67a0:	e12fff33 	blx	r3
102e67a4:	e2504000 	subs	r4, r0, #0
102e67a8:	15854028 	strne	r4, [r5, #40]	; 0x28
102e67ac:	1a000006 	bne	102e67cc <Ql_memset+0x58>
102e67b0:	e59f303c 	ldr	r3, [pc, #60]	; 102e67f4 <Ql_memset+0x80>
102e67b4:	e59f1034 	ldr	r1, [pc, #52]	; 102e67f0 <Ql_memset+0x7c>
102e67b8:	e5933000 	ldr	r3, [r3]
102e67bc:	e59f0034 	ldr	r0, [pc, #52]	; 102e67f8 <Ql_memset+0x84>
102e67c0:	e12fff33 	blx	r3
102e67c4:	e1a00004 	mov	r0, r4
102e67c8:	e8bd81f0 	pop	{r4, r5, r6, r7, r8, pc}
102e67cc:	e59f3014 	ldr	r3, [pc, #20]	; 102e67e8 <Ql_memset+0x74>
102e67d0:	e1a00006 	mov	r0, r6
102e67d4:	e5933028 	ldr	r3, [r3, #40]	; 0x28
102e67d8:	e1a01008 	mov	r1, r8
102e67dc:	e1a02007 	mov	r2, r7
102e67e0:	e12fff33 	blx	r3
102e67e4:	e8bd81f0 	pop	{r4, r5, r6, r7, r8, pc}
102e67e8:	f03d64ec 	.word	0xf03d64ec
102e67ec:	f03d5884 	.word	0xf03d5884
102e67f0:	102e96c3 	.word	0x102e96c3
102e67f4:	f03d6724 	.word	0xf03d6724
102e67f8:	f03d3910 	.word	0xf03d3910

Disassembly of section .text.Ql_memcpy:

102e67fc <Ql_memcpy>:
102e67fc:	e92d41f0 	push	{r4, r5, r6, r7, r8, lr}
102e6800:	e59f5068 	ldr	r5, [pc, #104]	; 102e6870 <Ql_memcpy+0x74>
102e6804:	e1a06000 	mov	r6, r0
102e6808:	e595302c 	ldr	r3, [r5, #44]	; 0x2c
102e680c:	e1a08001 	mov	r8, r1
102e6810:	e3530000 	cmp	r3, #0
102e6814:	e1a07002 	mov	r7, r2
102e6818:	1a00000d 	bne	102e6854 <Ql_memcpy+0x58>
102e681c:	e59f3050 	ldr	r3, [pc, #80]	; 102e6874 <Ql_memcpy+0x78>
102e6820:	e59f0050 	ldr	r0, [pc, #80]	; 102e6878 <Ql_memcpy+0x7c>
102e6824:	e5933000 	ldr	r3, [r3]
102e6828:	e12fff33 	blx	r3
102e682c:	e2504000 	subs	r4, r0, #0
102e6830:	1585402c 	strne	r4, [r5, #44]	; 0x2c
102e6834:	1a000006 	bne	102e6854 <Ql_memcpy+0x58>
102e6838:	e59f303c 	ldr	r3, [pc, #60]	; 102e687c <Ql_memcpy+0x80>
102e683c:	e59f1034 	ldr	r1, [pc, #52]	; 102e6878 <Ql_memcpy+0x7c>
102e6840:	e5933000 	ldr	r3, [r3]
102e6844:	e59f0034 	ldr	r0, [pc, #52]	; 102e6880 <Ql_memcpy+0x84>
102e6848:	e12fff33 	blx	r3
102e684c:	e1a00004 	mov	r0, r4
102e6850:	e8bd81f0 	pop	{r4, r5, r6, r7, r8, pc}
102e6854:	e59f3014 	ldr	r3, [pc, #20]	; 102e6870 <Ql_memcpy+0x74>
102e6858:	e1a00006 	mov	r0, r6
102e685c:	e593302c 	ldr	r3, [r3, #44]	; 0x2c
102e6860:	e1a01008 	mov	r1, r8
102e6864:	e1a02007 	mov	r2, r7
102e6868:	e12fff33 	blx	r3
102e686c:	e8bd81f0 	pop	{r4, r5, r6, r7, r8, pc}
102e6870:	f03d64ec 	.word	0xf03d64ec
102e6874:	f03d5884 	.word	0xf03d5884
102e6878:	102e96cd 	.word	0x102e96cd
102e687c:	f03d6724 	.word	0xf03d6724
102e6880:	f03d3910 	.word	0xf03d3910

Disassembly of section .text.Ql_strstr:

102e6884 <Ql_strstr>:
102e6884:	e92d40f8 	push	{r3, r4, r5, r6, r7, lr}
102e6888:	e59f5060 	ldr	r5, [pc, #96]	; 102e68f0 <Ql_strstr+0x6c>
102e688c:	e1a06000 	mov	r6, r0
102e6890:	e5953038 	ldr	r3, [r5, #56]	; 0x38
102e6894:	e1a07001 	mov	r7, r1
102e6898:	e3530000 	cmp	r3, #0
102e689c:	1a00000d 	bne	102e68d8 <Ql_strstr+0x54>
102e68a0:	e59f304c 	ldr	r3, [pc, #76]	; 102e68f4 <Ql_strstr+0x70>
102e68a4:	e59f004c 	ldr	r0, [pc, #76]	; 102e68f8 <Ql_strstr+0x74>
102e68a8:	e5933000 	ldr	r3, [r3]
102e68ac:	e12fff33 	blx	r3
102e68b0:	e2504000 	subs	r4, r0, #0
102e68b4:	15854038 	strne	r4, [r5, #56]	; 0x38
102e68b8:	1a000006 	bne	102e68d8 <Ql_strstr+0x54>
102e68bc:	e59f3038 	ldr	r3, [pc, #56]	; 102e68fc <Ql_strstr+0x78>
102e68c0:	e59f1030 	ldr	r1, [pc, #48]	; 102e68f8 <Ql_strstr+0x74>
102e68c4:	e5933000 	ldr	r3, [r3]
102e68c8:	e59f0030 	ldr	r0, [pc, #48]	; 102e6900 <Ql_strstr+0x7c>
102e68cc:	e12fff33 	blx	r3
102e68d0:	e1a00004 	mov	r0, r4
102e68d4:	e8bd80f8 	pop	{r3, r4, r5, r6, r7, pc}
102e68d8:	e59f3010 	ldr	r3, [pc, #16]	; 102e68f0 <Ql_strstr+0x6c>
102e68dc:	e1a00006 	mov	r0, r6
102e68e0:	e5933038 	ldr	r3, [r3, #56]	; 0x38
102e68e4:	e1a01007 	mov	r1, r7
102e68e8:	e12fff33 	blx	r3
102e68ec:	e8bd80f8 	pop	{r3, r4, r5, r6, r7, pc}
102e68f0:	f03d64ec 	.word	0xf03d64ec
102e68f4:	f03d5884 	.word	0xf03d5884
102e68f8:	102e96ec 	.word	0x102e96ec
102e68fc:	f03d6724 	.word	0xf03d6724
102e6900:	f03d3910 	.word	0xf03d3910

Disassembly of section .text.Ql_toupper:

102e6904 <Ql_toupper>:
102e6904:	e2400020 	sub	r0, r0, #32
102e6908:	e12fff1e 	bx	lr

Disassembly of section .text.Ql_atoi:

102e690c <Ql_atoi>:
102e690c:	e92d4010 	push	{r4, lr}
102e6910:	e1a02000 	mov	r2, r0
102e6914:	e5d23000 	ldrb	r3, [r2]
102e6918:	e2800001 	add	r0, r0, #1
102e691c:	e3530020 	cmp	r3, #32
102e6920:	13530009 	cmpne	r3, #9
102e6924:	0afffff9 	beq	102e6910 <Ql_atoi+0x4>
102e6928:	e353000a 	cmp	r3, #10
102e692c:	1353000c 	cmpne	r3, #12
102e6930:	0afffff6 	beq	102e6910 <Ql_atoi+0x4>
102e6934:	e3530008 	cmp	r3, #8
102e6938:	1353000d 	cmpne	r3, #13
102e693c:	0afffff3 	beq	102e6910 <Ql_atoi+0x4>
102e6940:	e253102d 	subs	r1, r3, #45	; 0x2d
102e6944:	e271c000 	rsbs	ip, r1, #0
102e6948:	e0bcc001 	adcs	ip, ip, r1
102e694c:	e353002d 	cmp	r3, #45	; 0x2d
102e6950:	1353002b 	cmpne	r3, #43	; 0x2b
102e6954:	11a02000 	movne	r2, r0
102e6958:	05d23001 	ldrbeq	r3, [r2, #1]
102e695c:	e3a00000 	mov	r0, #0
102e6960:	02822002 	addeq	r2, r2, #2
102e6964:	e3a0100a 	mov	r1, #10
102e6968:	e2433030 	sub	r3, r3, #48	; 0x30
102e696c:	e20340ff 	and	r4, r3, #255	; 0xff
102e6970:	e3540009 	cmp	r4, #9
102e6974:	9a000002 	bls	102e6984 <Ql_atoi+0x78>
102e6978:	e35c0000 	cmp	ip, #0
102e697c:	12600000 	rsbne	r0, r0, #0
102e6980:	e8bd8010 	pop	{r4, pc}
102e6984:	e0203091 	mla	r0, r1, r0, r3
102e6988:	e4d23001 	ldrb	r3, [r2], #1
102e698c:	eafffff5 	b	102e6968 <Ql_atoi+0x5c>

Disassembly of section .text.Ql_Sleep:

102e6990 <Ql_Sleep>:
102e6990:	e92d4038 	push	{r3, r4, r5, lr}
102e6994:	e59f4054 	ldr	r4, [pc, #84]	; 102e69f0 <Ql_Sleep+0x60>
102e6998:	e1a05000 	mov	r5, r0
102e699c:	e5943000 	ldr	r3, [r4]
102e69a0:	e3530000 	cmp	r3, #0
102e69a4:	1a00000c 	bne	102e69dc <Ql_Sleep+0x4c>
102e69a8:	e59f3044 	ldr	r3, [pc, #68]	; 102e69f4 <Ql_Sleep+0x64>
102e69ac:	e59f0044 	ldr	r0, [pc, #68]	; 102e69f8 <Ql_Sleep+0x68>
102e69b0:	e5933000 	ldr	r3, [r3]
102e69b4:	e12fff33 	blx	r3
102e69b8:	e3500000 	cmp	r0, #0
102e69bc:	15840000 	strne	r0, [r4]
102e69c0:	1a000005 	bne	102e69dc <Ql_Sleep+0x4c>
102e69c4:	e59f3030 	ldr	r3, [pc, #48]	; 102e69fc <Ql_Sleep+0x6c>
102e69c8:	e59f1028 	ldr	r1, [pc, #40]	; 102e69f8 <Ql_Sleep+0x68>
102e69cc:	e5933000 	ldr	r3, [r3]
102e69d0:	e59f0028 	ldr	r0, [pc, #40]	; 102e6a00 <Ql_Sleep+0x70>
102e69d4:	e12fff33 	blx	r3
102e69d8:	e8bd8038 	pop	{r3, r4, r5, pc}
102e69dc:	e59f300c 	ldr	r3, [pc, #12]	; 102e69f0 <Ql_Sleep+0x60>
102e69e0:	e1a00005 	mov	r0, r5
102e69e4:	e5933000 	ldr	r3, [r3]
102e69e8:	e12fff33 	blx	r3
102e69ec:	e8bd8038 	pop	{r3, r4, r5, pc}
102e69f0:	f03d652c 	.word	0xf03d652c
102e69f4:	f03d5884 	.word	0xf03d5884
102e69f8:	102e9700 	.word	0x102e9700
102e69fc:	f03d6724 	.word	0xf03d6724
102e6a00:	f03d3910 	.word	0xf03d3910

Disassembly of section .text.Ql_Reset:

102e6a04 <Ql_Reset>:
102e6a04:	e92d4038 	push	{r3, r4, r5, lr}
102e6a08:	e59f4054 	ldr	r4, [pc, #84]	; 102e6a64 <Ql_Reset+0x60>
102e6a0c:	e1a05000 	mov	r5, r0
102e6a10:	e5943004 	ldr	r3, [r4, #4]
102e6a14:	e3530000 	cmp	r3, #0
102e6a18:	1a00000c 	bne	102e6a50 <Ql_Reset+0x4c>
102e6a1c:	e59f3044 	ldr	r3, [pc, #68]	; 102e6a68 <Ql_Reset+0x64>
102e6a20:	e59f0044 	ldr	r0, [pc, #68]	; 102e6a6c <Ql_Reset+0x68>
102e6a24:	e5933000 	ldr	r3, [r3]
102e6a28:	e12fff33 	blx	r3
102e6a2c:	e3500000 	cmp	r0, #0
102e6a30:	15840004 	strne	r0, [r4, #4]
102e6a34:	1a000005 	bne	102e6a50 <Ql_Reset+0x4c>
102e6a38:	e59f3030 	ldr	r3, [pc, #48]	; 102e6a70 <Ql_Reset+0x6c>
102e6a3c:	e59f1028 	ldr	r1, [pc, #40]	; 102e6a6c <Ql_Reset+0x68>
102e6a40:	e5933000 	ldr	r3, [r3]
102e6a44:	e59f0028 	ldr	r0, [pc, #40]	; 102e6a74 <Ql_Reset+0x70>
102e6a48:	e12fff33 	blx	r3
102e6a4c:	e8bd8038 	pop	{r3, r4, r5, pc}
102e6a50:	e59f300c 	ldr	r3, [pc, #12]	; 102e6a64 <Ql_Reset+0x60>
102e6a54:	e1a00005 	mov	r0, r5
102e6a58:	e5933004 	ldr	r3, [r3, #4]
102e6a5c:	e12fff33 	blx	r3
102e6a60:	e8bd8038 	pop	{r3, r4, r5, pc}
102e6a64:	f03d652c 	.word	0xf03d652c
102e6a68:	f03d5884 	.word	0xf03d5884
102e6a6c:	102e9709 	.word	0x102e9709
102e6a70:	f03d6724 	.word	0xf03d6724
102e6a74:	f03d3910 	.word	0xf03d3910

Disassembly of section .text.Ql_GetSDKVer:

102e6a78 <Ql_GetSDKVer>:
102e6a78:	e3500000 	cmp	r0, #0
102e6a7c:	13510000 	cmpne	r1, #0
102e6a80:	e92d4070 	push	{r4, r5, r6, lr}
102e6a84:	e1a06001 	mov	r6, r1
102e6a88:	e1a05000 	mov	r5, r0
102e6a8c:	0a00000d 	beq	102e6ac8 <Ql_GetSDKVer+0x50>
102e6a90:	e59f3038 	ldr	r3, [pc, #56]	; 102e6ad0 <Ql_GetSDKVer+0x58>
102e6a94:	e59f0038 	ldr	r0, [pc, #56]	; 102e6ad4 <Ql_GetSDKVer+0x5c>
102e6a98:	e12fff33 	blx	r3
102e6a9c:	e59f1030 	ldr	r1, [pc, #48]	; 102e6ad4 <Ql_GetSDKVer+0x5c>
102e6aa0:	e59f3030 	ldr	r3, [pc, #48]	; 102e6ad8 <Ql_GetSDKVer+0x60>
102e6aa4:	e1a00800 	lsl	r0, r0, #16
102e6aa8:	e1a04820 	lsr	r4, r0, #16
102e6aac:	e1540006 	cmp	r4, r6
102e6ab0:	21a04006 	movcs	r4, r6
102e6ab4:	e1a00005 	mov	r0, r5
102e6ab8:	e1a02004 	mov	r2, r4
102e6abc:	e12fff33 	blx	r3
102e6ac0:	e1a00004 	mov	r0, r4
102e6ac4:	e8bd8070 	pop	{r4, r5, r6, pc}
102e6ac8:	e3e00032 	mvn	r0, #50	; 0x32
102e6acc:	e8bd8070 	pop	{r4, r5, r6, pc}
102e6ad0:	102e6624 	.word	0x102e6624
102e6ad4:	102e7efa 	.word	0x102e7efa
102e6ad8:	102e6514 	.word	0x102e6514

Disassembly of section .text.Ql_OS_GetMessage:

102e6adc <Ql_OS_GetMessage>:
102e6adc:	e92d4038 	push	{r3, r4, r5, lr}
102e6ae0:	e59f4044 	ldr	r4, [pc, #68]	; 102e6b2c <Ql_OS_GetMessage+0x50>
102e6ae4:	e1a05000 	mov	r5, r0
102e6ae8:	e5943000 	ldr	r3, [r4]
102e6aec:	e3530000 	cmp	r3, #0
102e6af0:	1a000006 	bne	102e6b10 <Ql_OS_GetMessage+0x34>
102e6af4:	e59f3034 	ldr	r3, [pc, #52]	; 102e6b30 <Ql_OS_GetMessage+0x54>
102e6af8:	e59f0034 	ldr	r0, [pc, #52]	; 102e6b34 <Ql_OS_GetMessage+0x58>
102e6afc:	e5933000 	ldr	r3, [r3]
102e6b00:	e12fff33 	blx	r3
102e6b04:	e3500000 	cmp	r0, #0
102e6b08:	0a000005 	beq	102e6b24 <Ql_OS_GetMessage+0x48>
102e6b0c:	e5840000 	str	r0, [r4]
102e6b10:	e59f3014 	ldr	r3, [pc, #20]	; 102e6b2c <Ql_OS_GetMessage+0x50>
102e6b14:	e1a00005 	mov	r0, r5
102e6b18:	e5933000 	ldr	r3, [r3]
102e6b1c:	e12fff33 	blx	r3
102e6b20:	e8bd8038 	pop	{r3, r4, r5, pc}
102e6b24:	e59f000c 	ldr	r0, [pc, #12]	; 102e6b38 <Ql_OS_GetMessage+0x5c>
102e6b28:	e8bd8038 	pop	{r3, r4, r5, pc}
102e6b2c:	f03d6540 	.word	0xf03d6540
102e6b30:	f03d5884 	.word	0xf03d5884
102e6b34:	102e973d 	.word	0x102e973d
102e6b38:	ffffd8f0 	.word	0xffffd8f0

Disassembly of section .text.Ql_OS_SendMessage:

102e6b3c <Ql_OS_SendMessage>:
102e6b3c:	e92d41f0 	push	{r4, r5, r6, r7, r8, lr}
102e6b40:	e59f405c 	ldr	r4, [pc, #92]	; 102e6ba4 <Ql_OS_SendMessage+0x68>
102e6b44:	e1a06003 	mov	r6, r3
102e6b48:	e5943004 	ldr	r3, [r4, #4]
102e6b4c:	e1a05000 	mov	r5, r0
102e6b50:	e3530000 	cmp	r3, #0
102e6b54:	e1a08001 	mov	r8, r1
102e6b58:	e1a07002 	mov	r7, r2
102e6b5c:	1a000006 	bne	102e6b7c <Ql_OS_SendMessage+0x40>
102e6b60:	e59f3040 	ldr	r3, [pc, #64]	; 102e6ba8 <Ql_OS_SendMessage+0x6c>
102e6b64:	e59f0040 	ldr	r0, [pc, #64]	; 102e6bac <Ql_OS_SendMessage+0x70>
102e6b68:	e5933000 	ldr	r3, [r3]
102e6b6c:	e12fff33 	blx	r3
102e6b70:	e3500000 	cmp	r0, #0
102e6b74:	0a000008 	beq	102e6b9c <Ql_OS_SendMessage+0x60>
102e6b78:	e5840004 	str	r0, [r4, #4]
102e6b7c:	e59f3020 	ldr	r3, [pc, #32]	; 102e6ba4 <Ql_OS_SendMessage+0x68>
102e6b80:	e1a00005 	mov	r0, r5
102e6b84:	e593c004 	ldr	ip, [r3, #4]
102e6b88:	e1a01008 	mov	r1, r8
102e6b8c:	e1a02007 	mov	r2, r7
102e6b90:	e1a03006 	mov	r3, r6
102e6b94:	e12fff3c 	blx	ip
102e6b98:	e8bd81f0 	pop	{r4, r5, r6, r7, r8, pc}
102e6b9c:	e59f000c 	ldr	r0, [pc, #12]	; 102e6bb0 <Ql_OS_SendMessage+0x74>
102e6ba0:	e8bd81f0 	pop	{r4, r5, r6, r7, r8, pc}
102e6ba4:	f03d6540 	.word	0xf03d6540
102e6ba8:	f03d5884 	.word	0xf03d5884
102e6bac:	102e974e 	.word	0x102e974e
102e6bb0:	ffffd8f0 	.word	0xffffd8f0

Disassembly of section .text.Ql_OS_CreateMutex:

102e6bb4 <Ql_OS_CreateMutex>:
102e6bb4:	e92d4038 	push	{r3, r4, r5, lr}
102e6bb8:	e59f403c 	ldr	r4, [pc, #60]	; 102e6bfc <Ql_OS_CreateMutex+0x48>
102e6bbc:	e1a05000 	mov	r5, r0
102e6bc0:	e5943008 	ldr	r3, [r4, #8]
102e6bc4:	e3530000 	cmp	r3, #0
102e6bc8:	1a000006 	bne	102e6be8 <Ql_OS_CreateMutex+0x34>
102e6bcc:	e59f302c 	ldr	r3, [pc, #44]	; 102e6c00 <Ql_OS_CreateMutex+0x4c>
102e6bd0:	e59f002c 	ldr	r0, [pc, #44]	; 102e6c04 <Ql_OS_CreateMutex+0x50>
102e6bd4:	e5933000 	ldr	r3, [r3]
102e6bd8:	e12fff33 	blx	r3
102e6bdc:	e3500000 	cmp	r0, #0
102e6be0:	08bd8038 	popeq	{r3, r4, r5, pc}
102e6be4:	e5840008 	str	r0, [r4, #8]
102e6be8:	e59f300c 	ldr	r3, [pc, #12]	; 102e6bfc <Ql_OS_CreateMutex+0x48>
102e6bec:	e1a00005 	mov	r0, r5
102e6bf0:	e5933008 	ldr	r3, [r3, #8]
102e6bf4:	e12fff33 	blx	r3
102e6bf8:	e8bd8038 	pop	{r3, r4, r5, pc}
102e6bfc:	f03d6540 	.word	0xf03d6540
102e6c00:	f03d5884 	.word	0xf03d5884
102e6c04:	102e9760 	.word	0x102e9760

Disassembly of section .text.Ql_OS_TakeMutex:

102e6c08 <Ql_OS_TakeMutex>:
102e6c08:	e92d4038 	push	{r3, r4, r5, lr}
102e6c0c:	e59f403c 	ldr	r4, [pc, #60]	; 102e6c50 <Ql_OS_TakeMutex+0x48>
102e6c10:	e1a05000 	mov	r5, r0
102e6c14:	e594300c 	ldr	r3, [r4, #12]
102e6c18:	e3530000 	cmp	r3, #0
102e6c1c:	1a000006 	bne	102e6c3c <Ql_OS_TakeMutex+0x34>
102e6c20:	e59f302c 	ldr	r3, [pc, #44]	; 102e6c54 <Ql_OS_TakeMutex+0x4c>
102e6c24:	e59f002c 	ldr	r0, [pc, #44]	; 102e6c58 <Ql_OS_TakeMutex+0x50>
102e6c28:	e5933000 	ldr	r3, [r3]
102e6c2c:	e12fff33 	blx	r3
102e6c30:	e3500000 	cmp	r0, #0
102e6c34:	08bd8038 	popeq	{r3, r4, r5, pc}
102e6c38:	e584000c 	str	r0, [r4, #12]
102e6c3c:	e59f300c 	ldr	r3, [pc, #12]	; 102e6c50 <Ql_OS_TakeMutex+0x48>
102e6c40:	e1a00005 	mov	r0, r5
102e6c44:	e593300c 	ldr	r3, [r3, #12]
102e6c48:	e12fff33 	blx	r3
102e6c4c:	e8bd8038 	pop	{r3, r4, r5, pc}
102e6c50:	f03d6540 	.word	0xf03d6540
102e6c54:	f03d5884 	.word	0xf03d5884
102e6c58:	102e9772 	.word	0x102e9772

Disassembly of section .text.Ql_OS_GiveMutex:

102e6c5c <Ql_OS_GiveMutex>:
102e6c5c:	e92d4038 	push	{r3, r4, r5, lr}
102e6c60:	e59f403c 	ldr	r4, [pc, #60]	; 102e6ca4 <Ql_OS_GiveMutex+0x48>
102e6c64:	e1a05000 	mov	r5, r0
102e6c68:	e5943010 	ldr	r3, [r4, #16]
102e6c6c:	e3530000 	cmp	r3, #0
102e6c70:	1a000006 	bne	102e6c90 <Ql_OS_GiveMutex+0x34>
102e6c74:	e59f302c 	ldr	r3, [pc, #44]	; 102e6ca8 <Ql_OS_GiveMutex+0x4c>
102e6c78:	e59f002c 	ldr	r0, [pc, #44]	; 102e6cac <Ql_OS_GiveMutex+0x50>
102e6c7c:	e5933000 	ldr	r3, [r3]
102e6c80:	e12fff33 	blx	r3
102e6c84:	e3500000 	cmp	r0, #0
102e6c88:	08bd8038 	popeq	{r3, r4, r5, pc}
102e6c8c:	e5840010 	str	r0, [r4, #16]
102e6c90:	e59f300c 	ldr	r3, [pc, #12]	; 102e6ca4 <Ql_OS_GiveMutex+0x48>
102e6c94:	e1a00005 	mov	r0, r5
102e6c98:	e5933010 	ldr	r3, [r3, #16]
102e6c9c:	e12fff33 	blx	r3
102e6ca0:	e8bd8038 	pop	{r3, r4, r5, pc}
102e6ca4:	f03d6540 	.word	0xf03d6540
102e6ca8:	f03d5884 	.word	0xf03d5884
102e6cac:	102e9782 	.word	0x102e9782

Disassembly of section .text.Ql_OS_CreateEvent:

102e6cb0 <Ql_OS_CreateEvent>:
102e6cb0:	e92d4038 	push	{r3, r4, r5, lr}
102e6cb4:	e59f403c 	ldr	r4, [pc, #60]	; 102e6cf8 <Ql_OS_CreateEvent+0x48>
102e6cb8:	e1a05000 	mov	r5, r0
102e6cbc:	e5943020 	ldr	r3, [r4, #32]
102e6cc0:	e3530000 	cmp	r3, #0
102e6cc4:	1a000006 	bne	102e6ce4 <Ql_OS_CreateEvent+0x34>
102e6cc8:	e59f302c 	ldr	r3, [pc, #44]	; 102e6cfc <Ql_OS_CreateEvent+0x4c>
102e6ccc:	e59f002c 	ldr	r0, [pc, #44]	; 102e6d00 <Ql_OS_CreateEvent+0x50>
102e6cd0:	e5933000 	ldr	r3, [r3]
102e6cd4:	e12fff33 	blx	r3
102e6cd8:	e3500000 	cmp	r0, #0
102e6cdc:	08bd8038 	popeq	{r3, r4, r5, pc}
102e6ce0:	e5840020 	str	r0, [r4, #32]
102e6ce4:	e59f300c 	ldr	r3, [pc, #12]	; 102e6cf8 <Ql_OS_CreateEvent+0x48>
102e6ce8:	e1a00005 	mov	r0, r5
102e6cec:	e5933020 	ldr	r3, [r3, #32]
102e6cf0:	e12fff33 	blx	r3
102e6cf4:	e8bd8038 	pop	{r3, r4, r5, pc}
102e6cf8:	f03d6540 	.word	0xf03d6540
102e6cfc:	f03d5884 	.word	0xf03d5884
102e6d00:	102e97d0 	.word	0x102e97d0

Disassembly of section .text.Ql_OS_WaitEvent:

102e6d04 <Ql_OS_WaitEvent>:
102e6d04:	e92d4070 	push	{r4, r5, r6, lr}
102e6d08:	e59f404c 	ldr	r4, [pc, #76]	; 102e6d5c <Ql_OS_WaitEvent+0x58>
102e6d0c:	e1a05000 	mov	r5, r0
102e6d10:	e5943024 	ldr	r3, [r4, #36]	; 0x24
102e6d14:	e1a06001 	mov	r6, r1
102e6d18:	e3530000 	cmp	r3, #0
102e6d1c:	1a000006 	bne	102e6d3c <Ql_OS_WaitEvent+0x38>
102e6d20:	e59f3038 	ldr	r3, [pc, #56]	; 102e6d60 <Ql_OS_WaitEvent+0x5c>
102e6d24:	e59f0038 	ldr	r0, [pc, #56]	; 102e6d64 <Ql_OS_WaitEvent+0x60>
102e6d28:	e5933000 	ldr	r3, [r3]
102e6d2c:	e12fff33 	blx	r3
102e6d30:	e3500000 	cmp	r0, #0
102e6d34:	0a000006 	beq	102e6d54 <Ql_OS_WaitEvent+0x50>
102e6d38:	e5840024 	str	r0, [r4, #36]	; 0x24
102e6d3c:	e59f3018 	ldr	r3, [pc, #24]	; 102e6d5c <Ql_OS_WaitEvent+0x58>
102e6d40:	e1a00005 	mov	r0, r5
102e6d44:	e5933024 	ldr	r3, [r3, #36]	; 0x24
102e6d48:	e1a01006 	mov	r1, r6
102e6d4c:	e12fff33 	blx	r3
102e6d50:	e8bd8070 	pop	{r4, r5, r6, pc}
102e6d54:	e59f000c 	ldr	r0, [pc, #12]	; 102e6d68 <Ql_OS_WaitEvent+0x64>
102e6d58:	e8bd8070 	pop	{r4, r5, r6, pc}
102e6d5c:	f03d6540 	.word	0xf03d6540
102e6d60:	f03d5884 	.word	0xf03d5884
102e6d64:	102e97e2 	.word	0x102e97e2
102e6d68:	ffffd8f0 	.word	0xffffd8f0

Disassembly of section .text.Ql_OS_SetEvent:

102e6d6c <Ql_OS_SetEvent>:
102e6d6c:	e92d4070 	push	{r4, r5, r6, lr}
102e6d70:	e59f404c 	ldr	r4, [pc, #76]	; 102e6dc4 <Ql_OS_SetEvent+0x58>
102e6d74:	e1a05000 	mov	r5, r0
102e6d78:	e5943028 	ldr	r3, [r4, #40]	; 0x28
102e6d7c:	e1a06001 	mov	r6, r1
102e6d80:	e3530000 	cmp	r3, #0
102e6d84:	1a000006 	bne	102e6da4 <Ql_OS_SetEvent+0x38>
102e6d88:	e59f3038 	ldr	r3, [pc, #56]	; 102e6dc8 <Ql_OS_SetEvent+0x5c>
102e6d8c:	e59f0038 	ldr	r0, [pc, #56]	; 102e6dcc <Ql_OS_SetEvent+0x60>
102e6d90:	e5933000 	ldr	r3, [r3]
102e6d94:	e12fff33 	blx	r3
102e6d98:	e3500000 	cmp	r0, #0
102e6d9c:	0a000006 	beq	102e6dbc <Ql_OS_SetEvent+0x50>
102e6da0:	e5840028 	str	r0, [r4, #40]	; 0x28
102e6da4:	e59f3018 	ldr	r3, [pc, #24]	; 102e6dc4 <Ql_OS_SetEvent+0x58>
102e6da8:	e1a00005 	mov	r0, r5
102e6dac:	e5933028 	ldr	r3, [r3, #40]	; 0x28
102e6db0:	e1a01006 	mov	r1, r6
102e6db4:	e12fff33 	blx	r3
102e6db8:	e8bd8070 	pop	{r4, r5, r6, pc}
102e6dbc:	e59f000c 	ldr	r0, [pc, #12]	; 102e6dd0 <Ql_OS_SetEvent+0x64>
102e6dc0:	e8bd8070 	pop	{r4, r5, r6, pc}
102e6dc4:	f03d6540 	.word	0xf03d6540
102e6dc8:	f03d5884 	.word	0xf03d5884
102e6dcc:	102e97f2 	.word	0x102e97f2
102e6dd0:	ffffd8f0 	.word	0xffffd8f0

Disassembly of section .text.Ql_Timer_Register:

102e6dd4 <Ql_Timer_Register>:
102e6dd4:	e92d40f8 	push	{r3, r4, r5, r6, r7, lr}
102e6dd8:	e59f4054 	ldr	r4, [pc, #84]	; 102e6e34 <Ql_Timer_Register+0x60>
102e6ddc:	e1a05000 	mov	r5, r0
102e6de0:	e5943000 	ldr	r3, [r4]
102e6de4:	e1a07001 	mov	r7, r1
102e6de8:	e3530000 	cmp	r3, #0
102e6dec:	e1a06002 	mov	r6, r2
102e6df0:	1a000006 	bne	102e6e10 <Ql_Timer_Register+0x3c>
102e6df4:	e59f303c 	ldr	r3, [pc, #60]	; 102e6e38 <Ql_Timer_Register+0x64>
102e6df8:	e59f003c 	ldr	r0, [pc, #60]	; 102e6e3c <Ql_Timer_Register+0x68>
102e6dfc:	e5933000 	ldr	r3, [r3]
102e6e00:	e12fff33 	blx	r3
102e6e04:	e3500000 	cmp	r0, #0
102e6e08:	0a000007 	beq	102e6e2c <Ql_Timer_Register+0x58>
102e6e0c:	e5840000 	str	r0, [r4]
102e6e10:	e59f301c 	ldr	r3, [pc, #28]	; 102e6e34 <Ql_Timer_Register+0x60>
102e6e14:	e1a00005 	mov	r0, r5
102e6e18:	e5933000 	ldr	r3, [r3]
102e6e1c:	e1a01007 	mov	r1, r7
102e6e20:	e1a02006 	mov	r2, r6
102e6e24:	e12fff33 	blx	r3
102e6e28:	e8bd80f8 	pop	{r3, r4, r5, r6, r7, pc}
102e6e2c:	e59f000c 	ldr	r0, [pc, #12]	; 102e6e40 <Ql_Timer_Register+0x6c>
102e6e30:	e8bd80f8 	pop	{r3, r4, r5, r6, r7, pc}
102e6e34:	f03d6580 	.word	0xf03d6580
102e6e38:	f03d5884 	.word	0xf03d5884
102e6e3c:	102e987d 	.word	0x102e987d
102e6e40:	ffffd8f0 	.word	0xffffd8f0

Disassembly of section .text.Ql_Timer_Start:

102e6e44 <Ql_Timer_Start>:
102e6e44:	e92d40f8 	push	{r3, r4, r5, r6, r7, lr}
102e6e48:	e59f4054 	ldr	r4, [pc, #84]	; 102e6ea4 <Ql_Timer_Start+0x60>
102e6e4c:	e1a05000 	mov	r5, r0
102e6e50:	e5943008 	ldr	r3, [r4, #8]
102e6e54:	e1a07001 	mov	r7, r1
102e6e58:	e3530000 	cmp	r3, #0
102e6e5c:	e1a06002 	mov	r6, r2
102e6e60:	1a000006 	bne	102e6e80 <Ql_Timer_Start+0x3c>
102e6e64:	e59f303c 	ldr	r3, [pc, #60]	; 102e6ea8 <Ql_Timer_Start+0x64>
102e6e68:	e59f003c 	ldr	r0, [pc, #60]	; 102e6eac <Ql_Timer_Start+0x68>
102e6e6c:	e5933000 	ldr	r3, [r3]
102e6e70:	e12fff33 	blx	r3
102e6e74:	e3500000 	cmp	r0, #0
102e6e78:	0a000007 	beq	102e6e9c <Ql_Timer_Start+0x58>
102e6e7c:	e5840008 	str	r0, [r4, #8]
102e6e80:	e59f301c 	ldr	r3, [pc, #28]	; 102e6ea4 <Ql_Timer_Start+0x60>
102e6e84:	e1a00005 	mov	r0, r5
102e6e88:	e5933008 	ldr	r3, [r3, #8]
102e6e8c:	e1a01007 	mov	r1, r7
102e6e90:	e1a02006 	mov	r2, r6
102e6e94:	e12fff33 	blx	r3
102e6e98:	e8bd80f8 	pop	{r3, r4, r5, r6, r7, pc}
102e6e9c:	e59f000c 	ldr	r0, [pc, #12]	; 102e6eb0 <Ql_Timer_Start+0x6c>
102e6ea0:	e8bd80f8 	pop	{r3, r4, r5, r6, r7, pc}
102e6ea4:	f03d6580 	.word	0xf03d6580
102e6ea8:	f03d5884 	.word	0xf03d5884
102e6eac:	102e98a5 	.word	0x102e98a5
102e6eb0:	ffffd8f0 	.word	0xffffd8f0

Disassembly of section .text.Ql_Timer_Stop:

102e6eb4 <Ql_Timer_Stop>:
102e6eb4:	e92d4038 	push	{r3, r4, r5, lr}
102e6eb8:	e59f4044 	ldr	r4, [pc, #68]	; 102e6f04 <Ql_Timer_Stop+0x50>
102e6ebc:	e1a05000 	mov	r5, r0
102e6ec0:	e594300c 	ldr	r3, [r4, #12]
102e6ec4:	e3530000 	cmp	r3, #0
102e6ec8:	1a000006 	bne	102e6ee8 <Ql_Timer_Stop+0x34>
102e6ecc:	e59f3034 	ldr	r3, [pc, #52]	; 102e6f08 <Ql_Timer_Stop+0x54>
102e6ed0:	e59f0034 	ldr	r0, [pc, #52]	; 102e6f0c <Ql_Timer_Stop+0x58>
102e6ed4:	e5933000 	ldr	r3, [r3]
102e6ed8:	e12fff33 	blx	r3
102e6edc:	e3500000 	cmp	r0, #0
102e6ee0:	0a000005 	beq	102e6efc <Ql_Timer_Stop+0x48>
102e6ee4:	e584000c 	str	r0, [r4, #12]
102e6ee8:	e59f3014 	ldr	r3, [pc, #20]	; 102e6f04 <Ql_Timer_Stop+0x50>
102e6eec:	e1a00005 	mov	r0, r5
102e6ef0:	e593300c 	ldr	r3, [r3, #12]
102e6ef4:	e12fff33 	blx	r3
102e6ef8:	e8bd8038 	pop	{r3, r4, r5, pc}
102e6efc:	e59f000c 	ldr	r0, [pc, #12]	; 102e6f10 <Ql_Timer_Stop+0x5c>
102e6f00:	e8bd8038 	pop	{r3, r4, r5, pc}
102e6f04:	f03d6580 	.word	0xf03d6580
102e6f08:	f03d5884 	.word	0xf03d5884
102e6f0c:	102e98b4 	.word	0x102e98b4
102e6f10:	ffffd8f0 	.word	0xffffd8f0

Disassembly of section .text.Ql_UART_Register:

102e6f14 <Ql_UART_Register>:
102e6f14:	e92d40f8 	push	{r3, r4, r5, r6, r7, lr}
102e6f18:	e59f4054 	ldr	r4, [pc, #84]	; 102e6f74 <Ql_UART_Register+0x60>
102e6f1c:	e1a05000 	mov	r5, r0
102e6f20:	e5943000 	ldr	r3, [r4]
102e6f24:	e1a07001 	mov	r7, r1
102e6f28:	e3530000 	cmp	r3, #0
102e6f2c:	e1a06002 	mov	r6, r2
102e6f30:	1a000006 	bne	102e6f50 <Ql_UART_Register+0x3c>
102e6f34:	e59f303c 	ldr	r3, [pc, #60]	; 102e6f78 <Ql_UART_Register+0x64>
102e6f38:	e59f003c 	ldr	r0, [pc, #60]	; 102e6f7c <Ql_UART_Register+0x68>
102e6f3c:	e5933000 	ldr	r3, [r3]
102e6f40:	e12fff33 	blx	r3
102e6f44:	e3500000 	cmp	r0, #0
102e6f48:	0a000007 	beq	102e6f6c <Ql_UART_Register+0x58>
102e6f4c:	e5840000 	str	r0, [r4]
102e6f50:	e59f301c 	ldr	r3, [pc, #28]	; 102e6f74 <Ql_UART_Register+0x60>
102e6f54:	e1a00005 	mov	r0, r5
102e6f58:	e5933000 	ldr	r3, [r3]
102e6f5c:	e1a01007 	mov	r1, r7
102e6f60:	e1a02006 	mov	r2, r6
102e6f64:	e12fff33 	blx	r3
102e6f68:	e8bd80f8 	pop	{r3, r4, r5, r6, r7, pc}
102e6f6c:	e59f000c 	ldr	r0, [pc, #12]	; 102e6f80 <Ql_UART_Register+0x6c>
102e6f70:	e8bd80f8 	pop	{r3, r4, r5, r6, r7, pc}
102e6f74:	f03d6590 	.word	0xf03d6590
102e6f78:	f03d5884 	.word	0xf03d5884
102e6f7c:	102e98c2 	.word	0x102e98c2
102e6f80:	ffffd8f0 	.word	0xffffd8f0

Disassembly of section .text.Ql_UART_Open:

102e6f84 <Ql_UART_Open>:
102e6f84:	e92d40f8 	push	{r3, r4, r5, r6, r7, lr}
102e6f88:	e59f4054 	ldr	r4, [pc, #84]	; 102e6fe4 <Ql_UART_Open+0x60>
102e6f8c:	e1a05000 	mov	r5, r0
102e6f90:	e5943004 	ldr	r3, [r4, #4]
102e6f94:	e1a07001 	mov	r7, r1
102e6f98:	e3530000 	cmp	r3, #0
102e6f9c:	e1a06002 	mov	r6, r2
102e6fa0:	1a000006 	bne	102e6fc0 <Ql_UART_Open+0x3c>
102e6fa4:	e59f303c 	ldr	r3, [pc, #60]	; 102e6fe8 <Ql_UART_Open+0x64>
102e6fa8:	e59f003c 	ldr	r0, [pc, #60]	; 102e6fec <Ql_UART_Open+0x68>
102e6fac:	e5933000 	ldr	r3, [r3]
102e6fb0:	e12fff33 	blx	r3
102e6fb4:	e3500000 	cmp	r0, #0
102e6fb8:	0a000007 	beq	102e6fdc <Ql_UART_Open+0x58>
102e6fbc:	e5840004 	str	r0, [r4, #4]
102e6fc0:	e59f301c 	ldr	r3, [pc, #28]	; 102e6fe4 <Ql_UART_Open+0x60>
102e6fc4:	e1a00005 	mov	r0, r5
102e6fc8:	e5933004 	ldr	r3, [r3, #4]
102e6fcc:	e1a01007 	mov	r1, r7
102e6fd0:	e1a02006 	mov	r2, r6
102e6fd4:	e12fff33 	blx	r3
102e6fd8:	e8bd80f8 	pop	{r3, r4, r5, r6, r7, pc}
102e6fdc:	e59f000c 	ldr	r0, [pc, #12]	; 102e6ff0 <Ql_UART_Open+0x6c>
102e6fe0:	e8bd80f8 	pop	{r3, r4, r5, r6, r7, pc}
102e6fe4:	f03d6590 	.word	0xf03d6590
102e6fe8:	f03d5884 	.word	0xf03d5884
102e6fec:	102e98d3 	.word	0x102e98d3
102e6ff0:	ffffd8f0 	.word	0xffffd8f0

Disassembly of section .text.Ql_UART_Write:

102e6ff4 <Ql_UART_Write>:
102e6ff4:	e92d40f8 	push	{r3, r4, r5, r6, r7, lr}
102e6ff8:	e59f4054 	ldr	r4, [pc, #84]	; 102e7054 <Ql_UART_Write+0x60>
102e6ffc:	e1a05000 	mov	r5, r0
102e7000:	e594300c 	ldr	r3, [r4, #12]
102e7004:	e1a07001 	mov	r7, r1
102e7008:	e3530000 	cmp	r3, #0
102e700c:	e1a06002 	mov	r6, r2
102e7010:	1a000006 	bne	102e7030 <Ql_UART_Write+0x3c>
102e7014:	e59f303c 	ldr	r3, [pc, #60]	; 102e7058 <Ql_UART_Write+0x64>
102e7018:	e59f003c 	ldr	r0, [pc, #60]	; 102e705c <Ql_UART_Write+0x68>
102e701c:	e5933000 	ldr	r3, [r3]
102e7020:	e12fff33 	blx	r3
102e7024:	e3500000 	cmp	r0, #0
102e7028:	0a000007 	beq	102e704c <Ql_UART_Write+0x58>
102e702c:	e584000c 	str	r0, [r4, #12]
102e7030:	e59f301c 	ldr	r3, [pc, #28]	; 102e7054 <Ql_UART_Write+0x60>
102e7034:	e1a00005 	mov	r0, r5
102e7038:	e593300c 	ldr	r3, [r3, #12]
102e703c:	e1a01007 	mov	r1, r7
102e7040:	e1a02006 	mov	r2, r6
102e7044:	e12fff33 	blx	r3
102e7048:	e8bd80f8 	pop	{r3, r4, r5, r6, r7, pc}
102e704c:	e59f000c 	ldr	r0, [pc, #12]	; 102e7060 <Ql_UART_Write+0x6c>
102e7050:	e8bd80f8 	pop	{r3, r4, r5, r6, r7, pc}
102e7054:	f03d6590 	.word	0xf03d6590
102e7058:	f03d5884 	.word	0xf03d5884
102e705c:	102e98ef 	.word	0x102e98ef
102e7060:	ffffd8f0 	.word	0xffffd8f0

Disassembly of section .text.Ql_UART_Read:

102e7064 <Ql_UART_Read>:
102e7064:	e92d40f8 	push	{r3, r4, r5, r6, r7, lr}
102e7068:	e59f4054 	ldr	r4, [pc, #84]	; 102e70c4 <Ql_UART_Read+0x60>
102e706c:	e1a05000 	mov	r5, r0
102e7070:	e5943010 	ldr	r3, [r4, #16]
102e7074:	e1a07001 	mov	r7, r1
102e7078:	e3530000 	cmp	r3, #0
102e707c:	e1a06002 	mov	r6, r2
102e7080:	1a000006 	bne	102e70a0 <Ql_UART_Read+0x3c>
102e7084:	e59f303c 	ldr	r3, [pc, #60]	; 102e70c8 <Ql_UART_Read+0x64>
102e7088:	e59f003c 	ldr	r0, [pc, #60]	; 102e70cc <Ql_UART_Read+0x68>
102e708c:	e5933000 	ldr	r3, [r3]
102e7090:	e12fff33 	blx	r3
102e7094:	e3500000 	cmp	r0, #0
102e7098:	0a000007 	beq	102e70bc <Ql_UART_Read+0x58>
102e709c:	e5840010 	str	r0, [r4, #16]
102e70a0:	e59f301c 	ldr	r3, [pc, #28]	; 102e70c4 <Ql_UART_Read+0x60>
102e70a4:	e1a00005 	mov	r0, r5
102e70a8:	e5933010 	ldr	r3, [r3, #16]
102e70ac:	e1a01007 	mov	r1, r7
102e70b0:	e1a02006 	mov	r2, r6
102e70b4:	e12fff33 	blx	r3
102e70b8:	e8bd80f8 	pop	{r3, r4, r5, r6, r7, pc}
102e70bc:	e59f000c 	ldr	r0, [pc, #12]	; 102e70d0 <Ql_UART_Read+0x6c>
102e70c0:	e8bd80f8 	pop	{r3, r4, r5, r6, r7, pc}
102e70c4:	f03d6590 	.word	0xf03d6590
102e70c8:	f03d5884 	.word	0xf03d5884
102e70cc:	102e98fd 	.word	0x102e98fd
102e70d0:	ffffd8f0 	.word	0xffffd8f0

Disassembly of section .text.Ql_UART_GetPinStatus:

102e70d4 <Ql_UART_GetPinStatus>:
102e70d4:	e92d4070 	push	{r4, r5, r6, lr}
102e70d8:	e59f404c 	ldr	r4, [pc, #76]	; 102e712c <Ql_UART_GetPinStatus+0x58>
102e70dc:	e1a05000 	mov	r5, r0
102e70e0:	e594302c 	ldr	r3, [r4, #44]	; 0x2c
102e70e4:	e1a06001 	mov	r6, r1
102e70e8:	e3530000 	cmp	r3, #0
102e70ec:	1a000006 	bne	102e710c <Ql_UART_GetPinStatus+0x38>
102e70f0:	e59f3038 	ldr	r3, [pc, #56]	; 102e7130 <Ql_UART_GetPinStatus+0x5c>
102e70f4:	e59f0038 	ldr	r0, [pc, #56]	; 102e7134 <Ql_UART_GetPinStatus+0x60>
102e70f8:	e5933000 	ldr	r3, [r3]
102e70fc:	e12fff33 	blx	r3
102e7100:	e3500000 	cmp	r0, #0
102e7104:	0a000006 	beq	102e7124 <Ql_UART_GetPinStatus+0x50>
102e7108:	e584002c 	str	r0, [r4, #44]	; 0x2c
102e710c:	e59f3018 	ldr	r3, [pc, #24]	; 102e712c <Ql_UART_GetPinStatus+0x58>
102e7110:	e1a00005 	mov	r0, r5
102e7114:	e593302c 	ldr	r3, [r3, #44]	; 0x2c
102e7118:	e1a01006 	mov	r1, r6
102e711c:	e12fff33 	blx	r3
102e7120:	e8bd8070 	pop	{r4, r5, r6, pc}
102e7124:	e59f000c 	ldr	r0, [pc, #12]	; 102e7138 <Ql_UART_GetPinStatus+0x64>
102e7128:	e8bd8070 	pop	{r4, r5, r6, pc}
102e712c:	f03d6590 	.word	0xf03d6590
102e7130:	f03d5884 	.word	0xf03d5884
102e7134:	102e9980 	.word	0x102e9980
102e7138:	ffffd8f0 	.word	0xffffd8f0

Disassembly of section .text.Ql_UART_SendEscap:

102e713c <Ql_UART_SendEscap>:
102e713c:	e92d4038 	push	{r3, r4, r5, lr}
102e7140:	e59f4044 	ldr	r4, [pc, #68]	; 102e718c <Ql_UART_SendEscap+0x50>
102e7144:	e1a05000 	mov	r5, r0
102e7148:	e5943034 	ldr	r3, [r4, #52]	; 0x34
102e714c:	e3530000 	cmp	r3, #0
102e7150:	1a000006 	bne	102e7170 <Ql_UART_SendEscap+0x34>
102e7154:	e59f3034 	ldr	r3, [pc, #52]	; 102e7190 <Ql_UART_SendEscap+0x54>
102e7158:	e59f0034 	ldr	r0, [pc, #52]	; 102e7194 <Ql_UART_SendEscap+0x58>
102e715c:	e5933000 	ldr	r3, [r3]
102e7160:	e12fff33 	blx	r3
102e7164:	e3500000 	cmp	r0, #0
102e7168:	0a000005 	beq	102e7184 <Ql_UART_SendEscap+0x48>
102e716c:	e5840034 	str	r0, [r4, #52]	; 0x34
102e7170:	e59f3014 	ldr	r3, [pc, #20]	; 102e718c <Ql_UART_SendEscap+0x50>
102e7174:	e1a00005 	mov	r0, r5
102e7178:	e5933034 	ldr	r3, [r3, #52]	; 0x34
102e717c:	e12fff33 	blx	r3
102e7180:	e8bd8038 	pop	{r3, r4, r5, pc}
102e7184:	e59f000c 	ldr	r0, [pc, #12]	; 102e7198 <Ql_UART_SendEscap+0x5c>
102e7188:	e8bd8038 	pop	{r3, r4, r5, pc}
102e718c:	f03d6590 	.word	0xf03d6590
102e7190:	f03d5884 	.word	0xf03d5884
102e7194:	102e99aa 	.word	0x102e99aa
102e7198:	ffffd8f0 	.word	0xffffd8f0

Disassembly of section .text.Ql_WTD_Start:

102e719c <Ql_WTD_Start>:
102e719c:	e92d40f8 	push	{r3, r4, r5, r6, r7, lr}
102e71a0:	e59f509c 	ldr	r5, [pc, #156]	; 102e7244 <Ql_WTD_Start+0xa8>
102e71a4:	e1a07000 	mov	r7, r0
102e71a8:	e5d53014 	ldrb	r3, [r5, #20]
102e71ac:	e353000a 	cmp	r3, #10
102e71b0:	9a000001 	bls	102e71bc <Ql_WTD_Start+0x20>
102e71b4:	e3e06000 	mvn	r6, #0
102e71b8:	ea00001f 	b	102e723c <Ql_WTD_Start+0xa0>
102e71bc:	e3500e19 	cmp	r0, #400	; 0x190
102e71c0:	3afffffb 	bcc	102e71b4 <Ql_WTD_Start+0x18>
102e71c4:	e5d53000 	ldrb	r3, [r5]
102e71c8:	e3530000 	cmp	r3, #0
102e71cc:	0afffff8 	beq	102e71b4 <Ql_WTD_Start+0x18>
102e71d0:	e3a00010 	mov	r0, #16
102e71d4:	e59f306c 	ldr	r3, [pc, #108]	; 102e7248 <Ql_WTD_Start+0xac>
102e71d8:	e12fff33 	blx	r3
102e71dc:	e2504000 	subs	r4, r0, #0
102e71e0:	0afffff3 	beq	102e71b4 <Ql_WTD_Start+0x18>
102e71e4:	e5d56014 	ldrb	r6, [r5, #20]
102e71e8:	e59f305c 	ldr	r3, [pc, #92]	; 102e724c <Ql_WTD_Start+0xb0>
102e71ec:	e2866001 	add	r6, r6, #1
102e71f0:	e20660ff 	and	r6, r6, #255	; 0xff
102e71f4:	e5c56014 	strb	r6, [r5, #20]
102e71f8:	e88400c0 	stm	r4, {r6, r7}
102e71fc:	e1a00007 	mov	r0, r7
102e7200:	e3a010c8 	mov	r1, #200	; 0xc8
102e7204:	e12fff33 	blx	r3
102e7208:	e3a03000 	mov	r3, #0
102e720c:	e584300c 	str	r3, [r4, #12]
102e7210:	e5953004 	ldr	r3, [r5, #4]
102e7214:	e3530000 	cmp	r3, #0
102e7218:	05854004 	streq	r4, [r5, #4]
102e721c:	e5840008 	str	r0, [r4, #8]
102e7220:	0a000005 	beq	102e723c <Ql_WTD_Start+0xa0>
102e7224:	ea000000 	b	102e722c <Ql_WTD_Start+0x90>
102e7228:	e1a03002 	mov	r3, r2
102e722c:	e593200c 	ldr	r2, [r3, #12]
102e7230:	e3520000 	cmp	r2, #0
102e7234:	1afffffb 	bne	102e7228 <Ql_WTD_Start+0x8c>
102e7238:	e583400c 	str	r4, [r3, #12]
102e723c:	e1a00006 	mov	r0, r6
102e7240:	e8bd80f8 	pop	{r3, r4, r5, r6, r7, pc}
102e7244:	f03d65cc 	.word	0xf03d65cc
102e7248:	102e5730 	.word	0x102e5730
102e724c:	102e53c0 	.word	0x102e53c0

Disassembly of section .text.Ql_WTD_Feed:

102e7250 <Ql_WTD_Feed>:
102e7250:	e59f304c 	ldr	r3, [pc, #76]	; 102e72a4 <Ql_WTD_Feed+0x54>
102e7254:	e92d4010 	push	{r4, lr}
102e7258:	e5d32000 	ldrb	r2, [r3]
102e725c:	e3520000 	cmp	r2, #0
102e7260:	08bd8010 	popeq	{r4, pc}
102e7264:	e5934004 	ldr	r4, [r3, #4]
102e7268:	e3540000 	cmp	r4, #0
102e726c:	08bd8010 	popeq	{r4, pc}
102e7270:	e5943000 	ldr	r3, [r4]
102e7274:	e1530000 	cmp	r3, r0
102e7278:	1a000005 	bne	102e7294 <Ql_WTD_Feed+0x44>
102e727c:	e5940004 	ldr	r0, [r4, #4]
102e7280:	e3a010c8 	mov	r1, #200	; 0xc8
102e7284:	e59f301c 	ldr	r3, [pc, #28]	; 102e72a8 <Ql_WTD_Feed+0x58>
102e7288:	e12fff33 	blx	r3
102e728c:	e5840008 	str	r0, [r4, #8]
102e7290:	e8bd8010 	pop	{r4, pc}
102e7294:	e594400c 	ldr	r4, [r4, #12]
102e7298:	e3540000 	cmp	r4, #0
102e729c:	1afffff3 	bne	102e7270 <Ql_WTD_Feed+0x20>
102e72a0:	e8bd8010 	pop	{r4, pc}
102e72a4:	f03d65cc 	.word	0xf03d65cc
102e72a8:	102e53c0 	.word	0x102e53c0
